	.text
	.const
__ZStL19piecewise_construct:
	.space 1
	.section __TEXT,__textcoal_nt,coalesced,pure_instructions
	.globl __ZN9__gnu_cxx5__ops16__iter_less_iterEv
	.weak_definition __ZN9__gnu_cxx5__ops16__iter_less_iterEv
__ZN9__gnu_cxx5__ops16__iter_less_iterEv:
LFB195:
	pushq	%rbp
LCFI0:
	movq	%rsp, %rbp
LCFI1:
	popq	%rbp
LCFI2:
	ret
LFE195:
	.align 1
	.globl __ZN9__gnu_cxx5__ops14_Iter_less_valC1ENS0_15_Iter_less_iterE
	.weak_definition __ZN9__gnu_cxx5__ops14_Iter_less_valC1ENS0_15_Iter_less_iterE
__ZN9__gnu_cxx5__ops14_Iter_less_valC1ENS0_15_Iter_less_iterE:
LFB198:
	pushq	%rbp
LCFI3:
	movq	%rsp, %rbp
LCFI4:
	movq	%rdi, -8(%rbp)
	nop
	popq	%rbp
LCFI5:
	ret
LFE198:
	.globl __ZN9__gnu_cxx5__ops15__iter_less_valEv
	.weak_definition __ZN9__gnu_cxx5__ops15__iter_less_valEv
__ZN9__gnu_cxx5__ops15__iter_less_valEv:
LFB200:
	pushq	%rbp
LCFI6:
	movq	%rsp, %rbp
LCFI7:
	popq	%rbp
LCFI8:
	ret
LFE200:
	.globl __ZN9__gnu_cxx5__ops15__val_comp_iterENS0_15_Iter_less_iterE
	.weak_definition __ZN9__gnu_cxx5__ops15__val_comp_iterENS0_15_Iter_less_iterE
__ZN9__gnu_cxx5__ops15__val_comp_iterENS0_15_Iter_less_iterE:
LFB207:
	pushq	%rbp
LCFI9:
	movq	%rsp, %rbp
LCFI10:
	popq	%rbp
LCFI11:
	ret
LFE207:
	.globl __ZN9__gnu_cxx5__ops20__iter_equal_to_iterEv
	.weak_definition __ZN9__gnu_cxx5__ops20__iter_equal_to_iterEv
__ZN9__gnu_cxx5__ops20__iter_equal_to_iterEv:
LFB209:
	pushq	%rbp
LCFI12:
	movq	%rsp, %rbp
LCFI13:
	popq	%rbp
LCFI14:
	ret
LFE209:
	.globl __ZSt4__lgl
	.weak_definition __ZSt4__lgl
__ZSt4__lgl:
LFB296:
	pushq	%rbp
LCFI15:
	movq	%rsp, %rbp
LCFI16:
	movq	%rdi, -8(%rbp)
	movq	-8(%rbp), %rax
	bsrq	%rax, %rax
	xorq	$63, %rax
	movl	$63, %edx
	subl	%eax, %edx
	movl	%edx, %eax
	cltq
	popq	%rbp
LCFI17:
	ret
LFE296:
	.align 1
	.globl __ZNSt9exceptionC2Ev
	.weak_definition __ZNSt9exceptionC2Ev
__ZNSt9exceptionC2Ev:
LFB315:
	pushq	%rbp
LCFI18:
	movq	%rsp, %rbp
LCFI19:
	movq	%rdi, -8(%rbp)
	movq	__ZTVSt9exception@GOTPCREL(%rip), %rax
	leaq	16(%rax), %rax
	movq	-8(%rbp), %rdx
	movq	%rax, (%rdx)
	nop
	popq	%rbp
LCFI20:
	ret
LFE315:
	.align 1
	.globl __ZNKSt9type_infoeqERKS_
	.weak_definition __ZNKSt9type_infoeqERKS_
__ZNKSt9type_infoeqERKS_:
LFB322:
	pushq	%rbp
LCFI21:
	movq	%rsp, %rbp
LCFI22:
	subq	$16, %rsp
	movq	%rdi, -8(%rbp)
	movq	%rsi, -16(%rbp)
	movq	-8(%rbp), %rax
	movq	8(%rax), %rdx
	movq	-16(%rbp), %rax
	movq	8(%rax), %rax
	cmpq	%rax, %rdx
	je	L14
	movq	-8(%rbp), %rax
	movq	8(%rax), %rax
	movzbl	(%rax), %eax
	cmpb	$42, %al
	je	L15
	movq	-16(%rbp), %rax
	movq	8(%rax), %rdx
	movq	-8(%rbp), %rax
	movq	8(%rax), %rax
	movq	%rdx, %rsi
	movq	%rax, %rdi
	call	_strcmp
	testl	%eax, %eax
	jne	L15
L14:
	movl	$1, %eax
	jmp	L16
L15:
	movl	$0, %eax
L16:
	leave
LCFI23:
	ret
LFE322:
	.globl __ZnwmPv
	.weak_definition __ZnwmPv
__ZnwmPv:
LFB364:
	pushq	%rbp
LCFI24:
	movq	%rsp, %rbp
LCFI25:
	movq	%rdi, -8(%rbp)
	movq	%rsi, -16(%rbp)
	movq	-16(%rbp), %rax
	popq	%rbp
LCFI26:
	ret
LFE364:
	.globl __ZdlPvS_
	.weak_definition __ZdlPvS_
__ZdlPvS_:
LFB366:
	pushq	%rbp
LCFI27:
	movq	%rsp, %rbp
LCFI28:
	movq	%rdi, -8(%rbp)
	movq	%rsi, -16(%rbp)
	nop
	popq	%rbp
LCFI29:
	ret
LFE366:
	.globl __ZSt16__deque_buf_sizem
	.weak_definition __ZSt16__deque_buf_sizem
__ZSt16__deque_buf_sizem:
LFB508:
	pushq	%rbp
LCFI30:
	movq	%rsp, %rbp
LCFI31:
	movq	%rdi, -8(%rbp)
	cmpq	$511, -8(%rbp)
	ja	L22
	movl	$512, %eax
	movl	$0, %edx
	divq	-8(%rbp)
	jmp	L24
L22:
	movl	$1, %eax
L24:
	popq	%rbp
LCFI32:
	ret
LFE508:
	.text
__ZL7isasciii:
LFB845:
	pushq	%rbp
LCFI33:
	movq	%rsp, %rbp
LCFI34:
	movl	%edi, -4(%rbp)
	movl	-4(%rbp), %eax
	andl	$-128, %eax
	testl	%eax, %eax
	sete	%al
	movzbl	%al, %eax
	popq	%rbp
LCFI35:
	ret
LFE845:
__ZL8__istypeim:
LFB846:
	pushq	%rbp
LCFI36:
	movq	%rsp, %rbp
LCFI37:
	subq	$16, %rsp
	movl	%edi, -4(%rbp)
	movq	%rsi, -16(%rbp)
	movl	-4(%rbp), %eax
	movl	%eax, %edi
	call	__ZL7isasciii
	testl	%eax, %eax
	je	L28
	movq	__DefaultRuneLocale@GOTPCREL(%rip), %rax
	movl	-4(%rbp), %edx
	movslq	%edx, %rdx
	addq	$12, %rdx
	movl	12(%rax,%rdx,4), %eax
	movl	%eax, %eax
	andq	-16(%rbp), %rax
	testq	%rax, %rax
	setne	%al
	movzbl	%al, %eax
	jmp	L30
L28:
	movq	-16(%rbp), %rdx
	movl	-4(%rbp), %eax
	movq	%rdx, %rsi
	movl	%eax, %edi
	call	___maskrune
	testl	%eax, %eax
	setne	%al
	movzbl	%al, %eax
L30:
	leave
LCFI38:
	ret
LFE846:
	.section __TEXT,__textcoal_nt,coalesced,pure_instructions
	.globl __ZNSt11char_traitsIcE7compareEPKcS2_m
	.weak_definition __ZNSt11char_traitsIcE7compareEPKcS2_m
__ZNSt11char_traitsIcE7compareEPKcS2_m:
LFB919:
	pushq	%rbp
LCFI39:
	movq	%rsp, %rbp
LCFI40:
	subq	$32, %rsp
	movq	%rdi, -8(%rbp)
	movq	%rsi, -16(%rbp)
	movq	%rdx, -24(%rbp)
	cmpq	$0, -24(%rbp)
	jne	L32
	movl	$0, %eax
	jmp	L33
L32:
	movq	-24(%rbp), %rdx
	movq	-16(%rbp), %rcx
	movq	-8(%rbp), %rax
	movq	%rcx, %rsi
	movq	%rax, %rdi
	call	_memcmp
	nop
L33:
	leave
LCFI41:
	ret
LFE919:
	.globl __ZNSt11char_traitsIcE6lengthEPKc
	.weak_definition __ZNSt11char_traitsIcE6lengthEPKc
__ZNSt11char_traitsIcE6lengthEPKc:
LFB920:
	pushq	%rbp
LCFI42:
	movq	%rsp, %rbp
LCFI43:
	movq	%rdi, -8(%rbp)
	movq	-8(%rbp), %rax
	movq	$-1, %rcx
	movq	%rax, %rdx
	movl	$0, %eax
	movq	%rdx, %rdi
	repnz; scasb
	movq	%rcx, %rax
	notq	%rax
	subq	$1, %rax
	popq	%rbp
LCFI44:
	ret
LFE920:
	.text
__ZL18__gthread_active_pv:
LFB976:
	pushq	%rbp
LCFI45:
	movq	%rsp, %rbp
LCFI46:
	movl	$1, %eax
	popq	%rbp
LCFI47:
	ret
LFE976:
__ZN9__gnu_cxxL18__exchange_and_addEPVii:
LFB1004:
	pushq	%rbp
LCFI48:
	movq	%rsp, %rbp
LCFI49:
	movq	%rdi, -8(%rbp)
	movl	%esi, -12(%rbp)
	movl	-12(%rbp), %edx
	movq	-8(%rbp), %rax
	lock; xaddl	%edx, (%rax)
	movl	%edx, %eax
	popq	%rbp
LCFI50:
	ret
LFE1004:
__ZN9__gnu_cxxL12__atomic_addEPVii:
LFB1005:
	pushq	%rbp
LCFI51:
	movq	%rsp, %rbp
LCFI52:
	movq	%rdi, -8(%rbp)
	movl	%esi, -12(%rbp)
	movl	-12(%rbp), %edx
	movq	-8(%rbp), %rax
	lock; addl	%edx, (%rax)
	nop
	popq	%rbp
LCFI53:
	ret
LFE1005:
__ZN9__gnu_cxxL25__exchange_and_add_singleEPii:
LFB1006:
	pushq	%rbp
LCFI54:
	movq	%rsp, %rbp
LCFI55:
	movq	%rdi, -24(%rbp)
	movl	%esi, -28(%rbp)
	movq	-24(%rbp), %rax
	movl	(%rax), %eax
	movl	%eax, -4(%rbp)
	movq	-24(%rbp), %rax
	movl	(%rax), %edx
	movl	-28(%rbp), %eax
	addl	%eax, %edx
	movq	-24(%rbp), %rax
	movl	%edx, (%rax)
	movl	-4(%rbp), %eax
	popq	%rbp
LCFI56:
	ret
LFE1006:
__ZN9__gnu_cxxL19__atomic_add_singleEPii:
LFB1007:
	pushq	%rbp
LCFI57:
	movq	%rsp, %rbp
LCFI58:
	movq	%rdi, -8(%rbp)
	movl	%esi, -12(%rbp)
	movq	-8(%rbp), %rax
	movl	(%rax), %edx
	movl	-12(%rbp), %eax
	addl	%eax, %edx
	movq	-8(%rbp), %rax
	movl	%edx, (%rax)
	nop
	popq	%rbp
LCFI59:
	ret
LFE1007:
__ZN9__gnu_cxxL27__exchange_and_add_dispatchEPii:
LFB1008:
	pushq	%rbp
LCFI60:
	movq	%rsp, %rbp
LCFI61:
	subq	$16, %rsp
	movq	%rdi, -8(%rbp)
	movl	%esi, -12(%rbp)
	call	__ZL18__gthread_active_pv
	testl	%eax, %eax
	setne	%al
	testb	%al, %al
	je	L45
	movl	-12(%rbp), %edx
	movq	-8(%rbp), %rax
	movl	%edx, %esi
	movq	%rax, %rdi
	call	__ZN9__gnu_cxxL18__exchange_and_addEPVii
	jmp	L46
L45:
	movl	-12(%rbp), %edx
	movq	-8(%rbp), %rax
	movl	%edx, %esi
	movq	%rax, %rdi
	call	__ZN9__gnu_cxxL25__exchange_and_add_singleEPii
	nop
L46:
	leave
LCFI62:
	ret
LFE1008:
__ZN9__gnu_cxxL21__atomic_add_dispatchEPii:
LFB1009:
	pushq	%rbp
LCFI63:
	movq	%rsp, %rbp
LCFI64:
	subq	$16, %rsp
	movq	%rdi, -8(%rbp)
	movl	%esi, -12(%rbp)
	call	__ZL18__gthread_active_pv
	testl	%eax, %eax
	setne	%al
	testb	%al, %al
	je	L48
	movl	-12(%rbp), %edx
	movq	-8(%rbp), %rax
	movl	%edx, %esi
	movq	%rax, %rdi
	call	__ZN9__gnu_cxxL12__atomic_addEPVii
	jmp	L50
L48:
	movl	-12(%rbp), %edx
	movq	-8(%rbp), %rax
	movl	%edx, %esi
	movq	%rax, %rdi
	call	__ZN9__gnu_cxxL19__atomic_add_singleEPii
L50:
	nop
	leave
LCFI65:
	ret
LFE1009:
	.const
__ZStL13allocator_arg:
	.space 1
__ZStL6ignore:
	.space 1
	.section __TEXT,__textcoal_nt,coalesced,pure_instructions
	.align 1
	.globl __ZNSt9_Any_data9_M_accessEv
	.weak_definition __ZNSt9_Any_data9_M_accessEv
__ZNSt9_Any_data9_M_accessEv:
LFB1551:
	pushq	%rbp
LCFI66:
	movq	%rsp, %rbp
LCFI67:
	movq	%rdi, -8(%rbp)
	movq	-8(%rbp), %rax
	popq	%rbp
LCFI68:
	ret
LFE1551:
	.align 1
	.globl __ZNKSt9_Any_data9_M_accessEv
	.weak_definition __ZNKSt9_Any_data9_M_accessEv
__ZNKSt9_Any_data9_M_accessEv:
LFB1552:
	pushq	%rbp
LCFI69:
	movq	%rsp, %rbp
LCFI70:
	movq	%rdi, -8(%rbp)
	movq	-8(%rbp), %rax
	popq	%rbp
LCFI71:
	ret
LFE1552:
	.align 1
	.globl __ZNSt14_Function_baseC2Ev
	.weak_definition __ZNSt14_Function_baseC2Ev
__ZNSt14_Function_baseC2Ev:
LFB1570:
	pushq	%rbp
LCFI72:
	movq	%rsp, %rbp
LCFI73:
	movq	%rdi, -8(%rbp)
	movq	-8(%rbp), %rax
	movq	$0, 16(%rax)
	nop
	popq	%rbp
LCFI74:
	ret
LFE1570:
	.align 1
	.globl __ZNSt14_Function_baseD2Ev
	.weak_definition __ZNSt14_Function_baseD2Ev
__ZNSt14_Function_baseD2Ev:
LFB1573:
	pushq	%rbp
LCFI75:
	movq	%rsp, %rbp
LCFI76:
	subq	$16, %rsp
	movq	%rdi, -8(%rbp)
	movq	-8(%rbp), %rax
	movq	16(%rax), %rax
	testq	%rax, %rax
	je	L58
	movq	-8(%rbp), %rax
	movq	16(%rax), %r8
	movq	-8(%rbp), %rcx
	movq	-8(%rbp), %rax
	movl	$3, %edx
	movq	%rcx, %rsi
	movq	%rax, %rdi
	call	*%r8
L58:
	nop
	leave
LCFI77:
	ret
LFE1573:
	.section __DATA,__gcc_except_tab
GCC_except_table0:
LLSDA1573:
	.byte	0xff
	.byte	0x3
	.byte	0
	.section __TEXT,__textcoal_nt,coalesced,pure_instructions
	.align 1
	.globl __ZNKSt14_Function_base8_M_emptyEv
	.weak_definition __ZNKSt14_Function_base8_M_emptyEv
__ZNKSt14_Function_base8_M_emptyEv:
LFB1575:
	pushq	%rbp
LCFI78:
	movq	%rsp, %rbp
LCFI79:
	movq	%rdi, -8(%rbp)
	movq	-8(%rbp), %rax
	movq	16(%rax), %rax
	testq	%rax, %rax
	sete	%al
	popq	%rbp
LCFI80:
	ret
LFE1575:
	.const
	.align 2
__ZN9__gnu_cxxL21__default_lock_policyE:
	.long	2
	.section __TEXT,__textcoal_nt,coalesced,pure_instructions
	.align 1
	.globl __ZNSt12bad_weak_ptrC1Ev
	.weak_definition __ZNSt12bad_weak_ptrC1Ev
__ZNSt12bad_weak_ptrC1Ev:
LFB1819:
	pushq	%rbp
LCFI81:
	movq	%rsp, %rbp
LCFI82:
	subq	$16, %rsp
	movq	%rdi, -8(%rbp)
	movq	-8(%rbp), %rax
	movq	%rax, %rdi
	call	__ZNSt9exceptionC2Ev
	movq	__ZTVSt12bad_weak_ptr@GOTPCREL(%rip), %rax
	leaq	16(%rax), %rax
	movq	-8(%rbp), %rdx
	movq	%rax, (%rdx)
	nop
	leave
LCFI83:
	ret
LFE1819:
	.globl __ZSt20__throw_bad_weak_ptrv
	.weak_definition __ZSt20__throw_bad_weak_ptrv
__ZSt20__throw_bad_weak_ptrv:
LFB1816:
	pushq	%rbp
LCFI84:
	movq	%rsp, %rbp
LCFI85:
	pushq	%rbx
	subq	$8, %rsp
LCFI86:
	movl	$8, %edi
	call	___cxa_allocate_exception
	movq	%rax, %rbx
	movq	$0, (%rbx)
	movq	%rbx, %rdi
	call	__ZNSt12bad_weak_ptrC1Ev
	movq	__ZNSt12bad_weak_ptrD1Ev@GOTPCREL(%rip), %rax
	movq	%rax, %rdx
	movq	__ZTISt12bad_weak_ptr@GOTPCREL(%rip), %rax
	movq	%rax, %rsi
	movq	%rbx, %rdi
	call	___cxa_throw
LFE1816:
	.align 1
	.globl __ZNSt16_Sp_counted_baseILN9__gnu_cxx12_Lock_policyE2EE15_M_add_ref_lockEv
	.weak_definition __ZNSt16_Sp_counted_baseILN9__gnu_cxx12_Lock_policyE2EE15_M_add_ref_lockEv
__ZNSt16_Sp_counted_baseILN9__gnu_cxx12_Lock_policyE2EE15_M_add_ref_lockEv:
LFB1836:
	pushq	%rbp
LCFI87:
	movq	%rsp, %rbp
LCFI88:
	subq	$32, %rsp
	movq	%rdi, -24(%rbp)
	movq	-24(%rbp), %rax
	movq	%rax, %rdi
	call	__ZNKSt16_Sp_counted_baseILN9__gnu_cxx12_Lock_policyE2EE16_M_get_use_countEv
	movl	%eax, -4(%rbp)
L67:
	movl	-4(%rbp), %eax
	testl	%eax, %eax
	jne	L64
	call	__ZSt20__throw_bad_weak_ptrv
L64:
	movl	-4(%rbp), %eax
	addl	$1, %eax
	movl	%eax, %ecx
	movq	-24(%rbp), %rax
	leaq	8(%rax), %rsi
	leaq	-4(%rbp), %rdx
	movl	(%rdx), %eax
	lock; cmpxchgl	%ecx, (%rsi)
	movl	%eax, %ecx
	sete	%al
	testb	%al, %al
	jne	L65
	movl	%ecx, (%rdx)
L65:
	xorl	$1, %eax
	testb	%al, %al
	je	L68
	jmp	L67
L68:
	nop
	leave
LCFI89:
	ret
LFE1836:
	.globl __ZZNSt19_Sp_make_shared_tag5_S_tiEvE5__tag
	.weak_definition __ZZNSt19_Sp_make_shared_tag5_S_tiEvE5__tag
	.section __TEXT,__const_coal,coalesced
	.align 3
__ZZNSt19_Sp_make_shared_tag5_S_tiEvE5__tag:
	.space 16
	.section __TEXT,__textcoal_nt,coalesced,pure_instructions
	.globl __ZNSt19_Sp_make_shared_tag5_S_tiEv
	.weak_definition __ZNSt19_Sp_make_shared_tag5_S_tiEv
__ZNSt19_Sp_make_shared_tag5_S_tiEv:
LFB1867:
	pushq	%rbp
LCFI90:
	movq	%rsp, %rbp
LCFI91:
	movq	__ZZNSt19_Sp_make_shared_tag5_S_tiEvE5__tag@GOTPCREL(%rip), %rax
	popq	%rbp
LCFI92:
	ret
LFE1867:
	.globl __ZStanSt13_Ios_FmtflagsS_
	.weak_definition __ZStanSt13_Ios_FmtflagsS_
__ZStanSt13_Ios_FmtflagsS_:
LFB2903:
	pushq	%rbp
LCFI93:
	movq	%rsp, %rbp
LCFI94:
	movl	%edi, -4(%rbp)
	movl	%esi, -8(%rbp)
	movl	-4(%rbp), %eax
	andl	-8(%rbp), %eax
	popq	%rbp
LCFI95:
	ret
LFE2903:
	.globl __ZStorSt13_Ios_FmtflagsS_
	.weak_definition __ZStorSt13_Ios_FmtflagsS_
__ZStorSt13_Ios_FmtflagsS_:
LFB2904:
	pushq	%rbp
LCFI96:
	movq	%rsp, %rbp
LCFI97:
	movl	%edi, -4(%rbp)
	movl	%esi, -8(%rbp)
	movl	-4(%rbp), %eax
	orl	-8(%rbp), %eax
	popq	%rbp
LCFI98:
	ret
LFE2904:
	.globl __ZStcoSt13_Ios_Fmtflags
	.weak_definition __ZStcoSt13_Ios_Fmtflags
__ZStcoSt13_Ios_Fmtflags:
LFB2906:
	pushq	%rbp
LCFI99:
	movq	%rsp, %rbp
LCFI100:
	movl	%edi, -4(%rbp)
	movl	-4(%rbp), %eax
	notl	%eax
	popq	%rbp
LCFI101:
	ret
LFE2906:
	.globl __ZStoRRSt13_Ios_FmtflagsS_
	.weak_definition __ZStoRRSt13_Ios_FmtflagsS_
__ZStoRRSt13_Ios_FmtflagsS_:
LFB2907:
	pushq	%rbp
LCFI102:
	movq	%rsp, %rbp
LCFI103:
	subq	$16, %rsp
	movq	%rdi, -8(%rbp)
	movl	%esi, -12(%rbp)
	movq	-8(%rbp), %rax
	movl	(%rax), %eax
	movl	-12(%rbp), %edx
	movl	%edx, %esi
	movl	%eax, %edi
	call	__ZStorSt13_Ios_FmtflagsS_
	movq	-8(%rbp), %rdx
	movl	%eax, (%rdx)
	movq	-8(%rbp), %rax
	leave
LCFI104:
	ret
LFE2907:
	.globl __ZStaNRSt13_Ios_FmtflagsS_
	.weak_definition __ZStaNRSt13_Ios_FmtflagsS_
__ZStaNRSt13_Ios_FmtflagsS_:
LFB2908:
	pushq	%rbp
LCFI105:
	movq	%rsp, %rbp
LCFI106:
	subq	$16, %rsp
	movq	%rdi, -8(%rbp)
	movl	%esi, -12(%rbp)
	movq	-8(%rbp), %rax
	movl	(%rax), %eax
	movl	-12(%rbp), %edx
	movl	%edx, %esi
	movl	%eax, %edi
	call	__ZStanSt13_Ios_FmtflagsS_
	movq	-8(%rbp), %rdx
	movl	%eax, (%rdx)
	movq	-8(%rbp), %rax
	leave
LCFI107:
	ret
LFE2908:
	.align 1
	.globl __ZNSt8ios_base4setfESt13_Ios_FmtflagsS0_
	.weak_definition __ZNSt8ios_base4setfESt13_Ios_FmtflagsS0_
__ZNSt8ios_base4setfESt13_Ios_FmtflagsS0_:
LFB2937:
	pushq	%rbp
LCFI108:
	movq	%rsp, %rbp
LCFI109:
	subq	$32, %rsp
	movq	%rdi, -24(%rbp)
	movl	%esi, -28(%rbp)
	movl	%edx, -32(%rbp)
	movq	-24(%rbp), %rax
	movl	24(%rax), %eax
	movl	%eax, -4(%rbp)
	movl	-32(%rbp), %eax
	movl	%eax, %edi
	call	__ZStcoSt13_Ios_Fmtflags
	movl	%eax, %edx
	movq	-24(%rbp), %rax
	addq	$24, %rax
	movl	%edx, %esi
	movq	%rax, %rdi
	call	__ZStaNRSt13_Ios_FmtflagsS_
	movl	-32(%rbp), %edx
	movl	-28(%rbp), %eax
	movl	%edx, %esi
	movl	%eax, %edi
	call	__ZStanSt13_Ios_FmtflagsS_
	movl	%eax, %edx
	movq	-24(%rbp), %rax
	addq	$24, %rax
	movl	%edx, %esi
	movq	%rax, %rdi
	call	__ZStoRRSt13_Ios_FmtflagsS_
	movl	-4(%rbp), %eax
	leave
LCFI110:
	ret
LFE2937:
	.globl __ZSt4leftRSt8ios_base
	.weak_definition __ZSt4leftRSt8ios_base
__ZSt4leftRSt8ios_base:
LFB2962:
	pushq	%rbp
LCFI111:
	movq	%rsp, %rbp
LCFI112:
	subq	$16, %rsp
	movq	%rdi, -8(%rbp)
	movq	-8(%rbp), %rax
	movl	$176, %edx
	movl	$32, %esi
	movq	%rax, %rdi
	call	__ZNSt8ios_base4setfESt13_Ios_FmtflagsS0_
	movq	-8(%rbp), %rax
	leave
LCFI113:
	ret
LFE2962:
	.globl __ZSt3hexRSt8ios_base
	.weak_definition __ZSt3hexRSt8ios_base
__ZSt3hexRSt8ios_base:
LFB2965:
	pushq	%rbp
LCFI114:
	movq	%rsp, %rbp
LCFI115:
	subq	$16, %rsp
	movq	%rdi, -8(%rbp)
	movq	-8(%rbp), %rax
	movl	$74, %edx
	movl	$8, %esi
	movq	%rax, %rdi
	call	__ZNSt8ios_base4setfESt13_Ios_FmtflagsS0_
	movq	-8(%rbp), %rax
	leave
LCFI116:
	ret
LFE2965:
	.globl __ZSt3octRSt8ios_base
	.weak_definition __ZSt3octRSt8ios_base
__ZSt3octRSt8ios_base:
LFB2966:
	pushq	%rbp
LCFI117:
	movq	%rsp, %rbp
LCFI118:
	subq	$16, %rsp
	movq	%rdi, -8(%rbp)
	movq	-8(%rbp), %rax
	movl	$74, %edx
	movl	$64, %esi
	movq	%rax, %rdi
	call	__ZNSt8ios_base4setfESt13_Ios_FmtflagsS0_
	movq	-8(%rbp), %rax
	leave
LCFI119:
	ret
LFE2966:
	.align 1
	.globl __ZNKSt5ctypeIcE7toupperEc
	.weak_definition __ZNKSt5ctypeIcE7toupperEc
__ZNKSt5ctypeIcE7toupperEc:
LFB3067:
	pushq	%rbp
LCFI120:
	movq	%rsp, %rbp
LCFI121:
	subq	$16, %rsp
	movq	%rdi, -8(%rbp)
	movl	%esi, %eax
	movb	%al, -12(%rbp)
	movq	-8(%rbp), %rax
	movq	(%rax), %rax
	addq	$16, %rax
	movq	(%rax), %rcx
	movsbl	-12(%rbp), %eax
	movq	-8(%rbp), %rdx
	movl	%eax, %esi
	movq	%rdx, %rdi
	call	*%rcx
	leave
LCFI122:
	ret
LFE3067:
	.align 1
	.globl __ZNKSt5ctypeIcE7tolowerEc
	.weak_definition __ZNKSt5ctypeIcE7tolowerEc
__ZNKSt5ctypeIcE7tolowerEc:
LFB3069:
	pushq	%rbp
LCFI123:
	movq	%rsp, %rbp
LCFI124:
	subq	$16, %rsp
	movq	%rdi, -8(%rbp)
	movl	%esi, %eax
	movb	%al, -12(%rbp)
	movq	-8(%rbp), %rax
	movq	(%rax), %rax
	addq	$32, %rax
	movq	(%rax), %rcx
	movsbl	-12(%rbp), %eax
	movq	-8(%rbp), %rdx
	movl	%eax, %esi
	movq	%rdx, %rdi
	call	*%rcx
	leave
LCFI125:
	ret
LFE3069:
	.align 1
	.globl __ZNKSt5ctypeIcE7tolowerEPcPKc
	.weak_definition __ZNKSt5ctypeIcE7tolowerEPcPKc
__ZNKSt5ctypeIcE7tolowerEPcPKc:
LFB3070:
	pushq	%rbp
LCFI126:
	movq	%rsp, %rbp
LCFI127:
	subq	$32, %rsp
	movq	%rdi, -8(%rbp)
	movq	%rsi, -16(%rbp)
	movq	%rdx, -24(%rbp)
	movq	-8(%rbp), %rax
	movq	(%rax), %rax
	addq	$40, %rax
	movq	(%rax), %r8
	movq	-24(%rbp), %rdx
	movq	-16(%rbp), %rcx
	movq	-8(%rbp), %rax
	movq	%rcx, %rsi
	movq	%rax, %rdi
	call	*%r8
	leave
LCFI128:
	ret
LFE3070:
	.align 1
	.globl __ZNKSt5ctypeIcE5widenEc
	.weak_definition __ZNKSt5ctypeIcE5widenEc
__ZNKSt5ctypeIcE5widenEc:
LFB3071:
	pushq	%rbp
LCFI129:
	movq	%rsp, %rbp
LCFI130:
	subq	$16, %rsp
	movq	%rdi, -8(%rbp)
	movl	%esi, %eax
	movb	%al, -12(%rbp)
	movq	-8(%rbp), %rax
	movzbl	56(%rax), %eax
	testb	%al, %al
	je	L96
	movzbl	-12(%rbp), %eax
	movzbl	%al, %eax
	movq	-8(%rbp), %rdx
	cltq
	movzbl	57(%rdx,%rax), %eax
	jmp	L97
L96:
	movq	-8(%rbp), %rax
	movq	%rax, %rdi
	call	__ZNKSt5ctypeIcE13_M_widen_initEv
	movq	-8(%rbp), %rax
	movq	(%rax), %rax
	addq	$48, %rax
	movq	(%rax), %rcx
	movsbl	-12(%rbp), %eax
	movq	-8(%rbp), %rdx
	movl	%eax, %esi
	movq	%rdx, %rdi
	call	*%rcx
	nop
L97:
	leave
LCFI131:
	ret
LFE3071:
	.align 1
	.globl __ZNKSt5ctypeIcE6narrowEcc
	.weak_definition __ZNKSt5ctypeIcE6narrowEcc
__ZNKSt5ctypeIcE6narrowEcc:
LFB3073:
	pushq	%rbp
LCFI132:
	movq	%rsp, %rbp
LCFI133:
	subq	$32, %rsp
	movq	%rdi, -24(%rbp)
	movl	%esi, %ecx
	movl	%edx, %eax
	movl	%ecx, %edx
	movb	%dl, -28(%rbp)
	movb	%al, -32(%rbp)
	movzbl	-28(%rbp), %eax
	movzbl	%al, %eax
	movq	-24(%rbp), %rdx
	cltq
	movzbl	313(%rdx,%rax), %eax
	testb	%al, %al
	je	L99
	movzbl	-28(%rbp), %eax
	movzbl	%al, %eax
	movq	-24(%rbp), %rdx
	cltq
	movzbl	313(%rdx,%rax), %eax
	jmp	L100
L99:
	movq	-24(%rbp), %rax
	movq	(%rax), %rax
	addq	$64, %rax
	movq	(%rax), %r8
	movsbl	-32(%rbp), %edx
	movsbl	-28(%rbp), %eax
	movq	-24(%rbp), %rcx
	movl	%eax, %esi
	movq	%rcx, %rdi
	call	*%r8
	movb	%al, -1(%rbp)
	movzbl	-1(%rbp), %eax
	cmpb	-32(%rbp), %al
	je	L101
	movzbl	-28(%rbp), %eax
	movzbl	%al, %eax
	movq	-24(%rbp), %rcx
	movslq	%eax, %rdx
	movzbl	-1(%rbp), %eax
	movb	%al, 313(%rcx,%rdx)
L101:
	movzbl	-1(%rbp), %eax
L100:
	leave
LCFI134:
	ret
LFE3073:
	.align 1
	.globl __ZNKSt5ctypeIcE2isEmc
	.weak_definition __ZNKSt5ctypeIcE2isEmc
__ZNKSt5ctypeIcE2isEmc:
LFB3082:
	pushq	%rbp
LCFI135:
	movq	%rsp, %rbp
LCFI136:
	subq	$32, %rsp
	movq	%rdi, -8(%rbp)
	movq	%rsi, -16(%rbp)
	movl	%edx, %eax
	movb	%al, -20(%rbp)
	movq	-8(%rbp), %rax
	movq	48(%rax), %rax
	testq	%rax, %rax
	je	L103
	movq	-8(%rbp), %rax
	movq	48(%rax), %rdx
	movzbl	-20(%rbp), %eax
	movzbl	%al, %eax
	salq	$3, %rax
	addq	%rdx, %rax
	movq	(%rax), %rax
	andq	-16(%rbp), %rax
	testq	%rax, %rax
	setne	%al
	jmp	L104
L103:
	movsbl	-20(%rbp), %eax
	movq	-16(%rbp), %rdx
	movq	%rdx, %rsi
	movl	%eax, %edi
	call	__ZL8__istypeim
	testl	%eax, %eax
	setne	%al
L104:
	leave
LCFI137:
	ret
LFE3082:
	.align 1
	.globl __ZNSt15_Rb_tree_headerC2Ev
	.weak_definition __ZNSt15_Rb_tree_headerC2Ev
__ZNSt15_Rb_tree_headerC2Ev:
LFB3905:
	pushq	%rbp
LCFI138:
	movq	%rsp, %rbp
LCFI139:
	subq	$16, %rsp
	movq	%rdi, -8(%rbp)
	movq	-8(%rbp), %rax
	movl	$0, (%rax)
	movq	-8(%rbp), %rax
	movq	%rax, %rdi
	call	__ZNSt15_Rb_tree_header8_M_resetEv
	nop
	leave
LCFI140:
	ret
LFE3905:
	.align 1
	.globl __ZNSt15_Rb_tree_header8_M_resetEv
	.weak_definition __ZNSt15_Rb_tree_header8_M_resetEv
__ZNSt15_Rb_tree_header8_M_resetEv:
LFB3911:
	pushq	%rbp
LCFI141:
	movq	%rsp, %rbp
LCFI142:
	movq	%rdi, -8(%rbp)
	movq	-8(%rbp), %rax
	movq	$0, 8(%rax)
	movq	-8(%rbp), %rdx
	movq	-8(%rbp), %rax
	movq	%rdx, 16(%rax)
	movq	-8(%rbp), %rdx
	movq	-8(%rbp), %rax
	movq	%rdx, 24(%rax)
	movq	-8(%rbp), %rax
	movq	$0, 32(%rax)
	nop
	popq	%rbp
LCFI143:
	ret
LFE3911:
	.const
	.align 2
__ZNSt15regex_constantsL5icaseE:
	.long	1
	.align 2
__ZNSt15regex_constantsL6nosubsE:
	.long	2
	.align 2
__ZNSt15regex_constantsL8optimizeE:
	.long	4
	.align 2
__ZNSt15regex_constantsL7collateE:
	.long	8
	.align 2
__ZNSt15regex_constantsL10ECMAScriptE:
	.long	16
	.align 2
__ZNSt15regex_constantsL5basicE:
	.long	32
	.align 2
__ZNSt15regex_constantsL8extendedE:
	.long	64
	.align 2
__ZNSt15regex_constantsL3awkE:
	.long	128
	.align 2
__ZNSt15regex_constantsL4grepE:
	.long	256
	.align 2
__ZNSt15regex_constantsL5egrepE:
	.long	512
	.align 2
__ZNSt15regex_constantsL12__polynomialE:
	.long	1024
	.section __TEXT,__textcoal_nt,coalesced,pure_instructions
	.globl __ZNSt15regex_constantsanENS_18syntax_option_typeES0_
	.weak_definition __ZNSt15regex_constantsanENS_18syntax_option_typeES0_
__ZNSt15regex_constantsanENS_18syntax_option_typeES0_:
LFB4229:
	pushq	%rbp
LCFI144:
	movq	%rsp, %rbp
LCFI145:
	movl	%edi, -4(%rbp)
	movl	%esi, -8(%rbp)
	movl	-4(%rbp), %eax
	andl	-8(%rbp), %eax
	popq	%rbp
LCFI146:
	ret
LFE4229:
	.globl __ZNSt15regex_constantsorENS_18syntax_option_typeES0_
	.weak_definition __ZNSt15regex_constantsorENS_18syntax_option_typeES0_
__ZNSt15regex_constantsorENS_18syntax_option_typeES0_:
LFB4230:
	pushq	%rbp
LCFI147:
	movq	%rsp, %rbp
LCFI148:
	movl	%edi, -4(%rbp)
	movl	%esi, -8(%rbp)
	movl	-4(%rbp), %eax
	orl	-8(%rbp), %eax
	popq	%rbp
LCFI149:
	ret
LFE4230:
	.const
	.align 2
__ZNSt15regex_constantsL13match_defaultE:
	.space 4
	.align 2
__ZNSt15regex_constantsL13match_not_bolE:
	.long	1
	.align 2
__ZNSt15regex_constantsL13match_not_eolE:
	.long	2
	.align 2
__ZNSt15regex_constantsL13match_not_bowE:
	.long	4
	.align 2
__ZNSt15regex_constantsL13match_not_eowE:
	.long	8
	.align 2
__ZNSt15regex_constantsL9match_anyE:
	.long	16
	.align 2
__ZNSt15regex_constantsL14match_not_nullE:
	.long	32
	.align 2
__ZNSt15regex_constantsL16match_continuousE:
	.long	64
	.align 2
__ZNSt15regex_constantsL16match_prev_availE:
	.long	128
	.align 2
__ZNSt15regex_constantsL14format_defaultE:
	.space 4
	.align 2
__ZNSt15regex_constantsL10format_sedE:
	.long	256
	.align 2
__ZNSt15regex_constantsL14format_no_copyE:
	.long	512
	.align 2
__ZNSt15regex_constantsL17format_first_onlyE:
	.long	1024
	.section __TEXT,__textcoal_nt,coalesced,pure_instructions
	.globl __ZNSt15regex_constantsanENS_15match_flag_typeES0_
	.weak_definition __ZNSt15regex_constantsanENS_15match_flag_typeES0_
__ZNSt15regex_constantsanENS_15match_flag_typeES0_:
LFB4236:
	pushq	%rbp
LCFI150:
	movq	%rsp, %rbp
LCFI151:
	movl	%edi, -4(%rbp)
	movl	%esi, -8(%rbp)
	movl	-4(%rbp), %eax
	andl	-8(%rbp), %eax
	popq	%rbp
LCFI152:
	ret
LFE4236:
	.globl __ZNSt15regex_constantsorENS_15match_flag_typeES0_
	.weak_definition __ZNSt15regex_constantsorENS_15match_flag_typeES0_
__ZNSt15regex_constantsorENS_15match_flag_typeES0_:
LFB4237:
	pushq	%rbp
LCFI153:
	movq	%rsp, %rbp
LCFI154:
	movl	%edi, -4(%rbp)
	movl	%esi, -8(%rbp)
	movl	-4(%rbp), %eax
	orl	-8(%rbp), %eax
	popq	%rbp
LCFI155:
	ret
LFE4237:
	.globl __ZNSt15regex_constantscoENS_15match_flag_typeE
	.weak_definition __ZNSt15regex_constantscoENS_15match_flag_typeE
__ZNSt15regex_constantscoENS_15match_flag_typeE:
LFB4239:
	pushq	%rbp
LCFI156:
	movq	%rsp, %rbp
LCFI157:
	movl	%edi, -4(%rbp)
	movl	-4(%rbp), %eax
	notl	%eax
	popq	%rbp
LCFI158:
	ret
LFE4239:
	.globl __ZNSt15regex_constantsoRERNS_15match_flag_typeES0_
	.weak_definition __ZNSt15regex_constantsoRERNS_15match_flag_typeES0_
__ZNSt15regex_constantsoRERNS_15match_flag_typeES0_:
LFB4241:
	pushq	%rbp
LCFI159:
	movq	%rsp, %rbp
LCFI160:
	subq	$16, %rsp
	movq	%rdi, -8(%rbp)
	movl	%esi, -12(%rbp)
	movq	-8(%rbp), %rax
	movl	(%rax), %eax
	movl	-12(%rbp), %edx
	movl	%edx, %esi
	movl	%eax, %edi
	call	__ZNSt15regex_constantsorENS_15match_flag_typeES0_
	movq	-8(%rbp), %rdx
	movl	%eax, (%rdx)
	movq	-8(%rbp), %rax
	leave
LCFI161:
	ret
LFE4241:
	.const
	.align 2
__ZNSt15regex_constantsL13error_collateE:
	.space 4
	.align 2
__ZNSt15regex_constantsL11error_ctypeE:
	.long	1
	.align 2
__ZNSt15regex_constantsL12error_escapeE:
	.long	2
	.align 2
__ZNSt15regex_constantsL13error_backrefE:
	.long	3
	.align 2
__ZNSt15regex_constantsL11error_brackE:
	.long	4
	.align 2
__ZNSt15regex_constantsL11error_parenE:
	.long	5
	.align 2
__ZNSt15regex_constantsL11error_braceE:
	.long	6
	.align 2
__ZNSt15regex_constantsL14error_badbraceE:
	.long	7
	.align 2
__ZNSt15regex_constantsL11error_rangeE:
	.long	8
	.align 2
__ZNSt15regex_constantsL11error_spaceE:
	.long	9
	.align 2
__ZNSt15regex_constantsL15error_badrepeatE:
	.long	10
	.align 2
__ZNSt15regex_constantsL16error_complexityE:
	.long	11
	.align 2
__ZNSt15regex_constantsL11error_stackE:
	.long	12
	.section __TEXT,__textcoal_nt,coalesced,pure_instructions
	.align 1
	.globl __ZNSt11regex_errorC1ENSt15regex_constants10error_typeEPKc
	.weak_definition __ZNSt11regex_errorC1ENSt15regex_constants10error_typeEPKc
__ZNSt11regex_errorC1ENSt15regex_constants10error_typeEPKc:
LFB4246:
	pushq	%rbp
LCFI162:
	movq	%rsp, %rbp
LCFI163:
	subq	$32, %rsp
	movq	%rdi, -8(%rbp)
	movl	%esi, -12(%rbp)
	movq	%rdx, -24(%rbp)
	movq	-8(%rbp), %rax
	movq	-24(%rbp), %rdx
	movq	%rdx, %rsi
	movq	%rax, %rdi
	call	__ZNSt13runtime_errorC2EPKc
	movq	__ZTVSt11regex_error@GOTPCREL(%rip), %rax
	leaq	16(%rax), %rax
	movq	-8(%rbp), %rdx
	movq	%rax, (%rdx)
	movq	-8(%rbp), %rax
	movl	-12(%rbp), %edx
	movl	%edx, 16(%rax)
	nop
	leave
LCFI164:
	ret
LFE4246:
	.globl __ZSt19__throw_regex_errorNSt15regex_constants10error_typeEPKc
	.weak_definition __ZSt19__throw_regex_errorNSt15regex_constants10error_typeEPKc
__ZSt19__throw_regex_errorNSt15regex_constants10error_typeEPKc:
LFB4247:
	pushq	%rbp
LCFI165:
	movq	%rsp, %rbp
LCFI166:
	pushq	%r12
	pushq	%rbx
	subq	$16, %rsp
LCFI167:
	movl	%edi, -20(%rbp)
	movq	%rsi, -32(%rbp)
	movl	$24, %edi
	call	___cxa_allocate_exception
	movq	%rax, %rbx
	movq	-32(%rbp), %rdx
	movl	-20(%rbp), %eax
	movl	%eax, %esi
	movq	%rbx, %rdi
LEHB0:
	call	__ZNSt11regex_errorC1ENSt15regex_constants10error_typeEPKc
LEHE0:
	movq	__ZNSt11regex_errorD1Ev@GOTPCREL(%rip), %rax
	movq	%rax, %rdx
	movq	__ZTISt11regex_error@GOTPCREL(%rip), %rax
	movq	%rax, %rsi
	movq	%rbx, %rdi
LEHB1:
	call	___cxa_throw
L122:
	movq	%rax, %r12
	movq	%rbx, %rdi
	call	___cxa_free_exception
	movq	%r12, %rax
	movq	%rax, %rdi
	call	__Unwind_Resume
LEHE1:
LFE4247:
	.section __DATA,__gcc_except_tab
GCC_except_table1:
LLSDA4247:
	.byte	0xff
	.byte	0x3
	.byte	0x1a
	.set L$set$0,LEHB0-LFB4247
	.long L$set$0
	.set L$set$1,LEHE0-LEHB0
	.long L$set$1
	.set L$set$2,L122-LFB4247
	.long L$set$2
	.byte	0
	.set L$set$3,LEHB1-LFB4247
	.long L$set$3
	.set L$set$4,LEHE1-LEHB1
	.long L$set$4
	.long	0
	.byte	0
	.section __TEXT,__textcoal_nt,coalesced,pure_instructions
	.const
	.align 3
__ZNSt8__detailL19_S_invalid_state_idE:
	.quad	-1
	.section __TEXT,__textcoal_nt,coalesced,pure_instructions
	.align 1
	.globl __ZNSt8__detail11_State_baseC2ENS_7_OpcodeE
	.weak_definition __ZNSt8__detail11_State_baseC2ENS_7_OpcodeE
__ZNSt8__detail11_State_baseC2ENS_7_OpcodeE:
LFB4252:
	pushq	%rbp
LCFI168:
	movq	%rsp, %rbp
LCFI169:
	movq	%rdi, -8(%rbp)
	movl	%esi, -12(%rbp)
	movq	-8(%rbp), %rax
	movl	-12(%rbp), %edx
	movl	%edx, (%rax)
	movq	-8(%rbp), %rax
	movq	$-1, 8(%rax)
	nop
	popq	%rbp
LCFI170:
	ret
LFE4252:
	.align 1
	.globl __ZNSt8__detail11_State_base10_M_has_altEv
	.weak_definition __ZNSt8__detail11_State_base10_M_has_altEv
__ZNSt8__detail11_State_base10_M_has_altEv:
LFB4254:
	pushq	%rbp
LCFI171:
	movq	%rsp, %rbp
LCFI172:
	movq	%rdi, -8(%rbp)
	movq	-8(%rbp), %rax
	movl	(%rax), %eax
	cmpl	$1, %eax
	je	L125
	movq	-8(%rbp), %rax
	movl	(%rax), %eax
	cmpl	$2, %eax
	je	L125
	movq	-8(%rbp), %rax
	movl	(%rax), %eax
	cmpl	$7, %eax
	jne	L126
L125:
	movl	$1, %eax
	jmp	L127
L126:
	movl	$0, %eax
L127:
	popq	%rbp
LCFI173:
	ret
LFE4254:
	.align 1
	.globl __ZNSt12_Vector_baseImSaImEE12_Vector_implD1Ev
	.weak_definition __ZNSt12_Vector_baseImSaImEE12_Vector_implD1Ev
__ZNSt12_Vector_baseImSaImEE12_Vector_implD1Ev:
LFB4268:
	pushq	%rbp
LCFI174:
	movq	%rsp, %rbp
LCFI175:
	subq	$16, %rsp
	movq	%rdi, -8(%rbp)
	movq	-8(%rbp), %rax
	movq	%rax, %rdi
	call	__ZNSaImED2Ev
	nop
	leave
LCFI176:
	ret
LFE4268:
	.align 1
	.globl __ZNSt12_Vector_baseImSaImEEC2Ev
	.weak_definition __ZNSt12_Vector_baseImSaImEEC2Ev
__ZNSt12_Vector_baseImSaImEEC2Ev:
LFB4269:
	pushq	%rbp
LCFI177:
	movq	%rsp, %rbp
LCFI178:
	subq	$16, %rsp
	movq	%rdi, -8(%rbp)
	movq	-8(%rbp), %rax
	movq	%rax, %rdi
	call	__ZNSt12_Vector_baseImSaImEE12_Vector_implC1Ev
	nop
	leave
LCFI179:
	ret
LFE4269:
	.align 1
	.globl __ZNSt6vectorImSaImEEC1Ev
	.weak_definition __ZNSt6vectorImSaImEEC1Ev
__ZNSt6vectorImSaImEEC1Ev:
LFB4272:
	pushq	%rbp
LCFI180:
	movq	%rsp, %rbp
LCFI181:
	subq	$16, %rsp
	movq	%rdi, -8(%rbp)
	movq	-8(%rbp), %rax
	movq	%rax, %rdi
	call	__ZNSt12_Vector_baseImSaImEEC2Ev
	nop
	leave
LCFI182:
	ret
LFE4272:
	.align 1
	.globl __ZNSt8__detail9_NFA_baseC2ENSt15regex_constants18syntax_option_typeE
	.weak_definition __ZNSt8__detail9_NFA_baseC2ENSt15regex_constants18syntax_option_typeE
__ZNSt8__detail9_NFA_baseC2ENSt15regex_constants18syntax_option_typeE:
LFB4273:
	pushq	%rbp
LCFI183:
	movq	%rsp, %rbp
LCFI184:
	subq	$16, %rsp
	movq	%rdi, -8(%rbp)
	movl	%esi, -12(%rbp)
	movq	-8(%rbp), %rax
	movq	%rax, %rdi
	call	__ZNSt6vectorImSaImEEC1Ev
	movq	-8(%rbp), %rax
	movl	-12(%rbp), %edx
	movl	%edx, 24(%rax)
	movq	-8(%rbp), %rax
	movq	$0, 32(%rax)
	movq	-8(%rbp), %rax
	movq	$0, 40(%rax)
	movq	-8(%rbp), %rax
	movb	$0, 48(%rax)
	nop
	leave
LCFI185:
	ret
LFE4273:
	.align 1
	.globl __ZNKSt8__detail9_NFA_base8_M_startEv
	.weak_definition __ZNKSt8__detail9_NFA_base8_M_startEv
__ZNKSt8__detail9_NFA_base8_M_startEv:
LFB4276:
	pushq	%rbp
LCFI186:
	movq	%rsp, %rbp
LCFI187:
	movq	%rdi, -8(%rbp)
	movq	-8(%rbp), %rax
	movq	32(%rax), %rax
	popq	%rbp
LCFI188:
	ret
LFE4276:
	.align 1
	.globl __ZNKSt8__detail9_NFA_base12_M_sub_countEv
	.weak_definition __ZNKSt8__detail9_NFA_base12_M_sub_countEv
__ZNKSt8__detail9_NFA_base12_M_sub_countEv:
LFB4277:
	pushq	%rbp
LCFI189:
	movq	%rsp, %rbp
LCFI190:
	movq	%rdi, -8(%rbp)
	movq	-8(%rbp), %rax
	movq	40(%rax), %rax
	popq	%rbp
LCFI191:
	ret
LFE4277:
	.globl __ZSt7forwardIcEOT_RNSt16remove_referenceIS0_E4typeE
	.weak_definition __ZSt7forwardIcEOT_RNSt16remove_referenceIS0_E4typeE
__ZSt7forwardIcEOT_RNSt16remove_referenceIS0_E4typeE:
LFB4309:
	pushq	%rbp
LCFI192:
	movq	%rsp, %rbp
LCFI193:
	movq	%rdi, -8(%rbp)
	movq	-8(%rbp), %rax
	popq	%rbp
LCFI194:
	ret
LFE4309:
	.align 1
	.globl __ZNSt4pairIccEC1IccLb1EEEOT_OT0_
	.weak_definition __ZNSt4pairIccEC1IccLb1EEEOT_OT0_
__ZNSt4pairIccEC1IccLb1EEEOT_OT0_:
LFB4321:
	pushq	%rbp
LCFI195:
	movq	%rsp, %rbp
LCFI196:
	subq	$32, %rsp
	movq	%rdi, -8(%rbp)
	movq	%rsi, -16(%rbp)
	movq	%rdx, -24(%rbp)
	movq	-16(%rbp), %rax
	movq	%rax, %rdi
	call	__ZSt7forwardIcEOT_RNSt16remove_referenceIS0_E4typeE
	movzbl	(%rax), %eax
	movq	-8(%rbp), %rdx
	movb	%al, (%rdx)
	movq	-24(%rbp), %rax
	movq	%rax, %rdi
	call	__ZSt7forwardIcEOT_RNSt16remove_referenceIS0_E4typeE
	movzbl	(%rax), %eax
	movq	-8(%rbp), %rdx
	movb	%al, 1(%rdx)
	nop
	leave
LCFI197:
	ret
LFE4321:
	.cstring
lC0:
	.ascii "^$\\.*+?()[]{}|\0"
lC1:
	.ascii ".[\\*^$\0"
lC2:
	.ascii ".[\\()*+?{|^$\0"
lC3:
	.ascii ".[\\()*+?{|^$\12\0"
lC4:
	.ascii ".[\\*^$\12\0"
	.section __TEXT,__textcoal_nt,coalesced,pure_instructions
	.align 1
	.globl __ZNSt8__detail12_ScannerBaseC2ENSt15regex_constants18syntax_option_typeE
	.weak_definition __ZNSt8__detail12_ScannerBaseC2ENSt15regex_constants18syntax_option_typeE
__ZNSt8__detail12_ScannerBaseC2ENSt15regex_constants18syntax_option_typeE:
LFB4323:
	pushq	%rbp
LCFI198:
	movq	%rsp, %rbp
LCFI199:
	subq	$16, %rsp
	movq	%rdi, -8(%rbp)
	movl	%esi, -12(%rbp)
	movq	-8(%rbp), %rax
	movb	$94, (%rax)
	movq	-8(%rbp), %rax
	movl	$22, 4(%rax)
	movq	-8(%rbp), %rax
	movb	$36, 8(%rax)
	movq	-8(%rbp), %rax
	movl	$23, 12(%rax)
	movq	-8(%rbp), %rax
	movb	$46, 16(%rax)
	movq	-8(%rbp), %rax
	movl	$0, 20(%rax)
	movq	-8(%rbp), %rax
	movb	$42, 24(%rax)
	movq	-8(%rbp), %rax
	movl	$20, 28(%rax)
	movq	-8(%rbp), %rax
	movb	$43, 32(%rax)
	movq	-8(%rbp), %rax
	movl	$21, 36(%rax)
	movq	-8(%rbp), %rax
	movb	$63, 40(%rax)
	movq	-8(%rbp), %rax
	movl	$18, 44(%rax)
	movq	-8(%rbp), %rax
	movb	$124, 48(%rax)
	movq	-8(%rbp), %rax
	movl	$19, 52(%rax)
	movq	-8(%rbp), %rax
	movb	$10, 56(%rax)
	movq	-8(%rbp), %rax
	movl	$19, 60(%rax)
	movq	-8(%rbp), %rax
	movb	$0, 64(%rax)
	movq	-8(%rbp), %rax
	movl	$19, 68(%rax)
	movq	-8(%rbp), %rax
	movb	$48, 72(%rax)
	movq	-8(%rbp), %rax
	movb	$0, 73(%rax)
	movq	-8(%rbp), %rax
	movb	$98, 74(%rax)
	movq	-8(%rbp), %rax
	movb	$8, 75(%rax)
	movq	-8(%rbp), %rax
	movb	$102, 76(%rax)
	movq	-8(%rbp), %rax
	movb	$12, 77(%rax)
	movq	-8(%rbp), %rax
	movb	$110, 78(%rax)
	movq	-8(%rbp), %rax
	movb	$10, 79(%rax)
	movq	-8(%rbp), %rax
	movb	$114, 80(%rax)
	movq	-8(%rbp), %rax
	movb	$13, 81(%rax)
	movq	-8(%rbp), %rax
	movb	$116, 82(%rax)
	movq	-8(%rbp), %rax
	movb	$9, 83(%rax)
	movq	-8(%rbp), %rax
	movb	$118, 84(%rax)
	movq	-8(%rbp), %rax
	movb	$11, 85(%rax)
	movq	-8(%rbp), %rax
	movb	$0, 86(%rax)
	movq	-8(%rbp), %rax
	movb	$0, 87(%rax)
	movq	-8(%rbp), %rax
	movb	$34, 88(%rax)
	movq	-8(%rbp), %rax
	movb	$34, 89(%rax)
	movq	-8(%rbp), %rax
	movb	$47, 90(%rax)
	movq	-8(%rbp), %rax
	movb	$47, 91(%rax)
	movq	-8(%rbp), %rax
	movb	$92, 92(%rax)
	movq	-8(%rbp), %rax
	movb	$92, 93(%rax)
	movq	-8(%rbp), %rax
	movb	$97, 94(%rax)
	movq	-8(%rbp), %rax
	movb	$7, 95(%rax)
	movq	-8(%rbp), %rax
	movb	$98, 96(%rax)
	movq	-8(%rbp), %rax
	movb	$8, 97(%rax)
	movq	-8(%rbp), %rax
	movb	$102, 98(%rax)
	movq	-8(%rbp), %rax
	movb	$12, 99(%rax)
	movq	-8(%rbp), %rax
	movb	$110, 100(%rax)
	movq	-8(%rbp), %rax
	movb	$10, 101(%rax)
	movq	-8(%rbp), %rax
	movb	$114, 102(%rax)
	movq	-8(%rbp), %rax
	movb	$13, 103(%rax)
	movq	-8(%rbp), %rax
	movb	$116, 104(%rax)
	movq	-8(%rbp), %rax
	movb	$9, 105(%rax)
	movq	-8(%rbp), %rax
	movb	$118, 106(%rax)
	movq	-8(%rbp), %rax
	movb	$11, 107(%rax)
	movq	-8(%rbp), %rax
	movb	$0, 108(%rax)
	movq	-8(%rbp), %rax
	movb	$0, 109(%rax)
	movq	-8(%rbp), %rax
	leaq	lC0(%rip), %rdx
	movq	%rdx, 112(%rax)
	movq	-8(%rbp), %rax
	leaq	lC1(%rip), %rdx
	movq	%rdx, 120(%rax)
	movq	-8(%rbp), %rax
	leaq	lC2(%rip), %rdx
	movq	%rdx, 128(%rax)
	movq	-8(%rbp), %rax
	movl	$0, 136(%rax)
	movq	-8(%rbp), %rax
	movl	-12(%rbp), %edx
	movl	%edx, 140(%rax)
	movq	-8(%rbp), %rax
	movq	%rax, %rdi
	call	__ZNKSt8__detail12_ScannerBase10_M_is_ecmaEv
	testb	%al, %al
	je	L141
	movq	-8(%rbp), %rax
	addq	$72, %rax
	jmp	L142
L141:
	movq	-8(%rbp), %rax
	addq	$88, %rax
L142:
	movq	-8(%rbp), %rdx
	movq	%rax, 152(%rdx)
	movq	-8(%rbp), %rax
	movq	%rax, %rdi
	call	__ZNKSt8__detail12_ScannerBase10_M_is_ecmaEv
	testb	%al, %al
	je	L143
	movq	-8(%rbp), %rax
	movq	112(%rax), %rax
	jmp	L144
L143:
	movq	-8(%rbp), %rax
	movl	140(%rax), %eax
	movl	$32, %esi
	movl	%eax, %edi
	call	__ZNSt15regex_constantsanENS_18syntax_option_typeES0_
	testl	%eax, %eax
	je	L145
	movq	-8(%rbp), %rax
	movq	120(%rax), %rax
	jmp	L144
L145:
	movq	-8(%rbp), %rax
	movl	140(%rax), %eax
	movl	$64, %esi
	movl	%eax, %edi
	call	__ZNSt15regex_constantsanENS_18syntax_option_typeES0_
	testl	%eax, %eax
	je	L147
	movq	-8(%rbp), %rax
	movq	128(%rax), %rax
	jmp	L144
L147:
	movq	-8(%rbp), %rax
	movl	140(%rax), %eax
	movl	$256, %esi
	movl	%eax, %edi
	call	__ZNSt15regex_constantsanENS_18syntax_option_typeES0_
	testl	%eax, %eax
	jne	L149
	movq	-8(%rbp), %rax
	movl	140(%rax), %eax
	movl	$512, %esi
	movl	%eax, %edi
	call	__ZNSt15regex_constantsanENS_18syntax_option_typeES0_
	testl	%eax, %eax
	jne	L150
	movq	-8(%rbp), %rax
	movl	140(%rax), %eax
	movl	$128, %esi
	movl	%eax, %edi
	call	__ZNSt15regex_constantsanENS_18syntax_option_typeES0_
	testl	%eax, %eax
	je	L151
	movq	-8(%rbp), %rax
	movq	128(%rax), %rax
	jmp	L144
L151:
	movl	$0, %eax
	jmp	L144
L150:
	leaq	lC3(%rip), %rax
	jmp	L144
L149:
	leaq	lC4(%rip), %rax
L144:
	movq	-8(%rbp), %rdx
	movq	%rax, 160(%rdx)
	movq	-8(%rbp), %rax
	movb	$0, 168(%rax)
	nop
	leave
LCFI200:
	ret
LFE4323:
	.align 1
	.globl __ZNSt8__detail12_ScannerBase14_M_find_escapeEc
	.weak_definition __ZNSt8__detail12_ScannerBase14_M_find_escapeEc
__ZNSt8__detail12_ScannerBase14_M_find_escapeEc:
LFB4325:
	pushq	%rbp
LCFI201:
	movq	%rsp, %rbp
LCFI202:
	movq	%rdi, -24(%rbp)
	movl	%esi, %eax
	movb	%al, -28(%rbp)
	movq	-24(%rbp), %rax
	movq	152(%rax), %rax
	movq	%rax, -8(%rbp)
L159:
	movq	-8(%rbp), %rax
	movzbl	(%rax), %eax
	testb	%al, %al
	je	L156
	movq	-8(%rbp), %rax
	movzbl	(%rax), %eax
	cmpb	%al, -28(%rbp)
	jne	L157
	movq	-8(%rbp), %rax
	addq	$1, %rax
	jmp	L158
L157:
	addq	$2, -8(%rbp)
	jmp	L159
L156:
	movl	$0, %eax
L158:
	popq	%rbp
LCFI203:
	ret
LFE4325:
	.align 1
	.globl __ZNKSt8__detail12_ScannerBase10_M_is_ecmaEv
	.weak_definition __ZNKSt8__detail12_ScannerBase10_M_is_ecmaEv
__ZNKSt8__detail12_ScannerBase10_M_is_ecmaEv:
LFB4326:
	pushq	%rbp
LCFI204:
	movq	%rsp, %rbp
LCFI205:
	subq	$16, %rsp
	movq	%rdi, -8(%rbp)
	movq	-8(%rbp), %rax
	movl	140(%rax), %eax
	movl	$16, %esi
	movl	%eax, %edi
	call	__ZNSt15regex_constantsanENS_18syntax_option_typeES0_
	testl	%eax, %eax
	setne	%al
	leave
LCFI206:
	ret
LFE4326:
	.align 1
	.globl __ZNKSt8__detail12_ScannerBase11_M_is_basicEv
	.weak_definition __ZNKSt8__detail12_ScannerBase11_M_is_basicEv
__ZNKSt8__detail12_ScannerBase11_M_is_basicEv:
LFB4327:
	pushq	%rbp
LCFI207:
	movq	%rsp, %rbp
LCFI208:
	subq	$16, %rsp
	movq	%rdi, -8(%rbp)
	movl	$256, %esi
	movl	$32, %edi
	call	__ZNSt15regex_constantsorENS_18syntax_option_typeES0_
	movl	%eax, %edx
	movq	-8(%rbp), %rax
	movl	140(%rax), %eax
	movl	%edx, %esi
	movl	%eax, %edi
	call	__ZNSt15regex_constantsanENS_18syntax_option_typeES0_
	testl	%eax, %eax
	setne	%al
	leave
LCFI209:
	ret
LFE4327:
	.align 1
	.globl __ZNKSt8__detail12_ScannerBase9_M_is_awkEv
	.weak_definition __ZNKSt8__detail12_ScannerBase9_M_is_awkEv
__ZNKSt8__detail12_ScannerBase9_M_is_awkEv:
LFB4330:
	pushq	%rbp
LCFI210:
	movq	%rsp, %rbp
LCFI211:
	subq	$16, %rsp
	movq	%rdi, -8(%rbp)
	movq	-8(%rbp), %rax
	movl	140(%rax), %eax
	movl	$128, %esi
	movl	%eax, %edi
	call	__ZNSt15regex_constantsanENS_18syntax_option_typeES0_
	testl	%eax, %eax
	setne	%al
	leave
LCFI212:
	ret
LFE4330:
	.static_data
__ZStL8__ioinit:
	.space	1
	.section __TEXT,__textcoal_nt,coalesced,pure_instructions
	.align 1
	.globl __ZN9cxx11test8delegateC2Ei
	.weak_definition __ZN9cxx11test8delegateC2Ei
__ZN9cxx11test8delegateC2Ei:
LFB4623:
	pushq	%rbp
LCFI213:
	movq	%rsp, %rbp
LCFI214:
	movq	%rdi, -8(%rbp)
	movl	%esi, -12(%rbp)
	movq	__ZTVN9cxx11test8delegateE@GOTPCREL(%rip), %rax
	leaq	16(%rax), %rax
	movq	-8(%rbp), %rdx
	movq	%rax, (%rdx)
	movq	-8(%rbp), %rax
	movl	-12(%rbp), %edx
	movl	%edx, 8(%rax)
	nop
	popq	%rbp
LCFI215:
	ret
LFE4623:
	.align 1
	.globl __ZN9cxx11test8delegateC1Ei
	.weak_definition __ZN9cxx11test8delegateC1Ei
__ZN9cxx11test8delegateC1Ei:
LFB4624:
	pushq	%rbp
LCFI216:
	movq	%rsp, %rbp
LCFI217:
	movq	%rdi, -8(%rbp)
	movl	%esi, -12(%rbp)
	movq	__ZTVN9cxx11test8delegateE@GOTPCREL(%rip), %rax
	leaq	16(%rax), %rax
	movq	-8(%rbp), %rdx
	movq	%rax, (%rdx)
	movq	-8(%rbp), %rax
	movl	-12(%rbp), %edx
	movl	%edx, 8(%rax)
	nop
	popq	%rbp
LCFI218:
	ret
LFE4624:
	.align 1
	.globl __ZN9cxx11test8delegateC1Ev
	.weak_definition __ZN9cxx11test8delegateC1Ev
__ZN9cxx11test8delegateC1Ev:
LFB4627:
	pushq	%rbp
LCFI219:
	movq	%rsp, %rbp
LCFI220:
	subq	$16, %rsp
	movq	%rdi, -8(%rbp)
	movq	-8(%rbp), %rax
	movl	$2354, %esi
	movq	%rax, %rdi
	call	__ZN9cxx11test8delegateC1Ei
	nop
	leave
LCFI221:
	ret
LFE4627:
	.align 1
	.globl __ZN9cxx11test8delegate6getvalEv
	.weak_definition __ZN9cxx11test8delegate6getvalEv
__ZN9cxx11test8delegate6getvalEv:
LFB4628:
	pushq	%rbp
LCFI222:
	movq	%rsp, %rbp
LCFI223:
	movq	%rdi, -8(%rbp)
	movq	-8(%rbp), %rax
	movl	8(%rax), %eax
	popq	%rbp
LCFI224:
	ret
LFE4628:
	.align 1
	.globl __ZN9cxx11test10overriddenC1Ei
	.weak_definition __ZN9cxx11test10overriddenC1Ei
__ZN9cxx11test10overriddenC1Ei:
LFB4631:
	pushq	%rbp
LCFI225:
	movq	%rsp, %rbp
LCFI226:
	subq	$16, %rsp
	movq	%rdi, -8(%rbp)
	movl	%esi, -12(%rbp)
	movq	-8(%rbp), %rax
	movl	-12(%rbp), %edx
	movl	%edx, %esi
	movq	%rax, %rdi
	call	__ZN9cxx11test8delegateC2Ei
	movq	__ZTVN9cxx11test10overriddenE@GOTPCREL(%rip), %rax
	leaq	16(%rax), %rax
	movq	-8(%rbp), %rdx
	movq	%rax, (%rdx)
	nop
	leave
LCFI227:
	ret
LFE4631:
	.align 1
	.globl __ZN9cxx11test10overridden6getvalEv
	.weak_definition __ZN9cxx11test10overridden6getvalEv
__ZN9cxx11test10overridden6getvalEv:
LFB4632:
	pushq	%rbp
LCFI228:
	movq	%rsp, %rbp
LCFI229:
	movq	%rdi, -8(%rbp)
	movq	-8(%rbp), %rax
	movl	8(%rax), %eax
	addl	%eax, %eax
	popq	%rbp
LCFI230:
	ret
LFE4632:
	.globl __ZSt4setwi
	.weak_definition __ZSt4setwi
__ZSt4setwi:
LFB4734:
	pushq	%rbp
LCFI231:
	movq	%rsp, %rbp
LCFI232:
	movl	%edi, -4(%rbp)
	movl	-4(%rbp), %eax
	popq	%rbp
LCFI233:
	ret
LFE4734:
	.align 1
	.globl __ZNSt8__detail17_List_node_headerC1Ev
	.weak_definition __ZNSt8__detail17_List_node_headerC1Ev
__ZNSt8__detail17_List_node_headerC1Ev:
LFB4750:
	pushq	%rbp
LCFI234:
	movq	%rsp, %rbp
LCFI235:
	subq	$16, %rsp
	movq	%rdi, -8(%rbp)
	movq	-8(%rbp), %rax
	movq	%rax, %rdi
	call	__ZNSt8__detail17_List_node_header7_M_initEv
	nop
	leave
LCFI236:
	ret
LFE4750:
	.align 1
	.globl __ZNSt8__detail17_List_node_header7_M_initEv
	.weak_definition __ZNSt8__detail17_List_node_header7_M_initEv
__ZNSt8__detail17_List_node_header7_M_initEv:
LFB4755:
	pushq	%rbp
LCFI237:
	movq	%rsp, %rbp
LCFI238:
	movq	%rdi, -8(%rbp)
	movq	-8(%rbp), %rdx
	movq	-8(%rbp), %rax
	movq	%rdx, 8(%rax)
	movq	-8(%rbp), %rax
	movq	8(%rax), %rdx
	movq	-8(%rbp), %rax
	movq	%rdx, (%rax)
	movq	-8(%rbp), %rax
	movq	$0, 16(%rax)
	nop
	popq	%rbp
LCFI239:
	ret
LFE4755:
	.text
	.align 1,0x90
__ZZ4mainENKUliE_clEi:
LFB5032:
	pushq	%rbp
LCFI240:
	movq	%rsp, %rbp
LCFI241:
	subq	$16, %rsp
	movq	%rdi, -8(%rbp)
	movl	%esi, -12(%rbp)
	movl	-12(%rbp), %eax
	movl	%eax, %esi
	movq	__ZSt4cout@GOTPCREL(%rip), %rax
	movq	%rax, %rdi
	call	__ZNSolsEi
	nop
	leave
LCFI242:
	ret
LFE5032:
	.section __TEXT,__textcoal_nt,coalesced,pure_instructions
	.align 1
	.globl __ZNSt12__shared_ptrINSt7__cxx1112basic_stringIcSt11char_traitsIcESaIcEEELN9__gnu_cxx12_Lock_policyE2EED2Ev
	.weak_definition __ZNSt12__shared_ptrINSt7__cxx1112basic_stringIcSt11char_traitsIcESaIcEEELN9__gnu_cxx12_Lock_policyE2EED2Ev
__ZNSt12__shared_ptrINSt7__cxx1112basic_stringIcSt11char_traitsIcESaIcEEELN9__gnu_cxx12_Lock_policyE2EED2Ev:
LFB5037:
	pushq	%rbp
LCFI243:
	movq	%rsp, %rbp
LCFI244:
	subq	$16, %rsp
	movq	%rdi, -8(%rbp)
	movq	-8(%rbp), %rax
	addq	$8, %rax
	movq	%rax, %rdi
	call	__ZNSt14__shared_countILN9__gnu_cxx12_Lock_policyE2EED1Ev
	nop
	leave
LCFI245:
	ret
LFE5037:
	.align 1
	.globl __ZNSt10shared_ptrINSt7__cxx1112basic_stringIcSt11char_traitsIcESaIcEEEED1Ev
	.weak_definition __ZNSt10shared_ptrINSt7__cxx1112basic_stringIcSt11char_traitsIcESaIcEEEED1Ev
__ZNSt10shared_ptrINSt7__cxx1112basic_stringIcSt11char_traitsIcESaIcEEEED1Ev:
LFB5040:
	pushq	%rbp
LCFI246:
	movq	%rsp, %rbp
LCFI247:
	subq	$16, %rsp
	movq	%rdi, -8(%rbp)
	movq	-8(%rbp), %rax
	movq	%rax, %rdi
	call	__ZNSt12__shared_ptrINSt7__cxx1112basic_stringIcSt11char_traitsIcESaIcEEELN9__gnu_cxx12_Lock_policyE2EED2Ev
	nop
	leave
LCFI248:
	ret
LFE5040:
	.align 1
	.globl __ZNSt10__weak_ptrINSt7__cxx1112basic_stringIcSt11char_traitsIcESaIcEEELN9__gnu_cxx12_Lock_policyE2EED2Ev
	.weak_definition __ZNSt10__weak_ptrINSt7__cxx1112basic_stringIcSt11char_traitsIcESaIcEEELN9__gnu_cxx12_Lock_policyE2EED2Ev
__ZNSt10__weak_ptrINSt7__cxx1112basic_stringIcSt11char_traitsIcESaIcEEELN9__gnu_cxx12_Lock_policyE2EED2Ev:
LFB5043:
	pushq	%rbp
LCFI249:
	movq	%rsp, %rbp
LCFI250:
	subq	$16, %rsp
	movq	%rdi, -8(%rbp)
	movq	-8(%rbp), %rax
	addq	$8, %rax
	movq	%rax, %rdi
	call	__ZNSt12__weak_countILN9__gnu_cxx12_Lock_policyE2EED1Ev
	nop
	leave
LCFI251:
	ret
LFE5043:
	.align 1
	.globl __ZNSt8weak_ptrINSt7__cxx1112basic_stringIcSt11char_traitsIcESaIcEEEED1Ev
	.weak_definition __ZNSt8weak_ptrINSt7__cxx1112basic_stringIcSt11char_traitsIcESaIcEEEED1Ev
__ZNSt8weak_ptrINSt7__cxx1112basic_stringIcSt11char_traitsIcESaIcEEEED1Ev:
LFB5046:
	pushq	%rbp
LCFI252:
	movq	%rsp, %rbp
LCFI253:
	subq	$16, %rsp
	movq	%rdi, -8(%rbp)
	movq	-8(%rbp), %rax
	movq	%rax, %rdi
	call	__ZNSt10__weak_ptrINSt7__cxx1112basic_stringIcSt11char_traitsIcESaIcEEELN9__gnu_cxx12_Lock_policyE2EED2Ev
	nop
	leave
LCFI254:
	ret
LFE5046:
	.align 1
	.globl __ZNSt10_Head_baseILm0ENSt7__cxx1112basic_stringIcSt11char_traitsIcESaIcEEELb0EED2Ev
	.weak_definition __ZNSt10_Head_baseILm0ENSt7__cxx1112basic_stringIcSt11char_traitsIcESaIcEEELb0EED2Ev
__ZNSt10_Head_baseILm0ENSt7__cxx1112basic_stringIcSt11char_traitsIcESaIcEEELb0EED2Ev:
LFB5063:
	pushq	%rbp
LCFI255:
	movq	%rsp, %rbp
LCFI256:
	subq	$16, %rsp
	movq	%rdi, -8(%rbp)
	movq	-8(%rbp), %rax
	movq	%rax, %rdi
	call	__ZNSt7__cxx1112basic_stringIcSt11char_traitsIcESaIcEED1Ev
	nop
	leave
LCFI257:
	ret
LFE5063:
	.align 1
	.globl __ZNSt11_Tuple_implILm0EJNSt7__cxx1112basic_stringIcSt11char_traitsIcESaIcEEEidEED2Ev
	.weak_definition __ZNSt11_Tuple_implILm0EJNSt7__cxx1112basic_stringIcSt11char_traitsIcESaIcEEEidEED2Ev
__ZNSt11_Tuple_implILm0EJNSt7__cxx1112basic_stringIcSt11char_traitsIcESaIcEEEidEED2Ev:
LFB5065:
	pushq	%rbp
LCFI258:
	movq	%rsp, %rbp
LCFI259:
	subq	$16, %rsp
	movq	%rdi, -8(%rbp)
	movq	-8(%rbp), %rax
	addq	$16, %rax
	movq	%rax, %rdi
	call	__ZNSt10_Head_baseILm0ENSt7__cxx1112basic_stringIcSt11char_traitsIcESaIcEEELb0EED2Ev
	nop
	leave
LCFI260:
	ret
LFE5065:
	.align 1
	.globl __ZNSt5tupleIJNSt7__cxx1112basic_stringIcSt11char_traitsIcESaIcEEEidEEC1IJRA5_KcidELb1EEEDpOT_
	.weak_definition __ZNSt5tupleIJNSt7__cxx1112basic_stringIcSt11char_traitsIcESaIcEEEidEEC1IJRA5_KcidELb1EEEDpOT_
__ZNSt5tupleIJNSt7__cxx1112basic_stringIcSt11char_traitsIcESaIcEEEidEEC1IJRA5_KcidELb1EEEDpOT_:
LFB5068:
	pushq	%rbp
LCFI261:
	movq	%rsp, %rbp
LCFI262:
	pushq	%r13
	pushq	%r12
	pushq	%rbx
	subq	$40, %rsp
LCFI263:
	movq	%rdi, -40(%rbp)
	movq	%rsi, -48(%rbp)
	movq	%rdx, -56(%rbp)
	movq	%rcx, -64(%rbp)
	movq	-40(%rbp), %rbx
	movq	-64(%rbp), %rax
	movq	%rax, %rdi
	call	__ZSt7forwardIdEOT_RNSt16remove_referenceIS0_E4typeE
	movq	%rax, %r13
	movq	-56(%rbp), %rax
	movq	%rax, %rdi
	call	__ZSt7forwardIiEOT_RNSt16remove_referenceIS0_E4typeE
	movq	%rax, %r12
	movq	-48(%rbp), %rax
	movq	%rax, %rdi
	call	__ZSt7forwardIRA5_KcEOT_RNSt16remove_referenceIS3_E4typeE
	movq	%r13, %rcx
	movq	%r12, %rdx
	movq	%rax, %rsi
	movq	%rbx, %rdi
	call	__ZNSt11_Tuple_implILm0EJNSt7__cxx1112basic_stringIcSt11char_traitsIcESaIcEEEidEEC2IRA5_KcJidEvEEOT_DpOT0_
	nop
	addq	$40, %rsp
	popq	%rbx
	popq	%r12
	popq	%r13
	popq	%rbp
LCFI264:
	ret
LFE5068:
	.align 1
	.globl __ZNSt11_Tuple_implILm0EJNSt7__cxx1112basic_stringIcSt11char_traitsIcESaIcEEEidEEC2IRA5_KcJidEvEEOT_DpOT0_
	.weak_definition __ZNSt11_Tuple_implILm0EJNSt7__cxx1112basic_stringIcSt11char_traitsIcESaIcEEEidEEC2IRA5_KcJidEvEEOT_DpOT0_
__ZNSt11_Tuple_implILm0EJNSt7__cxx1112basic_stringIcSt11char_traitsIcESaIcEEEidEEC2IRA5_KcJidEvEEOT_DpOT0_:
LFB5070:
	pushq	%rbp
LCFI265:
	movq	%rsp, %rbp
LCFI266:
	pushq	%r12
	pushq	%rbx
	subq	$32, %rsp
LCFI267:
	movq	%rdi, -24(%rbp)
	movq	%rsi, -32(%rbp)
	movq	%rdx, -40(%rbp)
	movq	%rcx, -48(%rbp)
	movq	-24(%rbp), %rbx
	movq	-48(%rbp), %rax
	movq	%rax, %rdi
	call	__ZSt7forwardIdEOT_RNSt16remove_referenceIS0_E4typeE
	movq	%rax, %r12
	movq	-40(%rbp), %rax
	movq	%rax, %rdi
	call	__ZSt7forwardIiEOT_RNSt16remove_referenceIS0_E4typeE
	movq	%r12, %rdx
	movq	%rax, %rsi
	movq	%rbx, %rdi
	call	__ZNSt11_Tuple_implILm1EJidEEC2IiJdEvEEOT_DpOT0_
	movq	-24(%rbp), %rax
	leaq	16(%rax), %rbx
	movq	-32(%rbp), %rax
	movq	%rax, %rdi
	call	__ZSt7forwardIRA5_KcEOT_RNSt16remove_referenceIS3_E4typeE
	movq	%rax, %rsi
	movq	%rbx, %rdi
	call	__ZNSt10_Head_baseILm0ENSt7__cxx1112basic_stringIcSt11char_traitsIcESaIcEEELb0EEC2IRA5_KcEEOT_
	nop
	addq	$32, %rsp
	popq	%rbx
	popq	%r12
	popq	%rbp
LCFI268:
	ret
LFE5070:
	.globl __ZSt7forwardIRA5_KcEOT_RNSt16remove_referenceIS3_E4typeE
	.weak_definition __ZSt7forwardIRA5_KcEOT_RNSt16remove_referenceIS3_E4typeE
__ZSt7forwardIRA5_KcEOT_RNSt16remove_referenceIS3_E4typeE:
LFB5072:
	pushq	%rbp
LCFI269:
	movq	%rsp, %rbp
LCFI270:
	movq	%rdi, -8(%rbp)
	movq	-8(%rbp), %rax
	popq	%rbp
LCFI271:
	ret
LFE5072:
	.globl __ZSt7forwardIiEOT_RNSt16remove_referenceIS0_E4typeE
	.weak_definition __ZSt7forwardIiEOT_RNSt16remove_referenceIS0_E4typeE
__ZSt7forwardIiEOT_RNSt16remove_referenceIS0_E4typeE:
LFB5073:
	pushq	%rbp
LCFI272:
	movq	%rsp, %rbp
LCFI273:
	movq	%rdi, -8(%rbp)
	movq	-8(%rbp), %rax
	popq	%rbp
LCFI274:
	ret
LFE5073:
	.globl __ZSt7forwardIdEOT_RNSt16remove_referenceIS0_E4typeE
	.weak_definition __ZSt7forwardIdEOT_RNSt16remove_referenceIS0_E4typeE
__ZSt7forwardIdEOT_RNSt16remove_referenceIS0_E4typeE:
LFB5074:
	pushq	%rbp
LCFI275:
	movq	%rsp, %rbp
LCFI276:
	movq	%rdi, -8(%rbp)
	movq	-8(%rbp), %rax
	popq	%rbp
LCFI277:
	ret
LFE5074:
	.align 1
	.globl __ZNSt11_Tuple_implILm1EJidEEC2IiJdEvEEOT_DpOT0_
	.weak_definition __ZNSt11_Tuple_implILm1EJidEEC2IiJdEvEEOT_DpOT0_
__ZNSt11_Tuple_implILm1EJidEEC2IiJdEvEEOT_DpOT0_:
LFB5076:
	pushq	%rbp
LCFI278:
	movq	%rsp, %rbp
LCFI279:
	pushq	%rbx
	subq	$40, %rsp
LCFI280:
	movq	%rdi, -24(%rbp)
	movq	%rsi, -32(%rbp)
	movq	%rdx, -40(%rbp)
	movq	-24(%rbp), %rbx
	movq	-40(%rbp), %rax
	movq	%rax, %rdi
	call	__ZSt7forwardIdEOT_RNSt16remove_referenceIS0_E4typeE
	movq	%rax, %rsi
	movq	%rbx, %rdi
	call	__ZNSt11_Tuple_implILm2EJdEEC2IdEEOT_
	movq	-24(%rbp), %rax
	leaq	8(%rax), %rbx
	movq	-32(%rbp), %rax
	movq	%rax, %rdi
	call	__ZSt7forwardIiEOT_RNSt16remove_referenceIS0_E4typeE
	movq	%rax, %rsi
	movq	%rbx, %rdi
	call	__ZNSt10_Head_baseILm1EiLb0EEC2IiEEOT_
	nop
	addq	$40, %rsp
	popq	%rbx
	popq	%rbp
LCFI281:
	ret
LFE5076:
	.align 1
	.globl __ZNSt11_Tuple_implILm2EJdEEC2IdEEOT_
	.weak_definition __ZNSt11_Tuple_implILm2EJdEEC2IdEEOT_
__ZNSt11_Tuple_implILm2EJdEEC2IdEEOT_:
LFB5079:
	pushq	%rbp
LCFI282:
	movq	%rsp, %rbp
LCFI283:
	pushq	%rbx
	subq	$24, %rsp
LCFI284:
	movq	%rdi, -24(%rbp)
	movq	%rsi, -32(%rbp)
	movq	-24(%rbp), %rbx
	movq	-32(%rbp), %rax
	movq	%rax, %rdi
	call	__ZSt7forwardIdEOT_RNSt16remove_referenceIS0_E4typeE
	movq	%rax, %rsi
	movq	%rbx, %rdi
	call	__ZNSt10_Head_baseILm2EdLb0EEC2IdEEOT_
	nop
	addq	$24, %rsp
	popq	%rbx
	popq	%rbp
LCFI285:
	ret
LFE5079:
	.align 1
	.globl __ZNSt10_Head_baseILm2EdLb0EEC2IdEEOT_
	.weak_definition __ZNSt10_Head_baseILm2EdLb0EEC2IdEEOT_
__ZNSt10_Head_baseILm2EdLb0EEC2IdEEOT_:
LFB5082:
	pushq	%rbp
LCFI286:
	movq	%rsp, %rbp
LCFI287:
	subq	$16, %rsp
	movq	%rdi, -8(%rbp)
	movq	%rsi, -16(%rbp)
	movq	-16(%rbp), %rax
	movq	%rax, %rdi
	call	__ZSt7forwardIdEOT_RNSt16remove_referenceIS0_E4typeE
	movsd	(%rax), %xmm0
	movq	-8(%rbp), %rax
	movsd	%xmm0, (%rax)
	nop
	leave
LCFI288:
	ret
LFE5082:
	.align 1
	.globl __ZNSt10_Head_baseILm1EiLb0EEC2IiEEOT_
	.weak_definition __ZNSt10_Head_baseILm1EiLb0EEC2IiEEOT_
__ZNSt10_Head_baseILm1EiLb0EEC2IiEEOT_:
LFB5085:
	pushq	%rbp
LCFI289:
	movq	%rsp, %rbp
LCFI290:
	subq	$16, %rsp
	movq	%rdi, -8(%rbp)
	movq	%rsi, -16(%rbp)
	movq	-16(%rbp), %rax
	movq	%rax, %rdi
	call	__ZSt7forwardIiEOT_RNSt16remove_referenceIS0_E4typeE
	movl	(%rax), %edx
	movq	-8(%rbp), %rax
	movl	%edx, (%rax)
	nop
	leave
LCFI291:
	ret
LFE5085:
	.align 1
	.globl __ZNSt10_Head_baseILm0ENSt7__cxx1112basic_stringIcSt11char_traitsIcESaIcEEELb0EEC2IRA5_KcEEOT_
	.weak_definition __ZNSt10_Head_baseILm0ENSt7__cxx1112basic_stringIcSt11char_traitsIcESaIcEEELb0EEC2IRA5_KcEEOT_
__ZNSt10_Head_baseILm0ENSt7__cxx1112basic_stringIcSt11char_traitsIcESaIcEEELb0EEC2IRA5_KcEEOT_:
LFB5088:
	pushq	%rbp
LCFI292:
	movq	%rsp, %rbp
LCFI293:
	pushq	%rbx
	subq	$40, %rsp
LCFI294:
	movq	%rdi, -40(%rbp)
	movq	%rsi, -48(%rbp)
	movq	-40(%rbp), %rbx
	leaq	-17(%rbp), %rax
	movq	%rax, %rdi
	call	__ZNSaIcEC1Ev
	movq	-48(%rbp), %rax
	movq	%rax, %rdi
	call	__ZSt7forwardIRA5_KcEOT_RNSt16remove_referenceIS3_E4typeE
	movq	%rax, %rcx
	leaq	-17(%rbp), %rax
	movq	%rax, %rdx
	movq	%rcx, %rsi
	movq	%rbx, %rdi
LEHB2:
	call	__ZNSt7__cxx1112basic_stringIcSt11char_traitsIcESaIcEEC1EPKcRKS3_
LEHE2:
	leaq	-17(%rbp), %rax
	movq	%rax, %rdi
	call	__ZNSaIcED1Ev
	jmp	L200
L199:
	movq	%rax, %rbx
	leaq	-17(%rbp), %rax
	movq	%rax, %rdi
	call	__ZNSaIcED1Ev
	movq	%rbx, %rax
	movq	%rax, %rdi
LEHB3:
	call	__Unwind_Resume
LEHE3:
L200:
	addq	$40, %rsp
	popq	%rbx
	popq	%rbp
LCFI295:
	ret
LFE5088:
	.section __DATA,__gcc_except_tab
GCC_except_table2:
LLSDA5088:
	.byte	0xff
	.byte	0x3
	.byte	0x1a
	.set L$set$5,LEHB2-LFB5088
	.long L$set$5
	.set L$set$6,LEHE2-LEHB2
	.long L$set$6
	.set L$set$7,L199-LFB5088
	.long L$set$7
	.byte	0
	.set L$set$8,LEHB3-LFB5088
	.long L$set$8
	.set L$set$9,LEHE3-LEHB3
	.long L$set$9
	.long	0
	.byte	0
	.section __TEXT,__textcoal_nt,coalesced,pure_instructions
	.align 1
	.globl __ZNSt5tupleIJNSt7__cxx1112basic_stringIcSt11char_traitsIcESaIcEEEidEED1Ev
	.weak_definition __ZNSt5tupleIJNSt7__cxx1112basic_stringIcSt11char_traitsIcESaIcEEEidEED1Ev
__ZNSt5tupleIJNSt7__cxx1112basic_stringIcSt11char_traitsIcESaIcEEEidEED1Ev:
LFB5092:
	pushq	%rbp
LCFI296:
	movq	%rsp, %rbp
LCFI297:
	subq	$16, %rsp
	movq	%rdi, -8(%rbp)
	movq	-8(%rbp), %rax
	movq	%rax, %rdi
	call	__ZNSt11_Tuple_implILm0EJNSt7__cxx1112basic_stringIcSt11char_traitsIcESaIcEEEidEED2Ev
	nop
	leave
LCFI298:
	ret
LFE5092:
	.globl __ZSt3getILm2EJNSt7__cxx1112basic_stringIcSt11char_traitsIcESaIcEEEidEERNSt13tuple_elementIXT_ESt5tupleIJDpT0_EEE4typeERSA_
	.weak_definition __ZSt3getILm2EJNSt7__cxx1112basic_stringIcSt11char_traitsIcESaIcEEEidEERNSt13tuple_elementIXT_ESt5tupleIJDpT0_EEE4typeERSA_
__ZSt3getILm2EJNSt7__cxx1112basic_stringIcSt11char_traitsIcESaIcEEEidEERNSt13tuple_elementIXT_ESt5tupleIJDpT0_EEE4typeERSA_:
LFB5093:
	pushq	%rbp
LCFI299:
	movq	%rsp, %rbp
LCFI300:
	subq	$16, %rsp
	movq	%rdi, -8(%rbp)
	movq	-8(%rbp), %rax
	movq	%rax, %rdi
	call	__ZSt12__get_helperILm2EdJEERT0_RSt11_Tuple_implIXT_EJS0_DpT1_EE
	leave
LCFI301:
	ret
LFE5093:
	.globl __ZSt12__get_helperILm2EdJEERT0_RSt11_Tuple_implIXT_EJS0_DpT1_EE
	.weak_definition __ZSt12__get_helperILm2EdJEERT0_RSt11_Tuple_implIXT_EJS0_DpT1_EE
__ZSt12__get_helperILm2EdJEERT0_RSt11_Tuple_implIXT_EJS0_DpT1_EE:
LFB5094:
	pushq	%rbp
LCFI302:
	movq	%rsp, %rbp
LCFI303:
	subq	$16, %rsp
	movq	%rdi, -8(%rbp)
	movq	-8(%rbp), %rax
	movq	%rax, %rdi
	call	__ZNSt11_Tuple_implILm2EJdEE7_M_headERS0_
	leave
LCFI304:
	ret
LFE5094:
	.globl __ZNSt11_Tuple_implILm2EJdEE7_M_headERS0_
	.weak_definition __ZNSt11_Tuple_implILm2EJdEE7_M_headERS0_
__ZNSt11_Tuple_implILm2EJdEE7_M_headERS0_:
LFB5095:
	pushq	%rbp
LCFI305:
	movq	%rsp, %rbp
LCFI306:
	subq	$16, %rsp
	movq	%rdi, -8(%rbp)
	movq	-8(%rbp), %rax
	movq	%rax, %rdi
	call	__ZNSt10_Head_baseILm2EdLb0EE7_M_headERS0_
	leave
LCFI307:
	ret
LFE5095:
	.globl __ZNSt10_Head_baseILm2EdLb0EE7_M_headERS0_
	.weak_definition __ZNSt10_Head_baseILm2EdLb0EE7_M_headERS0_
__ZNSt10_Head_baseILm2EdLb0EE7_M_headERS0_:
LFB5096:
	pushq	%rbp
LCFI308:
	movq	%rsp, %rbp
LCFI309:
	movq	%rdi, -8(%rbp)
	movq	-8(%rbp), %rax
	popq	%rbp
LCFI310:
	ret
LFE5096:
	.zerofill __DATA,__bss5,__ZZ4mainE14filename_regex,32,5
	.zerofill __DATA,__bss3,__ZGVZ4mainE14filename_regex,8,3
	.section __TEXT,__textcoal_nt,coalesced,pure_instructions
	.align 1
	.globl __ZNSt12_Vector_baseISt4pairIiPcESaIS2_EE12_Vector_implD1Ev
	.weak_definition __ZNSt12_Vector_baseISt4pairIiPcESaIS2_EE12_Vector_implD1Ev
__ZNSt12_Vector_baseISt4pairIiPcESaIS2_EE12_Vector_implD1Ev:
LFB5115:
	pushq	%rbp
LCFI311:
	movq	%rsp, %rbp
LCFI312:
	subq	$16, %rsp
	movq	%rdi, -8(%rbp)
	movq	-8(%rbp), %rax
	movq	%rax, %rdi
	call	__ZNSaISt4pairIiPcEED2Ev
	nop
	leave
LCFI313:
	ret
LFE5115:
	.align 1
	.globl __ZNSt12_Vector_baseISt4pairIiPcESaIS2_EEC2Ev
	.weak_definition __ZNSt12_Vector_baseISt4pairIiPcESaIS2_EEC2Ev
__ZNSt12_Vector_baseISt4pairIiPcESaIS2_EEC2Ev:
LFB5116:
	pushq	%rbp
LCFI314:
	movq	%rsp, %rbp
LCFI315:
	subq	$16, %rsp
	movq	%rdi, -8(%rbp)
	movq	-8(%rbp), %rax
	movq	%rax, %rdi
	call	__ZNSt12_Vector_baseISt4pairIiPcESaIS2_EE12_Vector_implC1Ev
	nop
	leave
LCFI316:
	ret
LFE5116:
	.align 1
	.globl __ZNSt6vectorISt4pairIiPcESaIS2_EEC1Ev
	.weak_definition __ZNSt6vectorISt4pairIiPcESaIS2_EEC1Ev
__ZNSt6vectorISt4pairIiPcESaIS2_EEC1Ev:
LFB5119:
	pushq	%rbp
LCFI317:
	movq	%rsp, %rbp
LCFI318:
	subq	$16, %rsp
	movq	%rdi, -8(%rbp)
	movq	-8(%rbp), %rax
	movq	%rax, %rdi
	call	__ZNSt12_Vector_baseISt4pairIiPcESaIS2_EEC2Ev
	nop
	leave
LCFI319:
	ret
LFE5119:
	.align 1
	.globl __ZNSt12_Vector_baseINSt7__cxx1112basic_stringIcSt11char_traitsIcESaIcEEESaIS5_EE12_Vector_implD1Ev
	.weak_definition __ZNSt12_Vector_baseINSt7__cxx1112basic_stringIcSt11char_traitsIcESaIcEEESaIS5_EE12_Vector_implD1Ev
__ZNSt12_Vector_baseINSt7__cxx1112basic_stringIcSt11char_traitsIcESaIcEEESaIS5_EE12_Vector_implD1Ev:
LFB5124:
	pushq	%rbp
LCFI320:
	movq	%rsp, %rbp
LCFI321:
	subq	$16, %rsp
	movq	%rdi, -8(%rbp)
	movq	-8(%rbp), %rax
	movq	%rax, %rdi
	call	__ZNSaINSt7__cxx1112basic_stringIcSt11char_traitsIcESaIcEEEED2Ev
	nop
	leave
LCFI322:
	ret
LFE5124:
	.align 1
	.globl __ZNSt12_Vector_baseINSt7__cxx1112basic_stringIcSt11char_traitsIcESaIcEEESaIS5_EEC2Ev
	.weak_definition __ZNSt12_Vector_baseINSt7__cxx1112basic_stringIcSt11char_traitsIcESaIcEEESaIS5_EEC2Ev
__ZNSt12_Vector_baseINSt7__cxx1112basic_stringIcSt11char_traitsIcESaIcEEESaIS5_EEC2Ev:
LFB5125:
	pushq	%rbp
LCFI323:
	movq	%rsp, %rbp
LCFI324:
	subq	$16, %rsp
	movq	%rdi, -8(%rbp)
	movq	-8(%rbp), %rax
	movq	%rax, %rdi
	call	__ZNSt12_Vector_baseINSt7__cxx1112basic_stringIcSt11char_traitsIcESaIcEEESaIS5_EE12_Vector_implC1Ev
	nop
	leave
LCFI325:
	ret
LFE5125:
	.align 1
	.globl __ZNSt6vectorINSt7__cxx1112basic_stringIcSt11char_traitsIcESaIcEEESaIS5_EEC1Ev
	.weak_definition __ZNSt6vectorINSt7__cxx1112basic_stringIcSt11char_traitsIcESaIcEEESaIS5_EEC1Ev
__ZNSt6vectorINSt7__cxx1112basic_stringIcSt11char_traitsIcESaIcEEESaIS5_EEC1Ev:
LFB5128:
	pushq	%rbp
LCFI326:
	movq	%rsp, %rbp
LCFI327:
	subq	$16, %rsp
	movq	%rdi, -8(%rbp)
	movq	-8(%rbp), %rax
	movq	%rax, %rdi
	call	__ZNSt12_Vector_baseINSt7__cxx1112basic_stringIcSt11char_traitsIcESaIcEEESaIS5_EEC2Ev
	nop
	leave
LCFI328:
	ret
LFE5128:
	.align 1
	.globl __ZNSt8_Rb_treeINSt7__cxx1112basic_stringIcSt11char_traitsIcESaIcEEESt4pairIKS5_S6_IibEESt10_Select1stIS9_ESt4lessIS5_ESaIS9_EE13_Rb_tree_implISD_Lb1EED1Ev
	.weak_definition __ZNSt8_Rb_treeINSt7__cxx1112basic_stringIcSt11char_traitsIcESaIcEEESt4pairIKS5_S6_IibEESt10_Select1stIS9_ESt4lessIS5_ESaIS9_EE13_Rb_tree_implISD_Lb1EED1Ev
__ZNSt8_Rb_treeINSt7__cxx1112basic_stringIcSt11char_traitsIcESaIcEEESt4pairIKS5_S6_IibEESt10_Select1stIS9_ESt4lessIS5_ESaIS9_EE13_Rb_tree_implISD_Lb1EED1Ev:
LFB5133:
	pushq	%rbp
LCFI329:
	movq	%rsp, %rbp
LCFI330:
	subq	$16, %rsp
	movq	%rdi, -8(%rbp)
	movq	-8(%rbp), %rax
	movq	%rax, %rdi
	call	__ZNSaISt13_Rb_tree_nodeISt4pairIKNSt7__cxx1112basic_stringIcSt11char_traitsIcESaIcEEES0_IibEEEED2Ev
	nop
	leave
LCFI331:
	ret
LFE5133:
	.align 1
	.globl __ZNSt8_Rb_treeINSt7__cxx1112basic_stringIcSt11char_traitsIcESaIcEEESt4pairIKS5_S6_IibEESt10_Select1stIS9_ESt4lessIS5_ESaIS9_EEC1Ev
	.weak_definition __ZNSt8_Rb_treeINSt7__cxx1112basic_stringIcSt11char_traitsIcESaIcEEESt4pairIKS5_S6_IibEESt10_Select1stIS9_ESt4lessIS5_ESaIS9_EEC1Ev
__ZNSt8_Rb_treeINSt7__cxx1112basic_stringIcSt11char_traitsIcESaIcEEESt4pairIKS5_S6_IibEESt10_Select1stIS9_ESt4lessIS5_ESaIS9_EEC1Ev:
LFB5135:
	pushq	%rbp
LCFI332:
	movq	%rsp, %rbp
LCFI333:
	subq	$16, %rsp
	movq	%rdi, -8(%rbp)
	movq	-8(%rbp), %rax
	movq	%rax, %rdi
	call	__ZNSt8_Rb_treeINSt7__cxx1112basic_stringIcSt11char_traitsIcESaIcEEESt4pairIKS5_S6_IibEESt10_Select1stIS9_ESt4lessIS5_ESaIS9_EE13_Rb_tree_implISD_Lb1EEC1Ev
	nop
	leave
LCFI334:
	ret
LFE5135:
	.align 1
	.globl __ZNSt3mapINSt7__cxx1112basic_stringIcSt11char_traitsIcESaIcEEESt4pairIibESt4lessIS5_ESaIS6_IKS5_S7_EEEC1Ev
	.weak_definition __ZNSt3mapINSt7__cxx1112basic_stringIcSt11char_traitsIcESaIcEEESt4pairIibESt4lessIS5_ESaIS6_IKS5_S7_EEEC1Ev
__ZNSt3mapINSt7__cxx1112basic_stringIcSt11char_traitsIcESaIcEEESt4pairIibESt4lessIS5_ESaIS6_IKS5_S7_EEEC1Ev:
LFB5137:
	pushq	%rbp
LCFI335:
	movq	%rsp, %rbp
LCFI336:
	subq	$16, %rsp
	movq	%rdi, -8(%rbp)
	movq	-8(%rbp), %rax
	movq	%rax, %rdi
	call	__ZNSt8_Rb_treeINSt7__cxx1112basic_stringIcSt11char_traitsIcESaIcEEESt4pairIKS5_S6_IibEESt10_Select1stIS9_ESt4lessIS5_ESaIS9_EEC1Ev
	nop
	leave
LCFI337:
	ret
LFE5137:
	.align 1
	.globl __ZNSt3mapINSt7__cxx1112basic_stringIcSt11char_traitsIcESaIcEEESt4pairIibESt4lessIS5_ESaIS6_IKS5_S7_EEED1Ev
	.weak_definition __ZNSt3mapINSt7__cxx1112basic_stringIcSt11char_traitsIcESaIcEEESt4pairIibESt4lessIS5_ESaIS6_IKS5_S7_EEED1Ev
__ZNSt3mapINSt7__cxx1112basic_stringIcSt11char_traitsIcESaIcEEESt4pairIibESt4lessIS5_ESaIS6_IKS5_S7_EEED1Ev:
LFB5140:
	pushq	%rbp
LCFI338:
	movq	%rsp, %rbp
LCFI339:
	subq	$16, %rsp
	movq	%rdi, -8(%rbp)
	movq	-8(%rbp), %rax
	movq	%rax, %rdi
	call	__ZNSt8_Rb_treeINSt7__cxx1112basic_stringIcSt11char_traitsIcESaIcEEESt4pairIKS5_S6_IibEESt10_Select1stIS9_ESt4lessIS5_ESaIS9_EED1Ev
	nop
	leave
LCFI340:
	ret
LFE5140:
	.align 1
	.globl __ZNSt4pairINSt7__cxx1112basic_stringIcSt11char_traitsIcESaIcEEES_IibEED1Ev
	.weak_definition __ZNSt4pairINSt7__cxx1112basic_stringIcSt11char_traitsIcESaIcEEES_IibEED1Ev
__ZNSt4pairINSt7__cxx1112basic_stringIcSt11char_traitsIcESaIcEEES_IibEED1Ev:
LFB5147:
	pushq	%rbp
LCFI341:
	movq	%rsp, %rbp
LCFI342:
	subq	$16, %rsp
	movq	%rdi, -8(%rbp)
	movq	-8(%rbp), %rax
	movq	%rax, %rdi
	call	__ZNSt7__cxx1112basic_stringIcSt11char_traitsIcESaIcEED1Ev
	nop
	leave
LCFI343:
	ret
LFE5147:
	.align 1
	.globl __ZNSt3setIiSt4lessIiESaIiEED1Ev
	.weak_definition __ZNSt3setIiSt4lessIiESaIiEED1Ev
__ZNSt3setIiSt4lessIiESaIiEED1Ev:
LFB5154:
	pushq	%rbp
LCFI344:
	movq	%rsp, %rbp
LCFI345:
	subq	$16, %rsp
	movq	%rdi, -8(%rbp)
	movq	-8(%rbp), %rax
	movq	%rax, %rdi
	call	__ZNSt8_Rb_treeIiiSt9_IdentityIiESt4lessIiESaIiEED1Ev
	nop
	leave
LCFI346:
	ret
LFE5154:
	.align 1
	.globl __ZNSt7__cxx114listIiSaIiEED1Ev
	.weak_definition __ZNSt7__cxx114listIiSaIiEED1Ev
__ZNSt7__cxx114listIiSaIiEED1Ev:
LFB5157:
	pushq	%rbp
LCFI347:
	movq	%rsp, %rbp
LCFI348:
	subq	$16, %rsp
	movq	%rdi, -8(%rbp)
	movq	-8(%rbp), %rax
	movq	%rax, %rdi
	call	__ZNSt7__cxx1110_List_baseIiSaIiEED2Ev
	nop
	leave
LCFI349:
	ret
LFE5157:
	.cstring
lC6:
	.ascii "String literal\0"
lC9:
	.ascii "ASCII string\0"
lC11:
	.ascii "test\0"
lC12:
	.ascii "^_?([a-z0-9_.]+-)+[a-z0-9]+$\0"
lC13:
	.ascii "Test if this string matches\0"
lC14:
	.ascii "UTF-8 string \342\224\200\0"
	.const
	.align 1
lC15:
	.ascii "U\0T\0F\0-\0"
	.ascii "8\0 \0s\0t\0r\0i\0n\0g\0 \0\0%\0\0"
	.align 3
lC16:
	.ascii "U\0\0\0T\0\0\0F\0\0\0-\0\0\0"
	.ascii "3\0\0\0"
	.ascii "2\0\0\0 \0\0\0s\0\0\0t\0\0\0r\0\0\0i\0\0\0n\0\0\0g\0\0\0 \0\0\0\0%\0\0\0\0\0\0"
	.cstring
lC17:
	.ascii "ASCII text\0"
lC18:
	.ascii " string\0"
lC19:
	.ascii "foo\0"
lC20:
	.ascii "bar\0"
lC21:
	.ascii "vector size is not 1\0"
lC22:
	.ascii "key\0"
lC23:
	.ascii "Caught exception: \0"
lC24:
	.ascii "test.txt\0"
lC25:
	.ascii "Test ASCII text\12\0"
lC26:
	.ascii "N= \0"
	.text
	.globl _main
_main:
LFB5031:
	pushq	%rbp
LCFI350:
	movq	%rsp, %rbp
LCFI351:
	pushq	%r13
	pushq	%r12
	pushq	%rbx
	subq	$1880, %rsp
LCFI352:
	leaq	-1648(%rbp), %rax
	movq	%rax, %rdi
LEHB4:
	call	__ZNSt5dequeIiSaIiEEC1Ev
LEHE4:
	movl	$43, -512(%rbp)
	leaq	-512(%rbp), %rdx
	leaq	-1648(%rbp), %rax
	movq	%rdx, %rsi
	movq	%rax, %rdi
LEHB5:
	call	__ZNSt5dequeIiSaIiEE10push_frontEOi
	movl	$484, -508(%rbp)
	leaq	-508(%rbp), %rdx
	leaq	-1648(%rbp), %rax
	movq	%rdx, %rsi
	movq	%rax, %rdi
	call	__ZNSt5dequeIiSaIiEE10push_frontEOi
	movl	$3, -504(%rbp)
	leaq	-504(%rbp), %rdx
	leaq	-1648(%rbp), %rax
	movq	%rdx, %rsi
	movq	%rax, %rdi
	call	__ZNSt5dequeIiSaIiEE10push_frontEOi
	movl	$844, -500(%rbp)
	leaq	-500(%rbp), %rdx
	leaq	-1648(%rbp), %rax
	movq	%rdx, %rsi
	movq	%rax, %rdi
	call	__ZNSt5dequeIiSaIiEE10push_frontEOi
LEHE5:
	movl	$0, -36(%rbp)
	leaq	-1728(%rbp), %rax
	leaq	-1648(%rbp), %rdx
	movq	%rdx, %rsi
	movq	%rax, %rdi
	call	__ZNSt5dequeIiSaIiEE5beginEv
L225:
	leaq	-496(%rbp), %rax
	leaq	-1648(%rbp), %rdx
	movq	%rdx, %rsi
	movq	%rax, %rdi
	call	__ZNSt5dequeIiSaIiEE3endEv
	leaq	-496(%rbp), %rdx
	leaq	-1728(%rbp), %rax
	movq	%rdx, %rsi
	movq	%rax, %rdi
	call	__ZStneIiRiPiEbRKSt15_Deque_iteratorIT_T0_T1_ES8_
	testb	%al, %al
	je	L224
	leaq	-1728(%rbp), %rax
	movq	%rax, %rdi
	call	__ZNKSt15_Deque_iteratorIiRiPiEdeEv
	movl	(%rax), %eax
	addl	%eax, -36(%rbp)
	leaq	-1728(%rbp), %rax
	movq	%rax, %rdi
	call	__ZNSt15_Deque_iteratorIiRiPiEppEv
	jmp	L225
L224:
	movl	$6538, -52(%rbp)
	movsd	lC5(%rip), %xmm0
	movsd	%xmm0, -64(%rbp)
	leaq	lC6(%rip), %rax
	movq	%rax, -72(%rbp)
	movsd	lC7(%rip), %xmm0
	movsd	%xmm0, -80(%rbp)
	leaq	-1648(%rbp), %rax
	movq	%rax, %rdi
	call	__ZNSt5dequeIiSaIiEED1Ev
	movq	$0, -1648(%rbp)
	movq	$0, -1640(%rbp)
	movq	$0, -1632(%rbp)
	movq	$0, -1624(%rbp)
	movq	$0, -1616(%rbp)
	movl	$4323, -528(%rbp)
	movsd	lC8(%rip), %xmm0
	movsd	%xmm0, -520(%rbp)
	movl	$9, -1648(%rbp)
	movl	$7, -1644(%rbp)
	movl	$13, -1640(%rbp)
	movl	$15, -1636(%rbp)
	movl	$4, -1632(%rbp)
	movl	$18, -1628(%rbp)
	movl	$12, -1624(%rbp)
	movl	$10, -1620(%rbp)
	movl	$5, -1616(%rbp)
	movl	$3, -1612(%rbp)
	movl	$14, -1608(%rbp)
	movl	$19, -1604(%rbp)
	movl	$17, -1600(%rbp)
	movl	$8, -1596(%rbp)
	movl	$6, -1592(%rbp)
	movl	$20, -1588(%rbp)
	movl	$16, -1584(%rbp)
	movl	$2, -1580(%rbp)
	movl	$11, -1576(%rbp)
	movl	$1, -1572(%rbp)
	leaq	-1648(%rbp), %rax
	movq	%rax, -88(%rbp)
	movq	-88(%rbp), %rax
	movq	%rax, %rdi
	call	__ZNSt5arrayIiLm20EE5beginEv
	movq	%rax, -48(%rbp)
	movq	-88(%rbp), %rax
	movq	%rax, %rdi
	call	__ZNSt5arrayIiLm20EE3endEv
	movq	%rax, -96(%rbp)
L227:
	movq	-48(%rbp), %rax
	cmpq	-96(%rbp), %rax
	je	L226
	movq	-48(%rbp), %rax
	movq	%rax, -104(%rbp)
	movq	-104(%rbp), %rax
	movl	(%rax), %eax
	leal	23(%rax), %edx
	movq	-104(%rbp), %rax
	movl	%edx, (%rax)
	addq	$4, -48(%rbp)
	jmp	L227
L226:
	leaq	-1648(%rbp), %rax
	movq	%rax, %rdi
	call	__ZNSt5arrayIiLm20EE3endEv
	movq	%rax, %rbx
	leaq	-1648(%rbp), %rax
	movq	%rax, %rdi
	call	__ZNSt5arrayIiLm20EE5beginEv
	movq	%rbx, %rsi
	movq	%rax, %rdi
LEHB6:
	call	__ZSt8for_eachIPiZ4mainEUliE_ET0_T_S3_S2_
LEHE6:
	leaq	-449(%rbp), %rax
	movq	%rax, %rdi
	call	__ZNSaIcEC1Ev
	leaq	-449(%rbp), %rbx
	movl	$32, %edi
LEHB7:
	call	__Znwm
LEHE7:
	movq	%rax, %rdi
	movq	%rbx, %rdx
	leaq	lC9(%rip), %rsi
	movq	%rdi, -1896(%rbp)
LEHB8:
	call	__ZNSt7__cxx1112basic_stringIcSt11char_traitsIcESaIcEEC1EPKcRKS3_
LEHE8:
	leaq	-544(%rbp), %rax
	movq	-1896(%rbp), %rsi
	movq	%rax, %rdi
LEHB9:
	call	__ZNSt10shared_ptrINSt7__cxx1112basic_stringIcSt11char_traitsIcESaIcEEEEC1IS5_vEEPT_
LEHE9:
	leaq	-449(%rbp), %rax
	movq	%rax, %rdi
	call	__ZNSaIcED1Ev
	leaq	-544(%rbp), %rdx
	leaq	-560(%rbp), %rax
	movq	%rdx, %rsi
	movq	%rax, %rdi
	call	__ZNSt8weak_ptrINSt7__cxx1112basic_stringIcSt11char_traitsIcESaIcEEEEC1IS5_vEERKSt10shared_ptrIT_E
	leaq	-560(%rbp), %rdx
	leaq	-576(%rbp), %rax
	movq	%rdx, %rsi
	movq	%rax, %rdi
LEHB10:
	call	__ZNSt10shared_ptrINSt7__cxx1112basic_stringIcSt11char_traitsIcESaIcEEEEC1IS5_vEERKSt8weak_ptrIT_E
LEHE10:
	leaq	-576(%rbp), %rax
	movq	%rax, %rdi
	call	__ZNSt10shared_ptrINSt7__cxx1112basic_stringIcSt11char_traitsIcESaIcEEEED1Ev
	leaq	-560(%rbp), %rax
	movq	%rax, %rdi
	call	__ZNSt8weak_ptrINSt7__cxx1112basic_stringIcSt11char_traitsIcESaIcEEEED1Ev
	leaq	-544(%rbp), %rax
	movq	%rax, %rdi
	call	__ZNSt10shared_ptrINSt7__cxx1112basic_stringIcSt11char_traitsIcESaIcEEEED1Ev
	movsd	lC10(%rip), %xmm0
	movsd	%xmm0, -448(%rbp)
	movl	$54, -436(%rbp)
	leaq	-448(%rbp), %rcx
	leaq	-436(%rbp), %rdx
	leaq	-1648(%rbp), %rax
	leaq	lC11(%rip), %rsi
	movq	%rax, %rdi
LEHB11:
	call	__ZNSt5tupleIJNSt7__cxx1112basic_stringIcSt11char_traitsIcESaIcEEEidEEC1IJRA5_KcidELb1EEEDpOT_
LEHE11:
	leaq	-1648(%rbp), %rax
	movq	%rax, %rdi
	call	__ZSt3getILm2EJNSt7__cxx1112basic_stringIcSt11char_traitsIcESaIcEEEidEERNSt13tuple_elementIXT_ESt5tupleIJDpT0_EEE4typeERSA_
	movsd	(%rax), %xmm0
	movsd	%xmm0, -584(%rbp)
	leaq	-1728(%rbp), %rax
	movq	%rax, %rdi
	call	__ZNSt7__cxx1112basic_stringIcSt11char_traitsIcESaIcEEC1Ev
	leaq	-432(%rbp), %rax
	leaq	-584(%rbp), %rcx
	leaq	-588(%rbp), %rdx
	leaq	-1728(%rbp), %rsi
	movq	%rax, %rdi
	call	__ZSt3tieIJNSt7__cxx1112basic_stringIcSt11char_traitsIcESaIcEEEidEESt5tupleIJDpRT_EES9_
	leaq	-1648(%rbp), %rdx
	leaq	-432(%rbp), %rax
	movq	%rdx, %rsi
	movq	%rax, %rdi
LEHB12:
	call	__ZNSt5tupleIJRNSt7__cxx1112basic_stringIcSt11char_traitsIcESaIcEEERiRdEEaSIJS5_idEEENSt9enable_ifIXcl12__assignableIDpRKT_EEERS9_E4typeERKS_IJDpSC_EE
LEHE12:
	leaq	-1728(%rbp), %rax
	movq	%rax, %rdi
	call	__ZNSt7__cxx1112basic_stringIcSt11char_traitsIcESaIcEED1Ev
	leaq	-1648(%rbp), %rax
	movq	%rax, %rdi
	call	__ZNSt5tupleIJNSt7__cxx1112basic_stringIcSt11char_traitsIcESaIcEEEidEED1Ev
	movzbl	__ZGVZ4mainE14filename_regex(%rip), %eax
	testb	%al, %al
	sete	%al
	testb	%al, %al
	je	L228
	leaq	__ZGVZ4mainE14filename_regex(%rip), %rdi
	call	___cxa_guard_acquire
	testl	%eax, %eax
	setne	%al
	testb	%al, %al
	je	L228
	movl	$0, %r12d
	movl	$16, %edx
	leaq	lC12(%rip), %rsi
	leaq	__ZZ4mainE14filename_regex(%rip), %rdi
LEHB13:
	call	__ZNSt7__cxx1111basic_regexIcNS_12regex_traitsIcEEEC1EPKcNSt15regex_constants18syntax_option_typeE
LEHE13:
	leaq	__ZGVZ4mainE14filename_regex(%rip), %rdi
	call	___cxa_guard_release
	leaq	___dso_handle(%rip), %rdx
	leaq	__ZZ4mainE14filename_regex(%rip), %rsi
	movq	__ZNSt7__cxx1111basic_regexIcNS_12regex_traitsIcEEED1Ev@GOTPCREL(%rip), %rax
	movq	%rax, %rdi
	call	___cxa_atexit
L228:
	leaq	-402(%rbp), %rax
	movq	%rax, %rdi
	call	__ZNSaIcEC1Ev
	leaq	-402(%rbp), %rdx
	leaq	-1648(%rbp), %rax
	leaq	lC13(%rip), %rsi
	movq	%rax, %rdi
LEHB14:
	call	__ZNSt7__cxx1112basic_stringIcSt11char_traitsIcESaIcEEC1EPKcRKS3_
LEHE14:
	leaq	-402(%rbp), %rax
	movq	%rax, %rdi
	call	__ZNSaIcED1Ev
	leaq	-1648(%rbp), %rax
	movl	$0, %edx
	leaq	__ZZ4mainE14filename_regex(%rip), %rsi
	movq	%rax, %rdi
LEHB15:
	call	__ZSt12regex_searchISt11char_traitsIcESaIcEcNSt7__cxx1112regex_traitsIcEEEbRKNS3_12basic_stringIT1_T_T0_EERKNS3_11basic_regexIS7_T2_EENSt15regex_constants15match_flag_typeE
LEHE15:
	movb	%al, -105(%rbp)
	leaq	-1648(%rbp), %rax
	movq	%rax, %rdi
	call	__ZNSt7__cxx1112basic_stringIcSt11char_traitsIcESaIcEED1Ev
	movl	$9, -1648(%rbp)
	movl	$7, -1644(%rbp)
	movl	$13, -1640(%rbp)
	movl	$15, -1636(%rbp)
	movl	$4, -1632(%rbp)
	movl	$18, -1628(%rbp)
	movl	$12, -1624(%rbp)
	movl	$10, -1620(%rbp)
	movl	$5, -1616(%rbp)
	movl	$3, -1612(%rbp)
	movl	$14, -1608(%rbp)
	movl	$19, -1604(%rbp)
	movl	$17, -1600(%rbp)
	movl	$8, -1596(%rbp)
	movl	$6, -1592(%rbp)
	movl	$20, -1588(%rbp)
	movl	$16, -1584(%rbp)
	movl	$2, -1580(%rbp)
	movl	$11, -1576(%rbp)
	movl	$1, -1572(%rbp)
	movq	$20, -120(%rbp)
	leaq	-608(%rbp), %rax
	movq	%rax, %rdi
	call	__ZN9cxx11test8delegateC1Ev
	leaq	-624(%rbp), %rax
	movl	$45, %esi
	movq	%rax, %rdi
	call	__ZN9cxx11test8delegateC1Ei
	leaq	-640(%rbp), %rax
	movl	$55464, %esi
	movq	%rax, %rdi
	call	__ZN9cxx11test10overriddenC1Ei
	movq	$0, -128(%rbp)
	leaq	-672(%rbp), %rax
	movq	%rax, %rdi
	call	__ZNSt6vectorISt4pairIiPcESaIS2_EEC1Ev
	leaq	-672(%rbp), %rax
	movq	%rax, %rdi
	call	__ZNSt6vectorISt4pairIiPcESaIS2_EED1Ev
	leaq	lC14(%rip), %rax
	movq	%rax, -136(%rbp)
	leaq	lC15(%rip), %rax
	movq	%rax, -144(%rbp)
	leaq	lC16(%rip), %rax
	movq	%rax, -152(%rbp)
	leaq	-401(%rbp), %rax
	movq	%rax, %rdi
	call	__ZNSaIcEC1Ev
	leaq	-401(%rbp), %rdx
	leaq	-1888(%rbp), %rax
	leaq	lC17(%rip), %rsi
	movq	%rax, %rdi
LEHB16:
	call	__ZNSt7__cxx1112basic_stringIcSt11char_traitsIcESaIcEEC1EPKcRKS3_
LEHE16:
	leaq	-401(%rbp), %rax
	movq	%rax, %rdi
	call	__ZNSaIcED1Ev
	leaq	-1888(%rbp), %rax
	leaq	lC18(%rip), %rsi
	movq	%rax, %rdi
LEHB17:
	call	__ZNSt7__cxx1112basic_stringIcSt11char_traitsIcESaIcEEpLEPKc
LEHE17:
	leaq	-704(%rbp), %rax
	movq	%rax, %rdi
	call	__ZNSt6vectorINSt7__cxx1112basic_stringIcSt11char_traitsIcESaIcEEESaIS5_EEC1Ev
	leaq	-1888(%rbp), %rdx
	leaq	-704(%rbp), %rax
	movq	%rdx, %rsi
	movq	%rax, %rdi
LEHB18:
	call	__ZNSt6vectorINSt7__cxx1112basic_stringIcSt11char_traitsIcESaIcEEESaIS5_EE9push_backERKS5_
LEHE18:
	leaq	-353(%rbp), %rax
	movq	%rax, %rdi
	call	__ZNSaIcEC1Ev
	leaq	-353(%rbp), %rdx
	leaq	-400(%rbp), %rax
	leaq	lC19(%rip), %rsi
	movq	%rax, %rdi
LEHB19:
	call	__ZNSt7__cxx1112basic_stringIcSt11char_traitsIcESaIcEEC1EPKcRKS3_
LEHE19:
	leaq	-400(%rbp), %rdx
	leaq	-704(%rbp), %rax
	movq	%rdx, %rsi
	movq	%rax, %rdi
LEHB20:
	call	__ZNSt6vectorINSt7__cxx1112basic_stringIcSt11char_traitsIcESaIcEEESaIS5_EE9push_backEOS5_
LEHE20:
	leaq	-400(%rbp), %rax
	movq	%rax, %rdi
	call	__ZNSt7__cxx1112basic_stringIcSt11char_traitsIcESaIcEED1Ev
	leaq	-353(%rbp), %rax
	movq	%rax, %rdi
	call	__ZNSaIcED1Ev
	leaq	-313(%rbp), %rax
	movq	%rax, %rdi
	call	__ZNSaIcEC1Ev
	leaq	-313(%rbp), %rdx
	leaq	-352(%rbp), %rax
	leaq	lC20(%rip), %rsi
	movq	%rax, %rdi
LEHB21:
	call	__ZNSt7__cxx1112basic_stringIcSt11char_traitsIcESaIcEEC1EPKcRKS3_
LEHE21:
	leaq	-352(%rbp), %rdx
	leaq	-704(%rbp), %rax
	movq	%rdx, %rsi
	movq	%rax, %rdi
LEHB22:
	call	__ZNSt6vectorINSt7__cxx1112basic_stringIcSt11char_traitsIcESaIcEEESaIS5_EE9push_backEOS5_
LEHE22:
	leaq	-352(%rbp), %rax
	movq	%rax, %rdi
	call	__ZNSt7__cxx1112basic_stringIcSt11char_traitsIcESaIcEED1Ev
	leaq	-313(%rbp), %rax
	movq	%rax, %rdi
	call	__ZNSaIcED1Ev
	leaq	-704(%rbp), %rax
	movq	%rax, %rdi
	call	__ZNKSt6vectorINSt7__cxx1112basic_stringIcSt11char_traitsIcESaIcEEESaIS5_EE4sizeEv
	cmpq	$3, %rax
	setne	%al
	testb	%al, %al
	je	L229
	movl	$16, %edi
	call	___cxa_allocate_exception
	movq	%rax, %rbx
	leaq	lC21(%rip), %rsi
	movq	%rbx, %rdi
LEHB23:
	call	__ZNSt13runtime_errorC1EPKc
LEHE23:
	movq	__ZNSt13runtime_errorD1Ev@GOTPCREL(%rip), %rax
	movq	%rax, %rdx
	movq	__ZTISt13runtime_error@GOTPCREL(%rip), %rax
	movq	%rax, %rsi
	movq	%rbx, %rdi
LEHB24:
	call	___cxa_throw
L229:
	leaq	-1648(%rbp), %rax
	movq	%rax, %rdi
	call	__ZNSt7__cxx1119basic_ostringstreamIcSt11char_traitsIcESaIcEEC1Ev
LEHE24:
	leaq	-704(%rbp), %rax
	movq	%rax, %rdi
	call	__ZNSt6vectorINSt7__cxx1112basic_stringIcSt11char_traitsIcESaIcEEESaIS5_EE5beginEv
	movq	%rax, -312(%rbp)
	leaq	-312(%rbp), %rdx
	leaq	-744(%rbp), %rax
	movq	%rdx, %rsi
	movq	%rax, %rdi
	call	__ZN9__gnu_cxx17__normal_iteratorIPKNSt7__cxx1112basic_stringIcSt11char_traitsIcESaIcEEESt6vectorIS6_SaIS6_EEEC1IPS6_EERKNS0_IT_NS_11__enable_ifIXsrSt10__are_sameISF_SE_E7__valueESB_E6__typeEEE
L232:
	leaq	-704(%rbp), %rax
	movq	%rax, %rdi
	call	__ZNSt6vectorINSt7__cxx1112basic_stringIcSt11char_traitsIcESaIcEEESaIS5_EE3endEv
	movq	%rax, -304(%rbp)
	leaq	-304(%rbp), %rdx
	leaq	-744(%rbp), %rax
	movq	%rdx, %rsi
	movq	%rax, %rdi
	call	__ZN9__gnu_cxxneIPKNSt7__cxx1112basic_stringIcSt11char_traitsIcESaIcEEEPS6_St6vectorIS6_SaIS6_EEEEbRKNS_17__normal_iteratorIT_T1_EERKNSD_IT0_SF_EE
	testb	%al, %al
	je	L230
	leaq	-704(%rbp), %rax
	movq	%rax, %rdi
	call	__ZNSt6vectorINSt7__cxx1112basic_stringIcSt11char_traitsIcESaIcEEESaIS5_EE3endEv
	movq	%rax, -296(%rbp)
	leaq	-744(%rbp), %rax
	movl	$1, %esi
	movq	%rax, %rdi
	call	__ZNK9__gnu_cxx17__normal_iteratorIPKNSt7__cxx1112basic_stringIcSt11char_traitsIcESaIcEEESt6vectorIS6_SaIS6_EEEplEl
	movq	%rax, -288(%rbp)
	leaq	-296(%rbp), %rdx
	leaq	-288(%rbp), %rax
	movq	%rdx, %rsi
	movq	%rax, %rdi
	call	__ZN9__gnu_cxxneIPKNSt7__cxx1112basic_stringIcSt11char_traitsIcESaIcEEEPS6_St6vectorIS6_SaIS6_EEEEbRKNS_17__normal_iteratorIT_T1_EERKNSD_IT0_SF_EE
	testb	%al, %al
	je	L231
	leaq	-1888(%rbp), %rdx
	leaq	-1648(%rbp), %rax
	movq	%rdx, %rsi
	movq	%rax, %rdi
LEHB25:
	call	__ZStlsIcSt11char_traitsIcESaIcEERSt13basic_ostreamIT_T0_ES7_RKNSt7__cxx1112basic_stringIS4_S5_T1_EE
	movl	$10, %esi
	movq	%rax, %rdi
	call	__ZStlsISt11char_traitsIcEERSt13basic_ostreamIcT_ES5_c
L231:
	leaq	-744(%rbp), %rax
	movq	%rax, %rdi
	call	__ZN9__gnu_cxx17__normal_iteratorIPKNSt7__cxx1112basic_stringIcSt11char_traitsIcESaIcEEESt6vectorIS6_SaIS6_EEEppEv
	jmp	L232
L230:
	leaq	-1648(%rbp), %rdx
	leaq	-280(%rbp), %rax
	movq	%rdx, %rsi
	movq	%rax, %rdi
	call	__ZN4test7printerINSt7__cxx1112basic_stringIcSt11char_traitsIcESaIcEEEEC1ERNS1_19basic_ostringstreamIcS4_S5_EE
	leaq	-704(%rbp), %rax
	movq	%rax, %rdi
	call	__ZNSt6vectorINSt7__cxx1112basic_stringIcSt11char_traitsIcESaIcEEESaIS5_EE3endEv
	movq	%rax, %rbx
	leaq	-704(%rbp), %rax
	movq	%rax, %rdi
	call	__ZNSt6vectorINSt7__cxx1112basic_stringIcSt11char_traitsIcESaIcEEESaIS5_EE5beginEv
	movq	%rax, %rcx
	movq	-280(%rbp), %rax
	movq	%rax, %rdx
	movq	%rbx, %rsi
	movq	%rcx, %rdi
	call	__ZSt8for_eachIN9__gnu_cxx17__normal_iteratorIPNSt7__cxx1112basic_stringIcSt11char_traitsIcESaIcEEESt6vectorIS7_SaIS7_EEEEN4test7printerIS7_EEET0_T_SH_SG_
	leaq	-1856(%rbp), %rax
	leaq	-1648(%rbp), %rdx
	movq	%rdx, %rsi
	movq	%rax, %rdi
	call	__ZNKSt7__cxx1119basic_ostringstreamIcSt11char_traitsIcESaIcEE3strEv
LEHE25:
	leaq	-1824(%rbp), %rax
	movq	%rax, %rdi
	call	__ZNSt3mapINSt7__cxx1112basic_stringIcSt11char_traitsIcESaIcEEESt4pairIibESt4lessIS5_ESaIS6_IKS5_S7_EEEC1Ev
	movb	$0, -213(%rbp)
	movl	$53, -212(%rbp)
	leaq	-213(%rbp), %rdx
	leaq	-212(%rbp), %rax
	movq	%rdx, %rsi
	movq	%rax, %rdi
LEHB26:
	call	__ZSt9make_pairIibESt4pairINSt17__decay_and_stripIT_E6__typeENS1_IT0_E6__typeEEOS2_OS5_
LEHE26:
	movq	%rax, -224(%rbp)
	leaq	-162(%rbp), %rax
	movq	%rax, %rdi
	call	__ZNSaIcEC1Ev
	leaq	-162(%rbp), %rdx
	leaq	-208(%rbp), %rax
	leaq	lC22(%rip), %rsi
	movq	%rax, %rdi
LEHB27:
	call	__ZNSt7__cxx1112basic_stringIcSt11char_traitsIcESaIcEEC1EPKcRKS3_
LEHE27:
	leaq	-272(%rbp), %rax
	leaq	-224(%rbp), %rdx
	leaq	-208(%rbp), %rcx
	movq	%rcx, %rsi
	movq	%rax, %rdi
LEHB28:
	call	__ZSt9make_pairINSt7__cxx1112basic_stringIcSt11char_traitsIcESaIcEEESt4pairIibEES6_INSt17__decay_and_stripIT_E6__typeENS8_IT0_E6__typeEEOS9_OSC_
LEHE28:
	leaq	-272(%rbp), %rdx
	leaq	-1824(%rbp), %rax
	movq	%rdx, %rsi
	movq	%rax, %rdi
LEHB29:
	call	__ZNSt3mapINSt7__cxx1112basic_stringIcSt11char_traitsIcESaIcEEESt4pairIibESt4lessIS5_ESaIS6_IKS5_S7_EEE6insertIS6_IS5_S7_EEENSt9enable_ifIXsrSt16is_constructibleISB_JT_EE5valueES6_ISt17_Rb_tree_iteratorISB_EbEE4typeEOSI_
LEHE29:
	leaq	-272(%rbp), %rax
	movq	%rax, %rdi
	call	__ZNSt4pairINSt7__cxx1112basic_stringIcSt11char_traitsIcESaIcEEES_IibEED1Ev
	leaq	-208(%rbp), %rax
	movq	%rax, %rdi
	call	__ZNSt7__cxx1112basic_stringIcSt11char_traitsIcESaIcEED1Ev
	leaq	-162(%rbp), %rax
	movq	%rax, %rdi
	call	__ZNSaIcED1Ev
	movl	$9, -1728(%rbp)
	movl	$7, -1724(%rbp)
	movl	$13, -1720(%rbp)
	movl	$15, -1716(%rbp)
	movl	$4, -1712(%rbp)
	movl	$18, -1708(%rbp)
	movl	$12, -1704(%rbp)
	movl	$10, -1700(%rbp)
	movl	$5, -1696(%rbp)
	movl	$3, -1692(%rbp)
	movl	$14, -1688(%rbp)
	movl	$19, -1684(%rbp)
	movl	$17, -1680(%rbp)
	movl	$8, -1676(%rbp)
	movl	$6, -1672(%rbp)
	movl	$20, -1668(%rbp)
	movl	$16, -1664(%rbp)
	movl	$2, -1660(%rbp)
	movl	$11, -1656(%rbp)
	movl	$1, -1652(%rbp)
	leaq	-1728(%rbp), %rax
	addq	$80, %rax
	leaq	-1728(%rbp), %rsi
	leaq	-1776(%rbp), %rcx
	movq	%rax, %rdx
	movq	%rcx, %rdi
LEHB30:
	call	__ZNSt3setIiSt4lessIiESaIiEEC1IPiEET_S6_
LEHE30:
	leaq	-161(%rbp), %rax
	movq	%rax, %rdi
	call	__ZNSaIiEC1Ev
	leaq	-1776(%rbp), %rax
	movq	%rax, %rdi
	call	__ZNKSt3setIiSt4lessIiESaIiEE3endEv
	movq	%rax, %rbx
	leaq	-1776(%rbp), %rax
	movq	%rax, %rdi
	call	__ZNKSt3setIiSt4lessIiESaIiEE5beginEv
	movq	%rax, %rsi
	leaq	-161(%rbp), %rdx
	leaq	-736(%rbp), %rax
	movq	%rdx, %rcx
	movq	%rbx, %rdx
	movq	%rax, %rdi
LEHB31:
	call	__ZNSt7__cxx114listIiSaIiEEC1ISt23_Rb_tree_const_iteratorIiEvEET_S6_RKS1_
LEHE31:
	leaq	-161(%rbp), %rax
	movq	%rax, %rdi
	call	__ZNSaIiED1Ev
	leaq	-736(%rbp), %rax
	movq	%rax, %rdi
LEHB32:
	call	__ZSt13back_inserterINSt7__cxx114listIiSaIiEEEESt20back_insert_iteratorIT_ERS5_
	movq	%rax, %r12
	leaq	-1776(%rbp), %rax
	movq	%rax, %rdi
	call	__ZNKSt3setIiSt4lessIiESaIiEE3endEv
	movq	%rax, %rbx
	leaq	-1776(%rbp), %rax
	movq	%rax, %rdi
	call	__ZNKSt3setIiSt4lessIiESaIiEE5beginEv
	movq	%r12, %rdx
	movq	%rbx, %rsi
	movq	%rax, %rdi
	call	__ZSt4copyISt23_Rb_tree_const_iteratorIiESt20back_insert_iteratorINSt7__cxx114listIiSaIiEEEEET0_T_S9_S8_
LEHE32:
	leaq	-736(%rbp), %rax
	movq	%rax, %rdi
	call	__ZNSt7__cxx114listIiSaIiEED1Ev
	leaq	-1776(%rbp), %rax
	movq	%rax, %rdi
	call	__ZNSt3setIiSt4lessIiESaIiEED1Ev
	leaq	-1824(%rbp), %rax
	movq	%rax, %rdi
	call	__ZNSt3mapINSt7__cxx1112basic_stringIcSt11char_traitsIcESaIcEEESt4pairIibESt4lessIS5_ESaIS6_IKS5_S7_EEED1Ev
	leaq	-1856(%rbp), %rax
	movq	%rax, %rdi
	call	__ZNSt7__cxx1112basic_stringIcSt11char_traitsIcESaIcEED1Ev
	leaq	-1648(%rbp), %rax
	movq	%rax, %rdi
	call	__ZNSt7__cxx1119basic_ostringstreamIcSt11char_traitsIcESaIcEED1Ev
	leaq	-704(%rbp), %rax
	movq	%rax, %rdi
	call	__ZNSt6vectorINSt7__cxx1112basic_stringIcSt11char_traitsIcESaIcEEESaIS5_EED1Ev
	leaq	-1888(%rbp), %rax
	movq	%rax, %rdi
	call	__ZNSt7__cxx1112basic_stringIcSt11char_traitsIcESaIcEED1Ev
L261:
	movl	$0, %edi
	call	_exit
L264:
	movq	%rax, %rbx
	leaq	-1648(%rbp), %rax
	movq	%rax, %rdi
	call	__ZNSt5dequeIiSaIiEED1Ev
	movq	%rbx, %rax
	movq	%rax, %rdi
LEHB33:
	call	__Unwind_Resume
L266:
	movq	%rax, %rbx
	movl	$32, %esi
	movq	-1896(%rbp), %rdi
	call	__ZdlPvm
	jmp	L235
L265:
	movq	%rax, %rbx
L235:
	leaq	-449(%rbp), %rax
	movq	%rax, %rdi
	call	__ZNSaIcED1Ev
	movq	%rbx, %rax
	movq	%rax, %rdi
	call	__Unwind_Resume
L267:
	movq	%rax, %rbx
	leaq	-560(%rbp), %rax
	movq	%rax, %rdi
	call	__ZNSt8weak_ptrINSt7__cxx1112basic_stringIcSt11char_traitsIcESaIcEEEED1Ev
	leaq	-544(%rbp), %rax
	movq	%rax, %rdi
	call	__ZNSt10shared_ptrINSt7__cxx1112basic_stringIcSt11char_traitsIcESaIcEEEED1Ev
	movq	%rbx, %rax
	movq	%rax, %rdi
	call	__Unwind_Resume
L268:
	movq	%rax, %rbx
	leaq	-1728(%rbp), %rax
	movq	%rax, %rdi
	call	__ZNSt7__cxx1112basic_stringIcSt11char_traitsIcESaIcEED1Ev
	leaq	-1648(%rbp), %rax
	movq	%rax, %rdi
	call	__ZNSt5tupleIJNSt7__cxx1112basic_stringIcSt11char_traitsIcESaIcEEEidEED1Ev
	movq	%rbx, %rax
	movq	%rax, %rdi
	call	__Unwind_Resume
L269:
	movq	%rax, %rbx
	testb	%r12b, %r12b
	jne	L239
	leaq	__ZGVZ4mainE14filename_regex(%rip), %rdi
	call	___cxa_guard_abort
L239:
	movq	%rbx, %rax
	movq	%rax, %rdi
	call	__Unwind_Resume
L270:
	movq	%rax, %rbx
	leaq	-402(%rbp), %rax
	movq	%rax, %rdi
	call	__ZNSaIcED1Ev
	movq	%rbx, %rax
	movq	%rax, %rdi
	call	__Unwind_Resume
L271:
	movq	%rax, %rbx
	leaq	-1648(%rbp), %rax
	movq	%rax, %rdi
	call	__ZNSt7__cxx1112basic_stringIcSt11char_traitsIcESaIcEED1Ev
	movq	%rbx, %rax
	movq	%rax, %rdi
	call	__Unwind_Resume
L272:
	movq	%rax, %r12
	movq	%rdx, %rbx
	leaq	-401(%rbp), %rax
	movq	%rax, %rdi
	call	__ZNSaIcED1Ev
	movq	%r12, %rax
	movq	%rbx, %rdx
	jmp	L243
L276:
	movq	%rax, %r12
	movq	%rdx, %rbx
	leaq	-400(%rbp), %rax
	movq	%rax, %rdi
	call	__ZNSt7__cxx1112basic_stringIcSt11char_traitsIcESaIcEED1Ev
	jmp	L245
L275:
	movq	%rax, %r12
	movq	%rdx, %rbx
L245:
	leaq	-353(%rbp), %rax
	movq	%rax, %rdi
	call	__ZNSaIcED1Ev
	jmp	L246
L278:
	movq	%rax, %r12
	movq	%rdx, %rbx
	leaq	-352(%rbp), %rax
	movq	%rax, %rdi
	call	__ZNSt7__cxx1112basic_stringIcSt11char_traitsIcESaIcEED1Ev
	jmp	L248
L277:
	movq	%rax, %r12
	movq	%rdx, %rbx
L248:
	leaq	-313(%rbp), %rax
	movq	%rax, %rdi
	call	__ZNSaIcED1Ev
	jmp	L246
L279:
	movq	%rax, %r12
	movq	%rdx, %r13
	movq	%rbx, %rdi
	call	___cxa_free_exception
	movq	%r13, %rbx
	jmp	L246
L284:
	movq	%rax, %r12
	movq	%rdx, %rbx
	leaq	-272(%rbp), %rax
	movq	%rax, %rdi
	call	__ZNSt4pairINSt7__cxx1112basic_stringIcSt11char_traitsIcESaIcEEES_IibEED1Ev
	jmp	L251
L283:
	movq	%rax, %r12
	movq	%rdx, %rbx
L251:
	leaq	-208(%rbp), %rax
	movq	%rax, %rdi
	call	__ZNSt7__cxx1112basic_stringIcSt11char_traitsIcESaIcEED1Ev
	jmp	L252
L282:
	movq	%rax, %r12
	movq	%rdx, %rbx
L252:
	leaq	-162(%rbp), %rax
	movq	%rax, %rdi
	call	__ZNSaIcED1Ev
	movq	%r12, %rcx
	movq	%rbx, %rax
	jmp	L253
L281:
	movq	%rax, %rcx
	movq	%rdx, %rax
L253:
	movq	%rcx, %r12
	movq	%rax, %rbx
	jmp	L254
L286:
	movq	%rax, %r12
	movq	%rdx, %rbx
	leaq	-161(%rbp), %rax
	movq	%rax, %rdi
	call	__ZNSaIiED1Ev
	jmp	L256
L287:
	movq	%rax, %r12
	movq	%rdx, %rbx
	leaq	-736(%rbp), %rax
	movq	%rax, %rdi
	call	__ZNSt7__cxx114listIiSaIiEED1Ev
L256:
	leaq	-1776(%rbp), %rax
	movq	%rax, %rdi
	call	__ZNSt3setIiSt4lessIiESaIiEED1Ev
	jmp	L254
L285:
	movq	%rax, %r12
	movq	%rdx, %rbx
L254:
	leaq	-1824(%rbp), %rax
	movq	%rax, %rdi
	call	__ZNSt3mapINSt7__cxx1112basic_stringIcSt11char_traitsIcESaIcEEESt4pairIibESt4lessIS5_ESaIS6_IKS5_S7_EEED1Ev
	leaq	-1856(%rbp), %rax
	movq	%rax, %rdi
	call	__ZNSt7__cxx1112basic_stringIcSt11char_traitsIcESaIcEED1Ev
	jmp	L258
L280:
	movq	%rax, %r12
	movq	%rdx, %rbx
L258:
	leaq	-1648(%rbp), %rax
	movq	%rax, %rdi
	call	__ZNSt7__cxx1119basic_ostringstreamIcSt11char_traitsIcESaIcEED1Ev
	jmp	L246
L274:
	movq	%rax, %r12
	movq	%rdx, %rbx
L246:
	leaq	-704(%rbp), %rax
	movq	%rax, %rdi
	call	__ZNSt6vectorINSt7__cxx1112basic_stringIcSt11char_traitsIcESaIcEEESaIS5_EED1Ev
	jmp	L259
L273:
	movq	%rax, %r12
	movq	%rdx, %rbx
L259:
	leaq	-1888(%rbp), %rax
	movq	%rax, %rdi
	call	__ZNSt7__cxx1112basic_stringIcSt11char_traitsIcESaIcEED1Ev
	movq	%r12, %rax
	movq	%rbx, %rdx
L243:
	cmpq	$1, %rdx
	je	L260
	movq	%rax, %rdi
	call	__Unwind_Resume
LEHE33:
L260:
	movq	%rax, %rdi
	call	___cxa_begin_catch
	movq	%rax, -160(%rbp)
	leaq	lC23(%rip), %rsi
	movq	__ZSt4cerr@GOTPCREL(%rip), %rax
	movq	%rax, %rdi
LEHB34:
	call	__ZStlsISt11char_traitsIcEERSt13basic_ostreamIcT_ES5_PKc
	movq	%rax, %rbx
	movq	-160(%rbp), %rax
	movq	(%rax), %rax
	addq	$16, %rax
	movq	(%rax), %rdx
	movq	-160(%rbp), %rax
	movq	%rax, %rdi
	call	*%rdx
	movq	%rax, %rsi
	movq	%rbx, %rdi
	call	__ZStlsISt11char_traitsIcEERSt13basic_ostreamIcT_ES5_PKc
	movq	%rax, %rdx
	movq	__ZSt4endlIcSt11char_traitsIcEERSt13basic_ostreamIT_T0_ES6_@GOTPCREL(%rip), %rax
	movq	%rax, %rsi
	movq	%rdx, %rdi
	call	__ZNSolsEPFRSoS_E
	leaq	-1648(%rbp), %rax
	movl	$16, %edx
	leaq	lC24(%rip), %rsi
	movq	%rax, %rdi
	call	__ZNSt14basic_ofstreamIcSt11char_traitsIcEEC1EPKcSt13_Ios_Openmode
LEHE34:
	leaq	-1648(%rbp), %rax
	leaq	lC25(%rip), %rsi
	movq	%rax, %rdi
LEHB35:
	call	__ZStlsISt11char_traitsIcEERSt13basic_ostreamIcT_ES5_PKc
	movq	%rax, %rdx
	movq	__ZSt5flushIcSt11char_traitsIcEERSt13basic_ostreamIT_T0_ES6_@GOTPCREL(%rip), %rax
	movq	%rax, %rsi
	movq	%rdx, %rdi
	call	__ZNSolsEPFRSoS_E
	leaq	-1648(%rbp), %rax
	leaq	lC26(%rip), %rsi
	movq	%rax, %rdi
	call	__ZStlsISt11char_traitsIcEERSt13basic_ostreamIcT_ES5_PKc
	movq	%rax, %rdx
	movq	__ZSt3hexRSt8ios_base@GOTPCREL(%rip), %rax
	movq	%rax, %rsi
	movq	%rdx, %rdi
	call	__ZNSolsEPFRSt8ios_baseS0_E
	movq	%rax, %rbx
	movl	$8, %edi
	call	__ZSt4setwi
	movl	%eax, %esi
	movq	%rbx, %rdi
	call	__ZStlsIcSt11char_traitsIcEERSt13basic_ostreamIT_T0_ES6_St5_Setw
	movq	%rax, %rdx
	movq	__ZSt4leftRSt8ios_base@GOTPCREL(%rip), %rax
	movq	%rax, %rsi
	movq	%rdx, %rdi
	call	__ZNSolsEPFRSt8ios_baseS0_E
	movl	$534, %esi
	movq	%rax, %rdi
	call	__ZNSolsEi
	movq	%rax, %rdx
	movq	__ZSt4endlIcSt11char_traitsIcEERSt13basic_ostreamIT_T0_ES6_@GOTPCREL(%rip), %rax
	movq	%rax, %rsi
	movq	%rdx, %rdi
	call	__ZNSolsEPFRSoS_E
	leaq	-1648(%rbp), %rax
	movq	%rax, %rdi
	call	__ZNSt14basic_ofstreamIcSt11char_traitsIcEE5closeEv
LEHE35:
	leaq	-1648(%rbp), %rax
	movq	%rax, %rdi
	call	__ZNSt14basic_ofstreamIcSt11char_traitsIcEED1Ev
	call	___cxa_end_catch
	jmp	L261
L289:
	movq	%rax, %rbx
	leaq	-1648(%rbp), %rax
	movq	%rax, %rdi
	call	__ZNSt14basic_ofstreamIcSt11char_traitsIcEED1Ev
	jmp	L263
L288:
	movq	%rax, %rbx
L263:
	call	___cxa_end_catch
	movq	%rbx, %rax
	movq	%rax, %rdi
LEHB36:
	call	__Unwind_Resume
LEHE36:
LFE5031:
	.section __DATA,__gcc_except_tab
GCC_except_table3:
	.align 3
LLSDA5031:
	.byte	0xff
	.byte	0
	.byte	0xbc,0x3
	.byte	0x3
	.byte	0xad,0x3
	.set L$set$10,LEHB4-LFB5031
	.long L$set$10
	.set L$set$11,LEHE4-LEHB4
	.long L$set$11
	.long	0
	.byte	0
	.set L$set$12,LEHB5-LFB5031
	.long L$set$12
	.set L$set$13,LEHE5-LEHB5
	.long L$set$13
	.set L$set$14,L264-LFB5031
	.long L$set$14
	.byte	0
	.set L$set$15,LEHB6-LFB5031
	.long L$set$15
	.set L$set$16,LEHE6-LEHB6
	.long L$set$16
	.long	0
	.byte	0
	.set L$set$17,LEHB7-LFB5031
	.long L$set$17
	.set L$set$18,LEHE7-LEHB7
	.long L$set$18
	.set L$set$19,L265-LFB5031
	.long L$set$19
	.byte	0
	.set L$set$20,LEHB8-LFB5031
	.long L$set$20
	.set L$set$21,LEHE8-LEHB8
	.long L$set$21
	.set L$set$22,L266-LFB5031
	.long L$set$22
	.byte	0
	.set L$set$23,LEHB9-LFB5031
	.long L$set$23
	.set L$set$24,LEHE9-LEHB9
	.long L$set$24
	.set L$set$25,L265-LFB5031
	.long L$set$25
	.byte	0
	.set L$set$26,LEHB10-LFB5031
	.long L$set$26
	.set L$set$27,LEHE10-LEHB10
	.long L$set$27
	.set L$set$28,L267-LFB5031
	.long L$set$28
	.byte	0
	.set L$set$29,LEHB11-LFB5031
	.long L$set$29
	.set L$set$30,LEHE11-LEHB11
	.long L$set$30
	.long	0
	.byte	0
	.set L$set$31,LEHB12-LFB5031
	.long L$set$31
	.set L$set$32,LEHE12-LEHB12
	.long L$set$32
	.set L$set$33,L268-LFB5031
	.long L$set$33
	.byte	0
	.set L$set$34,LEHB13-LFB5031
	.long L$set$34
	.set L$set$35,LEHE13-LEHB13
	.long L$set$35
	.set L$set$36,L269-LFB5031
	.long L$set$36
	.byte	0
	.set L$set$37,LEHB14-LFB5031
	.long L$set$37
	.set L$set$38,LEHE14-LEHB14
	.long L$set$38
	.set L$set$39,L270-LFB5031
	.long L$set$39
	.byte	0
	.set L$set$40,LEHB15-LFB5031
	.long L$set$40
	.set L$set$41,LEHE15-LEHB15
	.long L$set$41
	.set L$set$42,L271-LFB5031
	.long L$set$42
	.byte	0
	.set L$set$43,LEHB16-LFB5031
	.long L$set$43
	.set L$set$44,LEHE16-LEHB16
	.long L$set$44
	.set L$set$45,L272-LFB5031
	.long L$set$45
	.byte	0x3
	.set L$set$46,LEHB17-LFB5031
	.long L$set$46
	.set L$set$47,LEHE17-LEHB17
	.long L$set$47
	.set L$set$48,L273-LFB5031
	.long L$set$48
	.byte	0x3
	.set L$set$49,LEHB18-LFB5031
	.long L$set$49
	.set L$set$50,LEHE18-LEHB18
	.long L$set$50
	.set L$set$51,L274-LFB5031
	.long L$set$51
	.byte	0x3
	.set L$set$52,LEHB19-LFB5031
	.long L$set$52
	.set L$set$53,LEHE19-LEHB19
	.long L$set$53
	.set L$set$54,L275-LFB5031
	.long L$set$54
	.byte	0x3
	.set L$set$55,LEHB20-LFB5031
	.long L$set$55
	.set L$set$56,LEHE20-LEHB20
	.long L$set$56
	.set L$set$57,L276-LFB5031
	.long L$set$57
	.byte	0x3
	.set L$set$58,LEHB21-LFB5031
	.long L$set$58
	.set L$set$59,LEHE21-LEHB21
	.long L$set$59
	.set L$set$60,L277-LFB5031
	.long L$set$60
	.byte	0x3
	.set L$set$61,LEHB22-LFB5031
	.long L$set$61
	.set L$set$62,LEHE22-LEHB22
	.long L$set$62
	.set L$set$63,L278-LFB5031
	.long L$set$63
	.byte	0x3
	.set L$set$64,LEHB23-LFB5031
	.long L$set$64
	.set L$set$65,LEHE23-LEHB23
	.long L$set$65
	.set L$set$66,L279-LFB5031
	.long L$set$66
	.byte	0x3
	.set L$set$67,LEHB24-LFB5031
	.long L$set$67
	.set L$set$68,LEHE24-LEHB24
	.long L$set$68
	.set L$set$69,L274-LFB5031
	.long L$set$69
	.byte	0x3
	.set L$set$70,LEHB25-LFB5031
	.long L$set$70
	.set L$set$71,LEHE25-LEHB25
	.long L$set$71
	.set L$set$72,L280-LFB5031
	.long L$set$72
	.byte	0x3
	.set L$set$73,LEHB26-LFB5031
	.long L$set$73
	.set L$set$74,LEHE26-LEHB26
	.long L$set$74
	.set L$set$75,L281-LFB5031
	.long L$set$75
	.byte	0x3
	.set L$set$76,LEHB27-LFB5031
	.long L$set$76
	.set L$set$77,LEHE27-LEHB27
	.long L$set$77
	.set L$set$78,L282-LFB5031
	.long L$set$78
	.byte	0x3
	.set L$set$79,LEHB28-LFB5031
	.long L$set$79
	.set L$set$80,LEHE28-LEHB28
	.long L$set$80
	.set L$set$81,L283-LFB5031
	.long L$set$81
	.byte	0x3
	.set L$set$82,LEHB29-LFB5031
	.long L$set$82
	.set L$set$83,LEHE29-LEHB29
	.long L$set$83
	.set L$set$84,L284-LFB5031
	.long L$set$84
	.byte	0x3
	.set L$set$85,LEHB30-LFB5031
	.long L$set$85
	.set L$set$86,LEHE30-LEHB30
	.long L$set$86
	.set L$set$87,L285-LFB5031
	.long L$set$87
	.byte	0x3
	.set L$set$88,LEHB31-LFB5031
	.long L$set$88
	.set L$set$89,LEHE31-LEHB31
	.long L$set$89
	.set L$set$90,L286-LFB5031
	.long L$set$90
	.byte	0x3
	.set L$set$91,LEHB32-LFB5031
	.long L$set$91
	.set L$set$92,LEHE32-LEHB32
	.long L$set$92
	.set L$set$93,L287-LFB5031
	.long L$set$93
	.byte	0x3
	.set L$set$94,LEHB33-LFB5031
	.long L$set$94
	.set L$set$95,LEHE33-LEHB33
	.long L$set$95
	.long	0
	.byte	0
	.set L$set$96,LEHB34-LFB5031
	.long L$set$96
	.set L$set$97,LEHE34-LEHB34
	.long L$set$97
	.set L$set$98,L288-LFB5031
	.long L$set$98
	.byte	0
	.set L$set$99,LEHB35-LFB5031
	.long L$set$99
	.set L$set$100,LEHE35-LEHB35
	.long L$set$100
	.set L$set$101,L289-LFB5031
	.long L$set$101
	.byte	0
	.set L$set$102,LEHB36-LFB5031
	.long L$set$102
	.set L$set$103,LEHE36-LEHB36
	.long L$set$103
	.long	0
	.byte	0
	.byte	0x1
	.byte	0
	.byte	0x7d
	.align 3
	.quad	__ZTISt9exception
	.text
	.section __TEXT,__textcoal_nt,coalesced,pure_instructions
	.align 1
	.globl __ZNSt7__cxx1112basic_stringIcSt11char_traitsIcESaIcEE12_Alloc_hiderD1Ev
	.weak_definition __ZNSt7__cxx1112basic_stringIcSt11char_traitsIcESaIcEE12_Alloc_hiderD1Ev
__ZNSt7__cxx1112basic_stringIcSt11char_traitsIcESaIcEE12_Alloc_hiderD1Ev:
LFB5235:
	pushq	%rbp
LCFI353:
	movq	%rsp, %rbp
LCFI354:
	subq	$16, %rsp
	movq	%rdi, -8(%rbp)
	movq	-8(%rbp), %rax
	movq	%rax, %rdi
	call	__ZNSaIcED2Ev
	nop
	leave
LCFI355:
	ret
LFE5235:
	.align 1
	.globl __ZNKSt16_Sp_counted_baseILN9__gnu_cxx12_Lock_policyE2EE16_M_get_use_countEv
	.weak_definition __ZNKSt16_Sp_counted_baseILN9__gnu_cxx12_Lock_policyE2EE16_M_get_use_countEv
__ZNKSt16_Sp_counted_baseILN9__gnu_cxx12_Lock_policyE2EE16_M_get_use_countEv:
LFB5388:
	pushq	%rbp
LCFI356:
	movq	%rsp, %rbp
LCFI357:
	movq	%rdi, -8(%rbp)
	movq	-8(%rbp), %rax
	addq	$8, %rax
	movl	(%rax), %eax
	cltq
	popq	%rbp
LCFI358:
	ret
LFE5388:
	.align 1
	.globl __ZNSt12_Vector_baseImSaImEE12_Vector_implC1Ev
	.weak_definition __ZNSt12_Vector_baseImSaImEE12_Vector_implC1Ev
__ZNSt12_Vector_baseImSaImEE12_Vector_implC1Ev:
LFB5412:
	pushq	%rbp
LCFI359:
	movq	%rsp, %rbp
LCFI360:
	subq	$16, %rsp
	movq	%rdi, -8(%rbp)
	movq	-8(%rbp), %rax
	movq	%rax, %rdi
	call	__ZNSaImEC2Ev
	movq	-8(%rbp), %rax
	movq	%rax, %rdi
	call	__ZNSt12_Vector_baseImSaImEE17_Vector_impl_dataC2Ev
	nop
	leave
LCFI361:
	ret
LFE5412:
	.align 1
	.globl __ZNSaImED2Ev
	.weak_definition __ZNSaImED2Ev
__ZNSaImED2Ev:
LFB5414:
	pushq	%rbp
LCFI362:
	movq	%rsp, %rbp
LCFI363:
	subq	$16, %rsp
	movq	%rdi, -8(%rbp)
	movq	-8(%rbp), %rax
	movq	%rax, %rdi
	call	__ZN9__gnu_cxx13new_allocatorImED2Ev
	nop
	leave
LCFI364:
	ret
LFE5414:
	.align 1
	.globl __ZNSt12_Vector_baseImSaImEED2Ev
	.weak_definition __ZNSt12_Vector_baseImSaImEED2Ev
__ZNSt12_Vector_baseImSaImEED2Ev:
LFB5417:
	pushq	%rbp
LCFI365:
	movq	%rsp, %rbp
LCFI366:
	subq	$16, %rsp
	movq	%rdi, -8(%rbp)
	movq	-8(%rbp), %rax
	movq	16(%rax), %rdx
	movq	-8(%rbp), %rax
	movq	(%rax), %rax
	subq	%rax, %rdx
	movq	%rdx, %rax
	sarq	$3, %rax
	movq	%rax, %rdx
	movq	-8(%rbp), %rax
	movq	(%rax), %rcx
	movq	-8(%rbp), %rax
	movq	%rcx, %rsi
	movq	%rax, %rdi
	call	__ZNSt12_Vector_baseImSaImEE13_M_deallocateEPmm
	movq	-8(%rbp), %rax
	movq	%rax, %rdi
	call	__ZNSt12_Vector_baseImSaImEE12_Vector_implD1Ev
	nop
	leave
LCFI367:
	ret
LFE5417:
	.section __DATA,__gcc_except_tab
GCC_except_table4:
LLSDA5417:
	.byte	0xff
	.byte	0x3
	.byte	0
	.section __TEXT,__textcoal_nt,coalesced,pure_instructions
	.align 1
	.globl __ZNSt6vectorImSaImEED1Ev
	.weak_definition __ZNSt6vectorImSaImEED1Ev
__ZNSt6vectorImSaImEED1Ev:
LFB5421:
	pushq	%rbp
LCFI368:
	movq	%rsp, %rbp
LCFI369:
	subq	$16, %rsp
	movq	%rdi, -8(%rbp)
	movq	-8(%rbp), %rax
	movq	%rax, %rdi
	call	__ZNSt12_Vector_baseImSaImEE19_M_get_Tp_allocatorEv
	movq	%rax, %rdx
	movq	-8(%rbp), %rax
	movq	8(%rax), %rcx
	movq	-8(%rbp), %rax
	movq	(%rax), %rax
	movq	%rcx, %rsi
	movq	%rax, %rdi
	call	__ZSt8_DestroyIPmmEvT_S1_RSaIT0_E
	movq	-8(%rbp), %rax
	movq	%rax, %rdi
	call	__ZNSt12_Vector_baseImSaImEED2Ev
	nop
	leave
LCFI370:
	ret
LFE5421:
	.section __DATA,__gcc_except_tab
GCC_except_table5:
LLSDA5421:
	.byte	0xff
	.byte	0x3
	.byte	0
	.section __TEXT,__textcoal_nt,coalesced,pure_instructions
	.align 1
	.globl __ZNSt5dequeIiSaIiEEC1Ev
	.weak_definition __ZNSt5dequeIiSaIiEEC1Ev
__ZNSt5dequeIiSaIiEEC1Ev:
LFB5428:
	pushq	%rbp
LCFI371:
	movq	%rsp, %rbp
LCFI372:
	subq	$16, %rsp
	movq	%rdi, -8(%rbp)
	movq	-8(%rbp), %rax
	movq	%rax, %rdi
	call	__ZNSt11_Deque_baseIiSaIiEEC2Ev
	nop
	leave
LCFI373:
	ret
LFE5428:
	.align 1
	.globl __ZNSt5dequeIiSaIiEED1Ev
	.weak_definition __ZNSt5dequeIiSaIiEED1Ev
__ZNSt5dequeIiSaIiEED1Ev:
LFB5431:
	pushq	%rbp
LCFI374:
	movq	%rsp, %rbp
LCFI375:
	pushq	%rbx
	subq	$88, %rsp
LCFI376:
	movq	%rdi, -88(%rbp)
	movq	-88(%rbp), %rax
	movq	%rax, %rdi
	call	__ZNSt11_Deque_baseIiSaIiEE19_M_get_Tp_allocatorEv
	movq	%rax, %rbx
	leaq	-80(%rbp), %rax
	movq	-88(%rbp), %rdx
	movq	%rdx, %rsi
	movq	%rax, %rdi
	call	__ZNSt5dequeIiSaIiEE3endEv
	leaq	-48(%rbp), %rax
	movq	-88(%rbp), %rdx
	movq	%rdx, %rsi
	movq	%rax, %rdi
	call	__ZNSt5dequeIiSaIiEE5beginEv
	movq	-88(%rbp), %rax
	pushq	-56(%rbp)
	pushq	-64(%rbp)
	pushq	-72(%rbp)
	pushq	-80(%rbp)
	pushq	-24(%rbp)
	pushq	-32(%rbp)
	pushq	-40(%rbp)
	pushq	-48(%rbp)
	movq	%rbx, %rsi
	movq	%rax, %rdi
	call	__ZNSt5dequeIiSaIiEE15_M_destroy_dataESt15_Deque_iteratorIiRiPiES5_RKS0_
	addq	$64, %rsp
	movq	-88(%rbp), %rax
	movq	%rax, %rdi
	call	__ZNSt11_Deque_baseIiSaIiEED2Ev
	nop
	movq	-8(%rbp), %rbx
	leave
LCFI377:
	ret
LFE5431:
	.section __DATA,__gcc_except_tab
GCC_except_table6:
LLSDA5431:
	.byte	0xff
	.byte	0x3
	.byte	0
	.section __TEXT,__textcoal_nt,coalesced,pure_instructions
	.align 1
	.globl __ZNSt5dequeIiSaIiEE10push_frontEOi
	.weak_definition __ZNSt5dequeIiSaIiEE10push_frontEOi
__ZNSt5dequeIiSaIiEE10push_frontEOi:
LFB5432:
	pushq	%rbp
LCFI378:
	movq	%rsp, %rbp
LCFI379:
	subq	$16, %rsp
	movq	%rdi, -8(%rbp)
	movq	%rsi, -16(%rbp)
	movq	-16(%rbp), %rax
	movq	%rax, %rdi
	call	__ZSt4moveIRiEONSt16remove_referenceIT_E4typeEOS2_
	movq	%rax, %rdx
	movq	-8(%rbp), %rax
	movq	%rdx, %rsi
	movq	%rax, %rdi
	call	__ZNSt5dequeIiSaIiEE13emplace_frontIJiEEEvDpOT_
	nop
	leave
LCFI380:
	ret
LFE5432:
	.align 1
	.globl __ZNSt5dequeIiSaIiEE5beginEv
	.weak_definition __ZNSt5dequeIiSaIiEE5beginEv
__ZNSt5dequeIiSaIiEE5beginEv:
LFB5433:
	pushq	%rbp
LCFI381:
	movq	%rsp, %rbp
LCFI382:
	movq	%rdi, -8(%rbp)
	movq	%rsi, -16(%rbp)
	movq	-8(%rbp), %rax
	movq	-16(%rbp), %rdx
	movq	16(%rdx), %rcx
	movq	%rcx, (%rax)
	movq	24(%rdx), %rcx
	movq	%rcx, 8(%rax)
	movq	32(%rdx), %rcx
	movq	%rcx, 16(%rax)
	movq	40(%rdx), %rdx
	movq	%rdx, 24(%rax)
	movq	-8(%rbp), %rax
	popq	%rbp
LCFI383:
	ret
LFE5433:
	.align 1
	.globl __ZNSt5dequeIiSaIiEE3endEv
	.weak_definition __ZNSt5dequeIiSaIiEE3endEv
__ZNSt5dequeIiSaIiEE3endEv:
LFB5434:
	pushq	%rbp
LCFI384:
	movq	%rsp, %rbp
LCFI385:
	movq	%rdi, -8(%rbp)
	movq	%rsi, -16(%rbp)
	movq	-8(%rbp), %rax
	movq	-16(%rbp), %rdx
	movq	48(%rdx), %rcx
	movq	%rcx, (%rax)
	movq	56(%rdx), %rcx
	movq	%rcx, 8(%rax)
	movq	64(%rdx), %rcx
	movq	%rcx, 16(%rax)
	movq	72(%rdx), %rdx
	movq	%rdx, 24(%rax)
	movq	-8(%rbp), %rax
	popq	%rbp
LCFI386:
	ret
LFE5434:
	.globl __ZStneIiRiPiEbRKSt15_Deque_iteratorIT_T0_T1_ES8_
	.weak_definition __ZStneIiRiPiEbRKSt15_Deque_iteratorIT_T0_T1_ES8_
__ZStneIiRiPiEbRKSt15_Deque_iteratorIT_T0_T1_ES8_:
LFB5435:
	pushq	%rbp
LCFI387:
	movq	%rsp, %rbp
LCFI388:
	subq	$16, %rsp
	movq	%rdi, -8(%rbp)
	movq	%rsi, -16(%rbp)
	movq	-16(%rbp), %rdx
	movq	-8(%rbp), %rax
	movq	%rdx, %rsi
	movq	%rax, %rdi
	call	__ZSteqIiRiPiEbRKSt15_Deque_iteratorIT_T0_T1_ES8_
	xorl	$1, %eax
	leave
LCFI389:
	ret
LFE5435:
	.align 1
	.globl __ZNSt15_Deque_iteratorIiRiPiEppEv
	.weak_definition __ZNSt15_Deque_iteratorIiRiPiEppEv
__ZNSt15_Deque_iteratorIiRiPiEppEv:
LFB5436:
	pushq	%rbp
LCFI390:
	movq	%rsp, %rbp
LCFI391:
	subq	$16, %rsp
	movq	%rdi, -8(%rbp)
	movq	-8(%rbp), %rax
	movq	(%rax), %rax
	leaq	4(%rax), %rdx
	movq	-8(%rbp), %rax
	movq	%rdx, (%rax)
	movq	-8(%rbp), %rax
	movq	(%rax), %rdx
	movq	-8(%rbp), %rax
	movq	16(%rax), %rax
	cmpq	%rax, %rdx
	jne	L307
	movq	-8(%rbp), %rax
	movq	24(%rax), %rax
	leaq	8(%rax), %rdx
	movq	-8(%rbp), %rax
	movq	%rdx, %rsi
	movq	%rax, %rdi
	call	__ZNSt15_Deque_iteratorIiRiPiE11_M_set_nodeEPS1_
	movq	-8(%rbp), %rax
	movq	8(%rax), %rdx
	movq	-8(%rbp), %rax
	movq	%rdx, (%rax)
L307:
	movq	-8(%rbp), %rax
	leave
LCFI392:
	ret
LFE5436:
	.align 1
	.globl __ZNKSt15_Deque_iteratorIiRiPiEdeEv
	.weak_definition __ZNKSt15_Deque_iteratorIiRiPiEdeEv
__ZNKSt15_Deque_iteratorIiRiPiEdeEv:
LFB5437:
	pushq	%rbp
LCFI393:
	movq	%rsp, %rbp
LCFI394:
	movq	%rdi, -8(%rbp)
	movq	-8(%rbp), %rax
	movq	(%rax), %rax
	popq	%rbp
LCFI395:
	ret
LFE5437:
	.align 1
	.globl __ZNSt5arrayIiLm20EE5beginEv
	.weak_definition __ZNSt5arrayIiLm20EE5beginEv
__ZNSt5arrayIiLm20EE5beginEv:
LFB5438:
	pushq	%rbp
LCFI396:
	movq	%rsp, %rbp
LCFI397:
	subq	$16, %rsp
	movq	%rdi, -8(%rbp)
	movq	-8(%rbp), %rax
	movq	%rax, %rdi
	call	__ZNSt5arrayIiLm20EE4dataEv
	leave
LCFI398:
	ret
LFE5438:
	.align 1
	.globl __ZNSt5arrayIiLm20EE3endEv
	.weak_definition __ZNSt5arrayIiLm20EE3endEv
__ZNSt5arrayIiLm20EE3endEv:
LFB5439:
	pushq	%rbp
LCFI399:
	movq	%rsp, %rbp
LCFI400:
	subq	$16, %rsp
	movq	%rdi, -8(%rbp)
	movq	-8(%rbp), %rax
	movq	%rax, %rdi
	call	__ZNSt5arrayIiLm20EE4dataEv
	addq	$80, %rax
	leave
LCFI401:
	ret
LFE5439:
	.text
__ZSt8for_eachIPiZ4mainEUliE_ET0_T_S3_S2_:
LFB5440:
	pushq	%rbp
LCFI402:
	movq	%rsp, %rbp
LCFI403:
	pushq	%rbx
	subq	$24, %rsp
LCFI404:
	movq	%rdi, -24(%rbp)
	movq	%rsi, -32(%rbp)
L317:
	movq	-24(%rbp), %rax
	cmpq	-32(%rbp), %rax
	je	L318
	movq	-24(%rbp), %rax
	movl	(%rax), %eax
	movl	%eax, %esi
	leaq	16(%rbp), %rdi
	call	__ZZ4mainENKUliE_clEi
	addq	$4, -24(%rbp)
	jmp	L317
L318:
	movl	%ebx, %eax
	addq	$24, %rsp
	popq	%rbx
	popq	%rbp
LCFI405:
	ret
LFE5440:
	.section __TEXT,__textcoal_nt,coalesced,pure_instructions
	.align 1
	.globl __ZNSt10shared_ptrINSt7__cxx1112basic_stringIcSt11char_traitsIcESaIcEEEEC1IS5_vEEPT_
	.weak_definition __ZNSt10shared_ptrINSt7__cxx1112basic_stringIcSt11char_traitsIcESaIcEEEEC1IS5_vEEPT_
__ZNSt10shared_ptrINSt7__cxx1112basic_stringIcSt11char_traitsIcESaIcEEEEC1IS5_vEEPT_:
LFB5446:
	pushq	%rbp
LCFI406:
	movq	%rsp, %rbp
LCFI407:
	subq	$16, %rsp
	movq	%rdi, -8(%rbp)
	movq	%rsi, -16(%rbp)
	movq	-8(%rbp), %rax
	movq	-16(%rbp), %rdx
	movq	%rdx, %rsi
	movq	%rax, %rdi
	call	__ZNSt12__shared_ptrINSt7__cxx1112basic_stringIcSt11char_traitsIcESaIcEEELN9__gnu_cxx12_Lock_policyE2EEC2IS5_vEEPT_
	nop
	leave
LCFI408:
	ret
LFE5446:
	.align 1
	.globl __ZNSt14__shared_countILN9__gnu_cxx12_Lock_policyE2EED1Ev
	.weak_definition __ZNSt14__shared_countILN9__gnu_cxx12_Lock_policyE2EED1Ev
__ZNSt14__shared_countILN9__gnu_cxx12_Lock_policyE2EED1Ev:
LFB5449:
	pushq	%rbp
LCFI409:
	movq	%rsp, %rbp
LCFI410:
	subq	$16, %rsp
	movq	%rdi, -8(%rbp)
	movq	-8(%rbp), %rax
	movq	(%rax), %rax
	testq	%rax, %rax
	je	L322
	movq	-8(%rbp), %rax
	movq	(%rax), %rax
	movq	%rax, %rdi
	call	__ZNSt16_Sp_counted_baseILN9__gnu_cxx12_Lock_policyE2EE10_M_releaseEv
L322:
	nop
	leave
LCFI411:
	ret
LFE5449:
	.align 1
	.globl __ZNSt8weak_ptrINSt7__cxx1112basic_stringIcSt11char_traitsIcESaIcEEEEC1IS5_vEERKSt10shared_ptrIT_E
	.weak_definition __ZNSt8weak_ptrINSt7__cxx1112basic_stringIcSt11char_traitsIcESaIcEEEEC1IS5_vEERKSt10shared_ptrIT_E
__ZNSt8weak_ptrINSt7__cxx1112basic_stringIcSt11char_traitsIcESaIcEEEEC1IS5_vEERKSt10shared_ptrIT_E:
LFB5452:
	pushq	%rbp
LCFI412:
	movq	%rsp, %rbp
LCFI413:
	subq	$16, %rsp
	movq	%rdi, -8(%rbp)
	movq	%rsi, -16(%rbp)
	movq	-8(%rbp), %rax
	movq	-16(%rbp), %rdx
	movq	%rdx, %rsi
	movq	%rax, %rdi
	call	__ZNSt10__weak_ptrINSt7__cxx1112basic_stringIcSt11char_traitsIcESaIcEEELN9__gnu_cxx12_Lock_policyE2EEC2IS5_vEERKSt12__shared_ptrIT_LS7_2EE
	nop
	leave
LCFI414:
	ret
LFE5452:
	.align 1
	.globl __ZNSt12__weak_countILN9__gnu_cxx12_Lock_policyE2EED1Ev
	.weak_definition __ZNSt12__weak_countILN9__gnu_cxx12_Lock_policyE2EED1Ev
__ZNSt12__weak_countILN9__gnu_cxx12_Lock_policyE2EED1Ev:
LFB5455:
	pushq	%rbp
LCFI415:
	movq	%rsp, %rbp
LCFI416:
	subq	$16, %rsp
	movq	%rdi, -8(%rbp)
	movq	-8(%rbp), %rax
	movq	(%rax), %rax
	testq	%rax, %rax
	je	L326
	movq	-8(%rbp), %rax
	movq	(%rax), %rax
	movq	%rax, %rdi
	call	__ZNSt16_Sp_counted_baseILN9__gnu_cxx12_Lock_policyE2EE15_M_weak_releaseEv
L326:
	nop
	leave
LCFI417:
	ret
LFE5455:
	.align 1
	.globl __ZNSt10shared_ptrINSt7__cxx1112basic_stringIcSt11char_traitsIcESaIcEEEEC1IS5_vEERKSt8weak_ptrIT_E
	.weak_definition __ZNSt10shared_ptrINSt7__cxx1112basic_stringIcSt11char_traitsIcESaIcEEEEC1IS5_vEERKSt8weak_ptrIT_E
__ZNSt10shared_ptrINSt7__cxx1112basic_stringIcSt11char_traitsIcESaIcEEEEC1IS5_vEERKSt8weak_ptrIT_E:
LFB5458:
	pushq	%rbp
LCFI418:
	movq	%rsp, %rbp
LCFI419:
	subq	$16, %rsp
	movq	%rdi, -8(%rbp)
	movq	%rsi, -16(%rbp)
	movq	-8(%rbp), %rax
	movq	-16(%rbp), %rdx
	movq	%rdx, %rsi
	movq	%rax, %rdi
	call	__ZNSt12__shared_ptrINSt7__cxx1112basic_stringIcSt11char_traitsIcESaIcEEELN9__gnu_cxx12_Lock_policyE2EEC2IS5_vEERKSt10__weak_ptrIT_LS7_2EE
	nop
	leave
LCFI420:
	ret
LFE5458:
	.globl __ZSt3tieIJNSt7__cxx1112basic_stringIcSt11char_traitsIcESaIcEEEidEESt5tupleIJDpRT_EES9_
	.weak_definition __ZSt3tieIJNSt7__cxx1112basic_stringIcSt11char_traitsIcESaIcEEEidEESt5tupleIJDpRT_EES9_
__ZSt3tieIJNSt7__cxx1112basic_stringIcSt11char_traitsIcESaIcEEEidEESt5tupleIJDpRT_EES9_:
LFB5462:
	pushq	%rbp
LCFI421:
	movq	%rsp, %rbp
LCFI422:
	subq	$32, %rsp
	movq	%rdi, -8(%rbp)
	movq	%rsi, -16(%rbp)
	movq	%rdx, -24(%rbp)
	movq	%rcx, -32(%rbp)
	movq	-32(%rbp), %rcx
	movq	-24(%rbp), %rdx
	movq	-16(%rbp), %rsi
	movq	-8(%rbp), %rax
	movq	%rax, %rdi
	call	__ZNSt5tupleIJRNSt7__cxx1112basic_stringIcSt11char_traitsIcESaIcEEERiRdEEC1IvLb1EEES6_S7_S8_
	movq	-8(%rbp), %rax
	leave
LCFI423:
	ret
LFE5462:
	.section __DATA,__gcc_except_tab
GCC_except_table7:
LLSDA5462:
	.byte	0xff
	.byte	0x3
	.byte	0
	.section __TEXT,__textcoal_nt,coalesced,pure_instructions
	.align 1
	.globl __ZNSt5tupleIJRNSt7__cxx1112basic_stringIcSt11char_traitsIcESaIcEEERiRdEEaSIJS5_idEEENSt9enable_ifIXcl12__assignableIDpRKT_EEERS9_E4typeERKS_IJDpSC_EE
	.weak_definition __ZNSt5tupleIJRNSt7__cxx1112basic_stringIcSt11char_traitsIcESaIcEEERiRdEEaSIJS5_idEEENSt9enable_ifIXcl12__assignableIDpRKT_EEERS9_E4typeERKS_IJDpSC_EE
__ZNSt5tupleIJRNSt7__cxx1112basic_stringIcSt11char_traitsIcESaIcEEERiRdEEaSIJS5_idEEENSt9enable_ifIXcl12__assignableIDpRKT_EEERS9_E4typeERKS_IJDpSC_EE:
LFB5483:
	pushq	%rbp
LCFI424:
	movq	%rsp, %rbp
LCFI425:
	subq	$16, %rsp
	movq	%rdi, -8(%rbp)
	movq	%rsi, -16(%rbp)
	movq	-8(%rbp), %rax
	movq	-16(%rbp), %rdx
	movq	%rdx, %rsi
	movq	%rax, %rdi
	call	__ZNSt11_Tuple_implILm0EJRNSt7__cxx1112basic_stringIcSt11char_traitsIcESaIcEEERiRdEE9_M_assignIJS5_idEEEvRKS_ILm0EJDpT_EE
	movq	-8(%rbp), %rax
	leave
LCFI426:
	ret
LFE5483:
	.align 1
	.globl __ZNSt7__cxx1111basic_regexIcNS_12regex_traitsIcEEEC1EPKcNSt15regex_constants18syntax_option_typeE
	.weak_definition __ZNSt7__cxx1111basic_regexIcNS_12regex_traitsIcEEEC1EPKcNSt15regex_constants18syntax_option_typeE
__ZNSt7__cxx1111basic_regexIcNS_12regex_traitsIcEEEC1EPKcNSt15regex_constants18syntax_option_typeE:
LFB5486:
	pushq	%rbp
LCFI427:
	movq	%rsp, %rbp
LCFI428:
	subq	$32, %rsp
	movq	%rdi, -8(%rbp)
	movq	%rsi, -16(%rbp)
	movl	%edx, -20(%rbp)
	movq	-16(%rbp), %rax
	movq	%rax, %rdi
	call	__ZNSt11char_traitsIcE6lengthEPKc
	movq	-16(%rbp), %rdx
	addq	%rax, %rdx
	movl	-20(%rbp), %ecx
	movq	-16(%rbp), %rsi
	movq	-8(%rbp), %rax
	movq	%rax, %rdi
	call	__ZNSt7__cxx1111basic_regexIcNS_12regex_traitsIcEEEC1IPKcEET_S7_NSt15regex_constants18syntax_option_typeE
	nop
	leave
LCFI429:
	ret
LFE5486:
	.align 1
	.globl __ZNSt12__shared_ptrIKNSt8__detail4_NFAINSt7__cxx1112regex_traitsIcEEEELN9__gnu_cxx12_Lock_policyE2EED2Ev
	.weak_definition __ZNSt12__shared_ptrIKNSt8__detail4_NFAINSt7__cxx1112regex_traitsIcEEEELN9__gnu_cxx12_Lock_policyE2EED2Ev
__ZNSt12__shared_ptrIKNSt8__detail4_NFAINSt7__cxx1112regex_traitsIcEEEELN9__gnu_cxx12_Lock_policyE2EED2Ev:
LFB5490:
	pushq	%rbp
LCFI430:
	movq	%rsp, %rbp
LCFI431:
	subq	$16, %rsp
	movq	%rdi, -8(%rbp)
	movq	-8(%rbp), %rax
	addq	$8, %rax
	movq	%rax, %rdi
	call	__ZNSt14__shared_countILN9__gnu_cxx12_Lock_policyE2EED1Ev
	nop
	leave
LCFI432:
	ret
LFE5490:
	.align 1
	.globl __ZNSt10shared_ptrIKNSt8__detail4_NFAINSt7__cxx1112regex_traitsIcEEEEED1Ev
	.weak_definition __ZNSt10shared_ptrIKNSt8__detail4_NFAINSt7__cxx1112regex_traitsIcEEEEED1Ev
__ZNSt10shared_ptrIKNSt8__detail4_NFAINSt7__cxx1112regex_traitsIcEEEEED1Ev:
LFB5493:
	pushq	%rbp
LCFI433:
	movq	%rsp, %rbp
LCFI434:
	subq	$16, %rsp
	movq	%rdi, -8(%rbp)
	movq	-8(%rbp), %rax
	movq	%rax, %rdi
	call	__ZNSt12__shared_ptrIKNSt8__detail4_NFAINSt7__cxx1112regex_traitsIcEEEELN9__gnu_cxx12_Lock_policyE2EED2Ev
	nop
	leave
LCFI435:
	ret
LFE5493:
	.align 1
	.globl __ZNSt7__cxx1111basic_regexIcNS_12regex_traitsIcEEED1Ev
	.weak_definition __ZNSt7__cxx1111basic_regexIcNS_12regex_traitsIcEEED1Ev
__ZNSt7__cxx1111basic_regexIcNS_12regex_traitsIcEEED1Ev:
LFB5495:
	pushq	%rbp
LCFI436:
	movq	%rsp, %rbp
LCFI437:
	subq	$16, %rsp
	movq	%rdi, -8(%rbp)
	movq	-8(%rbp), %rax
	addq	$16, %rax
	movq	%rax, %rdi
	call	__ZNSt10shared_ptrIKNSt8__detail4_NFAINSt7__cxx1112regex_traitsIcEEEEED1Ev
	movq	-8(%rbp), %rax
	addq	$8, %rax
	movq	%rax, %rdi
	call	__ZNSt6localeD1Ev
	nop
	leave
LCFI438:
	ret
LFE5495:
	.globl __ZSt12regex_searchISt11char_traitsIcESaIcEcNSt7__cxx1112regex_traitsIcEEEbRKNS3_12basic_stringIT1_T_T0_EERKNS3_11basic_regexIS7_T2_EENSt15regex_constants15match_flag_typeE
	.weak_definition __ZSt12regex_searchISt11char_traitsIcESaIcEcNSt7__cxx1112regex_traitsIcEEEbRKNS3_12basic_stringIT1_T_T0_EERKNS3_11basic_regexIS7_T2_EENSt15regex_constants15match_flag_typeE
__ZSt12regex_searchISt11char_traitsIcESaIcEcNSt7__cxx1112regex_traitsIcEEEbRKNS3_12basic_stringIT1_T_T0_EERKNS3_11basic_regexIS7_T2_EENSt15regex_constants15match_flag_typeE:
LFB5496:
	pushq	%rbp
LCFI439:
	movq	%rsp, %rbp
LCFI440:
	pushq	%rbx
	subq	$40, %rsp
LCFI441:
	movq	%rdi, -24(%rbp)
	movq	%rsi, -32(%rbp)
	movl	%edx, -36(%rbp)
	movq	-24(%rbp), %rax
	movq	%rax, %rdi
	call	__ZNKSt7__cxx1112basic_stringIcSt11char_traitsIcESaIcEE3endEv
	movq	%rax, %rbx
	movq	-24(%rbp), %rax
	movq	%rax, %rdi
	call	__ZNKSt7__cxx1112basic_stringIcSt11char_traitsIcESaIcEE5beginEv
	movq	%rax, %rdi
	movl	-36(%rbp), %edx
	movq	-32(%rbp), %rax
	movl	%edx, %ecx
	movq	%rax, %rdx
	movq	%rbx, %rsi
	call	__ZSt12regex_searchIN9__gnu_cxx17__normal_iteratorIPKcNSt7__cxx1112basic_stringIcSt11char_traitsIcESaIcEEEEEcNS4_12regex_traitsIcEEEbT_SD_RKNS4_11basic_regexIT0_T1_EENSt15regex_constants15match_flag_typeE
	addq	$40, %rsp
	popq	%rbx
	popq	%rbp
LCFI442:
	ret
LFE5496:
	.align 1
	.globl __ZNSt12_Vector_baseISt4pairIiPcESaIS2_EE12_Vector_implC1Ev
	.weak_definition __ZNSt12_Vector_baseISt4pairIiPcESaIS2_EE12_Vector_implC1Ev
__ZNSt12_Vector_baseISt4pairIiPcESaIS2_EE12_Vector_implC1Ev:
LFB5499:
	pushq	%rbp
LCFI443:
	movq	%rsp, %rbp
LCFI444:
	subq	$16, %rsp
	movq	%rdi, -8(%rbp)
	movq	-8(%rbp), %rax
	movq	%rax, %rdi
	call	__ZNSaISt4pairIiPcEEC2Ev
	movq	-8(%rbp), %rax
	movq	%rax, %rdi
	call	__ZNSt12_Vector_baseISt4pairIiPcESaIS2_EE17_Vector_impl_dataC2Ev
	nop
	leave
LCFI445:
	ret
LFE5499:
	.align 1
	.globl __ZNSaISt4pairIiPcEED2Ev
	.weak_definition __ZNSaISt4pairIiPcEED2Ev
__ZNSaISt4pairIiPcEED2Ev:
LFB5501:
	pushq	%rbp
LCFI446:
	movq	%rsp, %rbp
LCFI447:
	subq	$16, %rsp
	movq	%rdi, -8(%rbp)
	movq	-8(%rbp), %rax
	movq	%rax, %rdi
	call	__ZN9__gnu_cxx13new_allocatorISt4pairIiPcEED2Ev
	nop
	leave
LCFI448:
	ret
LFE5501:
	.align 1
	.globl __ZNSt12_Vector_baseISt4pairIiPcESaIS2_EED2Ev
	.weak_definition __ZNSt12_Vector_baseISt4pairIiPcESaIS2_EED2Ev
__ZNSt12_Vector_baseISt4pairIiPcESaIS2_EED2Ev:
LFB5504:
	pushq	%rbp
LCFI449:
	movq	%rsp, %rbp
LCFI450:
	subq	$16, %rsp
	movq	%rdi, -8(%rbp)
	movq	-8(%rbp), %rax
	movq	16(%rax), %rdx
	movq	-8(%rbp), %rax
	movq	(%rax), %rax
	subq	%rax, %rdx
	movq	%rdx, %rax
	sarq	$4, %rax
	movq	%rax, %rdx
	movq	-8(%rbp), %rax
	movq	(%rax), %rcx
	movq	-8(%rbp), %rax
	movq	%rcx, %rsi
	movq	%rax, %rdi
	call	__ZNSt12_Vector_baseISt4pairIiPcESaIS2_EE13_M_deallocateEPS2_m
	movq	-8(%rbp), %rax
	movq	%rax, %rdi
	call	__ZNSt12_Vector_baseISt4pairIiPcESaIS2_EE12_Vector_implD1Ev
	nop
	leave
LCFI451:
	ret
LFE5504:
	.section __DATA,__gcc_except_tab
GCC_except_table8:
LLSDA5504:
	.byte	0xff
	.byte	0x3
	.byte	0
	.section __TEXT,__textcoal_nt,coalesced,pure_instructions
	.align 1
	.globl __ZNSt6vectorISt4pairIiPcESaIS2_EED1Ev
	.weak_definition __ZNSt6vectorISt4pairIiPcESaIS2_EED1Ev
__ZNSt6vectorISt4pairIiPcESaIS2_EED1Ev:
LFB5508:
	pushq	%rbp
LCFI452:
	movq	%rsp, %rbp
LCFI453:
	subq	$16, %rsp
	movq	%rdi, -8(%rbp)
	movq	-8(%rbp), %rax
	movq	%rax, %rdi
	call	__ZNSt12_Vector_baseISt4pairIiPcESaIS2_EE19_M_get_Tp_allocatorEv
	movq	%rax, %rdx
	movq	-8(%rbp), %rax
	movq	8(%rax), %rcx
	movq	-8(%rbp), %rax
	movq	(%rax), %rax
	movq	%rcx, %rsi
	movq	%rax, %rdi
	call	__ZSt8_DestroyIPSt4pairIiPcES2_EvT_S4_RSaIT0_E
	movq	-8(%rbp), %rax
	movq	%rax, %rdi
	call	__ZNSt12_Vector_baseISt4pairIiPcESaIS2_EED2Ev
	nop
	leave
LCFI454:
	ret
LFE5508:
	.section __DATA,__gcc_except_tab
GCC_except_table9:
LLSDA5508:
	.byte	0xff
	.byte	0x3
	.byte	0
	.section __TEXT,__textcoal_nt,coalesced,pure_instructions
	.align 1
	.globl __ZNSt12_Vector_baseINSt7__cxx1112basic_stringIcSt11char_traitsIcESaIcEEESaIS5_EE12_Vector_implC1Ev
	.weak_definition __ZNSt12_Vector_baseINSt7__cxx1112basic_stringIcSt11char_traitsIcESaIcEEESaIS5_EE12_Vector_implC1Ev
__ZNSt12_Vector_baseINSt7__cxx1112basic_stringIcSt11char_traitsIcESaIcEEESaIS5_EE12_Vector_implC1Ev:
LFB5512:
	pushq	%rbp
LCFI455:
	movq	%rsp, %rbp
LCFI456:
	subq	$16, %rsp
	movq	%rdi, -8(%rbp)
	movq	-8(%rbp), %rax
	movq	%rax, %rdi
	call	__ZNSaINSt7__cxx1112basic_stringIcSt11char_traitsIcESaIcEEEEC2Ev
	movq	-8(%rbp), %rax
	movq	%rax, %rdi
	call	__ZNSt12_Vector_baseINSt7__cxx1112basic_stringIcSt11char_traitsIcESaIcEEESaIS5_EE17_Vector_impl_dataC2Ev
	nop
	leave
LCFI457:
	ret
LFE5512:
	.align 1
	.globl __ZNSaINSt7__cxx1112basic_stringIcSt11char_traitsIcESaIcEEEED2Ev
	.weak_definition __ZNSaINSt7__cxx1112basic_stringIcSt11char_traitsIcESaIcEEEED2Ev
__ZNSaINSt7__cxx1112basic_stringIcSt11char_traitsIcESaIcEEEED2Ev:
LFB5514:
	pushq	%rbp
LCFI458:
	movq	%rsp, %rbp
LCFI459:
	subq	$16, %rsp
	movq	%rdi, -8(%rbp)
	movq	-8(%rbp), %rax
	movq	%rax, %rdi
	call	__ZN9__gnu_cxx13new_allocatorINSt7__cxx1112basic_stringIcSt11char_traitsIcESaIcEEEED2Ev
	nop
	leave
LCFI460:
	ret
LFE5514:
	.align 1
	.globl __ZNSaINSt7__cxx1112basic_stringIcSt11char_traitsIcESaIcEEEED1Ev
	.weak_definition __ZNSaINSt7__cxx1112basic_stringIcSt11char_traitsIcESaIcEEEED1Ev
__ZNSaINSt7__cxx1112basic_stringIcSt11char_traitsIcESaIcEEEED1Ev:
LFB5515:
	pushq	%rbp
LCFI461:
	movq	%rsp, %rbp
LCFI462:
	subq	$16, %rsp
	movq	%rdi, -8(%rbp)
	movq	-8(%rbp), %rax
	movq	%rax, %rdi
	call	__ZN9__gnu_cxx13new_allocatorINSt7__cxx1112basic_stringIcSt11char_traitsIcESaIcEEEED2Ev
	nop
	leave
LCFI463:
	ret
LFE5515:
	.align 1
	.globl __ZNSt12_Vector_baseINSt7__cxx1112basic_stringIcSt11char_traitsIcESaIcEEESaIS5_EED2Ev
	.weak_definition __ZNSt12_Vector_baseINSt7__cxx1112basic_stringIcSt11char_traitsIcESaIcEEESaIS5_EED2Ev
__ZNSt12_Vector_baseINSt7__cxx1112basic_stringIcSt11char_traitsIcESaIcEEESaIS5_EED2Ev:
LFB5517:
	pushq	%rbp
LCFI464:
	movq	%rsp, %rbp
LCFI465:
	subq	$16, %rsp
	movq	%rdi, -8(%rbp)
	movq	-8(%rbp), %rax
	movq	16(%rax), %rdx
	movq	-8(%rbp), %rax
	movq	(%rax), %rax
	subq	%rax, %rdx
	movq	%rdx, %rax
	sarq	$5, %rax
	movq	%rax, %rdx
	movq	-8(%rbp), %rax
	movq	(%rax), %rcx
	movq	-8(%rbp), %rax
	movq	%rcx, %rsi
	movq	%rax, %rdi
	call	__ZNSt12_Vector_baseINSt7__cxx1112basic_stringIcSt11char_traitsIcESaIcEEESaIS5_EE13_M_deallocateEPS5_m
	movq	-8(%rbp), %rax
	movq	%rax, %rdi
	call	__ZNSt12_Vector_baseINSt7__cxx1112basic_stringIcSt11char_traitsIcESaIcEEESaIS5_EE12_Vector_implD1Ev
	nop
	leave
LCFI466:
	ret
LFE5517:
	.section __DATA,__gcc_except_tab
GCC_except_table10:
LLSDA5517:
	.byte	0xff
	.byte	0x3
	.byte	0
	.section __TEXT,__textcoal_nt,coalesced,pure_instructions
	.align 1
	.globl __ZNSt6vectorINSt7__cxx1112basic_stringIcSt11char_traitsIcESaIcEEESaIS5_EED1Ev
	.weak_definition __ZNSt6vectorINSt7__cxx1112basic_stringIcSt11char_traitsIcESaIcEEESaIS5_EED1Ev
__ZNSt6vectorINSt7__cxx1112basic_stringIcSt11char_traitsIcESaIcEEESaIS5_EED1Ev:
LFB5521:
	pushq	%rbp
LCFI467:
	movq	%rsp, %rbp
LCFI468:
	subq	$16, %rsp
	movq	%rdi, -8(%rbp)
	movq	-8(%rbp), %rax
	movq	%rax, %rdi
	call	__ZNSt12_Vector_baseINSt7__cxx1112basic_stringIcSt11char_traitsIcESaIcEEESaIS5_EE19_M_get_Tp_allocatorEv
	movq	%rax, %rdx
	movq	-8(%rbp), %rax
	movq	8(%rax), %rcx
	movq	-8(%rbp), %rax
	movq	(%rax), %rax
	movq	%rcx, %rsi
	movq	%rax, %rdi
	call	__ZSt8_DestroyIPNSt7__cxx1112basic_stringIcSt11char_traitsIcESaIcEEES5_EvT_S7_RSaIT0_E
	movq	-8(%rbp), %rax
	movq	%rax, %rdi
	call	__ZNSt12_Vector_baseINSt7__cxx1112basic_stringIcSt11char_traitsIcESaIcEEESaIS5_EED2Ev
	nop
	leave
LCFI469:
	ret
LFE5521:
	.section __DATA,__gcc_except_tab
GCC_except_table11:
LLSDA5521:
	.byte	0xff
	.byte	0x3
	.byte	0
	.section __TEXT,__textcoal_nt,coalesced,pure_instructions
	.align 1
	.globl __ZNSt6vectorINSt7__cxx1112basic_stringIcSt11char_traitsIcESaIcEEESaIS5_EE9push_backERKS5_
	.weak_definition __ZNSt6vectorINSt7__cxx1112basic_stringIcSt11char_traitsIcESaIcEEESaIS5_EE9push_backERKS5_
__ZNSt6vectorINSt7__cxx1112basic_stringIcSt11char_traitsIcESaIcEEESaIS5_EE9push_backERKS5_:
LFB5522:
	pushq	%rbp
LCFI470:
	movq	%rsp, %rbp
LCFI471:
	subq	$16, %rsp
	movq	%rdi, -8(%rbp)
	movq	%rsi, -16(%rbp)
	movq	-8(%rbp), %rax
	movq	8(%rax), %rdx
	movq	-8(%rbp), %rax
	movq	16(%rax), %rax
	cmpq	%rax, %rdx
	je	L348
	movq	-8(%rbp), %rax
	movq	8(%rax), %rcx
	movq	-8(%rbp), %rax
	movq	-16(%rbp), %rdx
	movq	%rcx, %rsi
	movq	%rax, %rdi
	call	__ZNSt16allocator_traitsISaINSt7__cxx1112basic_stringIcSt11char_traitsIcESaIcEEEEE9constructIS5_JRKS5_EEEvRS6_PT_DpOT0_
	movq	-8(%rbp), %rax
	movq	8(%rax), %rax
	leaq	32(%rax), %rdx
	movq	-8(%rbp), %rax
	movq	%rdx, 8(%rax)
	jmp	L350
L348:
	movq	-8(%rbp), %rax
	movq	%rax, %rdi
	call	__ZNSt6vectorINSt7__cxx1112basic_stringIcSt11char_traitsIcESaIcEEESaIS5_EE3endEv
	movq	%rax, %rcx
	movq	-16(%rbp), %rdx
	movq	-8(%rbp), %rax
	movq	%rcx, %rsi
	movq	%rax, %rdi
	call	__ZNSt6vectorINSt7__cxx1112basic_stringIcSt11char_traitsIcESaIcEEESaIS5_EE17_M_realloc_insertIJRKS5_EEEvN9__gnu_cxx17__normal_iteratorIPS5_S7_EEDpOT_
L350:
	nop
	leave
LCFI472:
	ret
LFE5522:
	.align 1
	.globl __ZNSt6vectorINSt7__cxx1112basic_stringIcSt11char_traitsIcESaIcEEESaIS5_EE9push_backEOS5_
	.weak_definition __ZNSt6vectorINSt7__cxx1112basic_stringIcSt11char_traitsIcESaIcEEESaIS5_EE9push_backEOS5_
__ZNSt6vectorINSt7__cxx1112basic_stringIcSt11char_traitsIcESaIcEEESaIS5_EE9push_backEOS5_:
LFB5523:
	pushq	%rbp
LCFI473:
	movq	%rsp, %rbp
LCFI474:
	subq	$16, %rsp
	movq	%rdi, -8(%rbp)
	movq	%rsi, -16(%rbp)
	movq	-16(%rbp), %rax
	movq	%rax, %rdi
	call	__ZSt4moveIRNSt7__cxx1112basic_stringIcSt11char_traitsIcESaIcEEEEONSt16remove_referenceIT_E4typeEOS8_
	movq	%rax, %rdx
	movq	-8(%rbp), %rax
	movq	%rdx, %rsi
	movq	%rax, %rdi
	call	__ZNSt6vectorINSt7__cxx1112basic_stringIcSt11char_traitsIcESaIcEEESaIS5_EE12emplace_backIJS5_EEEvDpOT_
	nop
	leave
LCFI475:
	ret
LFE5523:
	.align 1
	.globl __ZNKSt6vectorINSt7__cxx1112basic_stringIcSt11char_traitsIcESaIcEEESaIS5_EE4sizeEv
	.weak_definition __ZNKSt6vectorINSt7__cxx1112basic_stringIcSt11char_traitsIcESaIcEEESaIS5_EE4sizeEv
__ZNKSt6vectorINSt7__cxx1112basic_stringIcSt11char_traitsIcESaIcEEESaIS5_EE4sizeEv:
LFB5524:
	pushq	%rbp
LCFI476:
	movq	%rsp, %rbp
LCFI477:
	movq	%rdi, -8(%rbp)
	movq	-8(%rbp), %rax
	movq	8(%rax), %rdx
	movq	-8(%rbp), %rax
	movq	(%rax), %rax
	subq	%rax, %rdx
	movq	%rdx, %rax
	sarq	$5, %rax
	popq	%rbp
LCFI478:
	ret
LFE5524:
	.align 1
	.globl __ZNSt6vectorINSt7__cxx1112basic_stringIcSt11char_traitsIcESaIcEEESaIS5_EE5beginEv
	.weak_definition __ZNSt6vectorINSt7__cxx1112basic_stringIcSt11char_traitsIcESaIcEEESaIS5_EE5beginEv
__ZNSt6vectorINSt7__cxx1112basic_stringIcSt11char_traitsIcESaIcEEESaIS5_EE5beginEv:
LFB5536:
	pushq	%rbp
LCFI479:
	movq	%rsp, %rbp
LCFI480:
	subq	$32, %rsp
	movq	%rdi, -24(%rbp)
	movq	-24(%rbp), %rdx
	leaq	-8(%rbp), %rax
	movq	%rdx, %rsi
	movq	%rax, %rdi
	call	__ZN9__gnu_cxx17__normal_iteratorIPNSt7__cxx1112basic_stringIcSt11char_traitsIcESaIcEEESt6vectorIS6_SaIS6_EEEC1ERKS7_
	movq	-8(%rbp), %rax
	leave
LCFI481:
	ret
LFE5536:
	.align 1
	.globl __ZN9__gnu_cxx17__normal_iteratorIPKNSt7__cxx1112basic_stringIcSt11char_traitsIcESaIcEEESt6vectorIS6_SaIS6_EEEC1IPS6_EERKNS0_IT_NS_11__enable_ifIXsrSt10__are_sameISF_SE_E7__valueESB_E6__typeEEE
	.weak_definition __ZN9__gnu_cxx17__normal_iteratorIPKNSt7__cxx1112basic_stringIcSt11char_traitsIcESaIcEEESt6vectorIS6_SaIS6_EEEC1IPS6_EERKNS0_IT_NS_11__enable_ifIXsrSt10__are_sameISF_SE_E7__valueESB_E6__typeEEE
__ZN9__gnu_cxx17__normal_iteratorIPKNSt7__cxx1112basic_stringIcSt11char_traitsIcESaIcEEESt6vectorIS6_SaIS6_EEEC1IPS6_EERKNS0_IT_NS_11__enable_ifIXsrSt10__are_sameISF_SE_E7__valueESB_E6__typeEEE:
LFB5539:
	pushq	%rbp
LCFI482:
	movq	%rsp, %rbp
LCFI483:
	subq	$16, %rsp
	movq	%rdi, -8(%rbp)
	movq	%rsi, -16(%rbp)
	movq	-16(%rbp), %rax
	movq	%rax, %rdi
	call	__ZNK9__gnu_cxx17__normal_iteratorIPNSt7__cxx1112basic_stringIcSt11char_traitsIcESaIcEEESt6vectorIS6_SaIS6_EEE4baseEv
	movq	(%rax), %rdx
	movq	-8(%rbp), %rax
	movq	%rdx, (%rax)
	nop
	leave
LCFI484:
	ret
LFE5539:
	.align 1
	.globl __ZNSt6vectorINSt7__cxx1112basic_stringIcSt11char_traitsIcESaIcEEESaIS5_EE3endEv
	.weak_definition __ZNSt6vectorINSt7__cxx1112basic_stringIcSt11char_traitsIcESaIcEEESaIS5_EE3endEv
__ZNSt6vectorINSt7__cxx1112basic_stringIcSt11char_traitsIcESaIcEEESaIS5_EE3endEv:
LFB5540:
	pushq	%rbp
LCFI485:
	movq	%rsp, %rbp
LCFI486:
	subq	$32, %rsp
	movq	%rdi, -24(%rbp)
	movq	-24(%rbp), %rax
	leaq	8(%rax), %rdx
	leaq	-8(%rbp), %rax
	movq	%rdx, %rsi
	movq	%rax, %rdi
	call	__ZN9__gnu_cxx17__normal_iteratorIPNSt7__cxx1112basic_stringIcSt11char_traitsIcESaIcEEESt6vectorIS6_SaIS6_EEEC1ERKS7_
	movq	-8(%rbp), %rax
	leave
LCFI487:
	ret
LFE5540:
	.globl __ZN9__gnu_cxxneIPKNSt7__cxx1112basic_stringIcSt11char_traitsIcESaIcEEEPS6_St6vectorIS6_SaIS6_EEEEbRKNS_17__normal_iteratorIT_T1_EERKNSD_IT0_SF_EE
	.weak_definition __ZN9__gnu_cxxneIPKNSt7__cxx1112basic_stringIcSt11char_traitsIcESaIcEEEPS6_St6vectorIS6_SaIS6_EEEEbRKNS_17__normal_iteratorIT_T1_EERKNSD_IT0_SF_EE
__ZN9__gnu_cxxneIPKNSt7__cxx1112basic_stringIcSt11char_traitsIcESaIcEEEPS6_St6vectorIS6_SaIS6_EEEEbRKNS_17__normal_iteratorIT_T1_EERKNSD_IT0_SF_EE:
LFB5541:
	pushq	%rbp
LCFI488:
	movq	%rsp, %rbp
LCFI489:
	pushq	%rbx
	subq	$24, %rsp
LCFI490:
	movq	%rdi, -24(%rbp)
	movq	%rsi, -32(%rbp)
	movq	-24(%rbp), %rax
	movq	%rax, %rdi
	call	__ZNK9__gnu_cxx17__normal_iteratorIPKNSt7__cxx1112basic_stringIcSt11char_traitsIcESaIcEEESt6vectorIS6_SaIS6_EEE4baseEv
	movq	(%rax), %rbx
	movq	-32(%rbp), %rax
	movq	%rax, %rdi
	call	__ZNK9__gnu_cxx17__normal_iteratorIPNSt7__cxx1112basic_stringIcSt11char_traitsIcESaIcEEESt6vectorIS6_SaIS6_EEE4baseEv
	movq	(%rax), %rax
	cmpq	%rax, %rbx
	setne	%al
	addq	$24, %rsp
	popq	%rbx
	popq	%rbp
LCFI491:
	ret
LFE5541:
	.align 1
	.globl __ZN9__gnu_cxx17__normal_iteratorIPKNSt7__cxx1112basic_stringIcSt11char_traitsIcESaIcEEESt6vectorIS6_SaIS6_EEEppEv
	.weak_definition __ZN9__gnu_cxx17__normal_iteratorIPKNSt7__cxx1112basic_stringIcSt11char_traitsIcESaIcEEESt6vectorIS6_SaIS6_EEEppEv
__ZN9__gnu_cxx17__normal_iteratorIPKNSt7__cxx1112basic_stringIcSt11char_traitsIcESaIcEEESt6vectorIS6_SaIS6_EEEppEv:
LFB5542:
	pushq	%rbp
LCFI492:
	movq	%rsp, %rbp
LCFI493:
	movq	%rdi, -8(%rbp)
	movq	-8(%rbp), %rax
	movq	(%rax), %rax
	leaq	32(%rax), %rdx
	movq	-8(%rbp), %rax
	movq	%rdx, (%rax)
	movq	-8(%rbp), %rax
	popq	%rbp
LCFI494:
	ret
LFE5542:
	.align 1
	.globl __ZNK9__gnu_cxx17__normal_iteratorIPKNSt7__cxx1112basic_stringIcSt11char_traitsIcESaIcEEESt6vectorIS6_SaIS6_EEEplEl
	.weak_definition __ZNK9__gnu_cxx17__normal_iteratorIPKNSt7__cxx1112basic_stringIcSt11char_traitsIcESaIcEEESt6vectorIS6_SaIS6_EEEplEl
__ZNK9__gnu_cxx17__normal_iteratorIPKNSt7__cxx1112basic_stringIcSt11char_traitsIcESaIcEEESt6vectorIS6_SaIS6_EEEplEl:
LFB5543:
	pushq	%rbp
LCFI495:
	movq	%rsp, %rbp
LCFI496:
	subq	$32, %rsp
	movq	%rdi, -24(%rbp)
	movq	%rsi, -32(%rbp)
	movq	-24(%rbp), %rax
	movq	(%rax), %rdx
	movq	-32(%rbp), %rax
	salq	$5, %rax
	addq	%rdx, %rax
	movq	%rax, -8(%rbp)
	leaq	-8(%rbp), %rdx
	leaq	-16(%rbp), %rax
	movq	%rdx, %rsi
	movq	%rax, %rdi
	call	__ZN9__gnu_cxx17__normal_iteratorIPKNSt7__cxx1112basic_stringIcSt11char_traitsIcESaIcEEESt6vectorIS6_SaIS6_EEEC1ERKS8_
	movq	-16(%rbp), %rax
	leave
LCFI497:
	ret
LFE5543:
	.align 1
	.globl __ZN4test7printerINSt7__cxx1112basic_stringIcSt11char_traitsIcESaIcEEEEC1ERNS1_19basic_ostringstreamIcS4_S5_EE
	.weak_definition __ZN4test7printerINSt7__cxx1112basic_stringIcSt11char_traitsIcESaIcEEEEC1ERNS1_19basic_ostringstreamIcS4_S5_EE
__ZN4test7printerINSt7__cxx1112basic_stringIcSt11char_traitsIcESaIcEEEEC1ERNS1_19basic_ostringstreamIcS4_S5_EE:
LFB5548:
	pushq	%rbp
LCFI498:
	movq	%rsp, %rbp
LCFI499:
	movq	%rdi, -8(%rbp)
	movq	%rsi, -16(%rbp)
	movq	-8(%rbp), %rax
	movq	-16(%rbp), %rdx
	movq	%rdx, (%rax)
	nop
	popq	%rbp
LCFI500:
	ret
LFE5548:
	.globl __ZSt8for_eachIN9__gnu_cxx17__normal_iteratorIPNSt7__cxx1112basic_stringIcSt11char_traitsIcESaIcEEESt6vectorIS7_SaIS7_EEEEN4test7printerIS7_EEET0_T_SH_SG_
	.weak_definition __ZSt8for_eachIN9__gnu_cxx17__normal_iteratorIPNSt7__cxx1112basic_stringIcSt11char_traitsIcESaIcEEESt6vectorIS7_SaIS7_EEEEN4test7printerIS7_EEET0_T_SH_SG_
__ZSt8for_eachIN9__gnu_cxx17__normal_iteratorIPNSt7__cxx1112basic_stringIcSt11char_traitsIcESaIcEEESt6vectorIS7_SaIS7_EEEEN4test7printerIS7_EEET0_T_SH_SG_:
LFB5549:
	pushq	%rbp
LCFI501:
	movq	%rsp, %rbp
LCFI502:
	pushq	%rbx
	subq	$72, %rsp
LCFI503:
	movq	%rdi, -56(%rbp)
	movq	%rsi, -64(%rbp)
	movq	%rdx, -72(%rbp)
L368:
	leaq	-64(%rbp), %rdx
	leaq	-56(%rbp), %rax
	movq	%rdx, %rsi
	movq	%rax, %rdi
	call	__ZN9__gnu_cxxneIPNSt7__cxx1112basic_stringIcSt11char_traitsIcESaIcEEESt6vectorIS6_SaIS6_EEEEbRKNS_17__normal_iteratorIT_T0_EESG_
	testb	%al, %al
	je	L367
	leaq	-56(%rbp), %rax
	movq	%rax, %rdi
	call	__ZNK9__gnu_cxx17__normal_iteratorIPNSt7__cxx1112basic_stringIcSt11char_traitsIcESaIcEEESt6vectorIS6_SaIS6_EEEdeEv
	movq	%rax, %rdx
	leaq	-48(%rbp), %rax
	movq	%rdx, %rsi
	movq	%rax, %rdi
LEHB37:
	call	__ZNSt7__cxx1112basic_stringIcSt11char_traitsIcESaIcEEC1ERKS4_
LEHE37:
	leaq	-48(%rbp), %rdx
	leaq	-72(%rbp), %rax
	movq	%rdx, %rsi
	movq	%rax, %rdi
LEHB38:
	call	__ZN4test7printerINSt7__cxx1112basic_stringIcSt11char_traitsIcESaIcEEEEclES6_
LEHE38:
	leaq	-48(%rbp), %rax
	movq	%rax, %rdi
	call	__ZNSt7__cxx1112basic_stringIcSt11char_traitsIcESaIcEED1Ev
	leaq	-56(%rbp), %rax
	movq	%rax, %rdi
	call	__ZN9__gnu_cxx17__normal_iteratorIPNSt7__cxx1112basic_stringIcSt11char_traitsIcESaIcEEESt6vectorIS6_SaIS6_EEEppEv
	jmp	L368
L367:
	movq	-72(%rbp), %rax
	jmp	L372
L371:
	movq	%rax, %rbx
	leaq	-48(%rbp), %rax
	movq	%rax, %rdi
	call	__ZNSt7__cxx1112basic_stringIcSt11char_traitsIcESaIcEED1Ev
	movq	%rbx, %rax
	movq	%rax, %rdi
LEHB39:
	call	__Unwind_Resume
LEHE39:
L372:
	addq	$72, %rsp
	popq	%rbx
	popq	%rbp
LCFI504:
	ret
LFE5549:
	.section __DATA,__gcc_except_tab
GCC_except_table12:
LLSDA5549:
	.byte	0xff
	.byte	0x3
	.byte	0x27
	.set L$set$104,LEHB37-LFB5549
	.long L$set$104
	.set L$set$105,LEHE37-LEHB37
	.long L$set$105
	.long	0
	.byte	0
	.set L$set$106,LEHB38-LFB5549
	.long L$set$106
	.set L$set$107,LEHE38-LEHB38
	.long L$set$107
	.set L$set$108,L371-LFB5549
	.long L$set$108
	.byte	0
	.set L$set$109,LEHB39-LFB5549
	.long L$set$109
	.set L$set$110,LEHE39-LEHB39
	.long L$set$110
	.long	0
	.byte	0
	.section __TEXT,__textcoal_nt,coalesced,pure_instructions
	.align 1
	.globl __ZNSt8_Rb_treeINSt7__cxx1112basic_stringIcSt11char_traitsIcESaIcEEESt4pairIKS5_S6_IibEESt10_Select1stIS9_ESt4lessIS5_ESaIS9_EE13_Rb_tree_implISD_Lb1EEC1Ev
	.weak_definition __ZNSt8_Rb_treeINSt7__cxx1112basic_stringIcSt11char_traitsIcESaIcEEESt4pairIKS5_S6_IibEESt10_Select1stIS9_ESt4lessIS5_ESaIS9_EE13_Rb_tree_implISD_Lb1EEC1Ev
__ZNSt8_Rb_treeINSt7__cxx1112basic_stringIcSt11char_traitsIcESaIcEEESt4pairIKS5_S6_IibEESt10_Select1stIS9_ESt4lessIS5_ESaIS9_EE13_Rb_tree_implISD_Lb1EEC1Ev:
LFB5553:
	pushq	%rbp
LCFI505:
	movq	%rsp, %rbp
LCFI506:
	subq	$16, %rsp
	movq	%rdi, -8(%rbp)
	movq	-8(%rbp), %rax
	movq	%rax, %rdi
	call	__ZNSaISt13_Rb_tree_nodeISt4pairIKNSt7__cxx1112basic_stringIcSt11char_traitsIcESaIcEEES0_IibEEEEC2Ev
	movq	-8(%rbp), %rax
	movq	%rax, %rdi
	call	__ZNSt20_Rb_tree_key_compareISt4lessINSt7__cxx1112basic_stringIcSt11char_traitsIcESaIcEEEEEC2Ev
	movq	-8(%rbp), %rax
	addq	$8, %rax
	movq	%rax, %rdi
	call	__ZNSt15_Rb_tree_headerC2Ev
	nop
	leave
LCFI507:
	ret
LFE5553:
	.align 1
	.globl __ZNSaISt13_Rb_tree_nodeISt4pairIKNSt7__cxx1112basic_stringIcSt11char_traitsIcESaIcEEES0_IibEEEED2Ev
	.weak_definition __ZNSaISt13_Rb_tree_nodeISt4pairIKNSt7__cxx1112basic_stringIcSt11char_traitsIcESaIcEEES0_IibEEEED2Ev
__ZNSaISt13_Rb_tree_nodeISt4pairIKNSt7__cxx1112basic_stringIcSt11char_traitsIcESaIcEEES0_IibEEEED2Ev:
LFB5555:
	pushq	%rbp
LCFI508:
	movq	%rsp, %rbp
LCFI509:
	subq	$16, %rsp
	movq	%rdi, -8(%rbp)
	movq	-8(%rbp), %rax
	movq	%rax, %rdi
	call	__ZN9__gnu_cxx13new_allocatorISt13_Rb_tree_nodeISt4pairIKNSt7__cxx1112basic_stringIcSt11char_traitsIcESaIcEEES2_IibEEEED2Ev
	nop
	leave
LCFI510:
	ret
LFE5555:
	.align 1
	.globl __ZNKSt17integral_constantIbLb1EEcvbEv
	.weak_definition __ZNKSt17integral_constantIbLb1EEcvbEv
__ZNKSt17integral_constantIbLb1EEcvbEv:
LFB5558:
	pushq	%rbp
LCFI511:
	movq	%rsp, %rbp
LCFI512:
	movq	%rdi, -8(%rbp)
	movl	$1, %eax
	popq	%rbp
LCFI513:
	ret
LFE5558:
	.align 1
	.globl __ZNSt8_Rb_treeINSt7__cxx1112basic_stringIcSt11char_traitsIcESaIcEEESt4pairIKS5_S6_IibEESt10_Select1stIS9_ESt4lessIS5_ESaIS9_EED1Ev
	.weak_definition __ZNSt8_Rb_treeINSt7__cxx1112basic_stringIcSt11char_traitsIcESaIcEEESt4pairIKS5_S6_IibEESt10_Select1stIS9_ESt4lessIS5_ESaIS9_EED1Ev
__ZNSt8_Rb_treeINSt7__cxx1112basic_stringIcSt11char_traitsIcESaIcEEESt4pairIKS5_S6_IibEESt10_Select1stIS9_ESt4lessIS5_ESaIS9_EED1Ev:
LFB5560:
	pushq	%rbp
LCFI514:
	movq	%rsp, %rbp
LCFI515:
	subq	$16, %rsp
	movq	%rdi, -8(%rbp)
	movq	-8(%rbp), %rax
	movq	%rax, %rdi
	call	__ZNSt8_Rb_treeINSt7__cxx1112basic_stringIcSt11char_traitsIcESaIcEEESt4pairIKS5_S6_IibEESt10_Select1stIS9_ESt4lessIS5_ESaIS9_EE8_M_beginEv
	movq	%rax, %rdx
	movq	-8(%rbp), %rax
	movq	%rdx, %rsi
	movq	%rax, %rdi
	call	__ZNSt8_Rb_treeINSt7__cxx1112basic_stringIcSt11char_traitsIcESaIcEEESt4pairIKS5_S6_IibEESt10_Select1stIS9_ESt4lessIS5_ESaIS9_EE8_M_eraseEPSt13_Rb_tree_nodeIS9_E
	movq	-8(%rbp), %rax
	movq	%rax, %rdi
	call	__ZNSt8_Rb_treeINSt7__cxx1112basic_stringIcSt11char_traitsIcESaIcEEESt4pairIKS5_S6_IibEESt10_Select1stIS9_ESt4lessIS5_ESaIS9_EE13_Rb_tree_implISD_Lb1EED1Ev
	nop
	leave
LCFI516:
	ret
LFE5560:
	.section __DATA,__gcc_except_tab
GCC_except_table13:
LLSDA5560:
	.byte	0xff
	.byte	0x3
	.byte	0
	.section __TEXT,__textcoal_nt,coalesced,pure_instructions
	.globl __ZSt9make_pairIibESt4pairINSt17__decay_and_stripIT_E6__typeENS1_IT0_E6__typeEEOS2_OS5_
	.weak_definition __ZSt9make_pairIibESt4pairINSt17__decay_and_stripIT_E6__typeENS1_IT0_E6__typeEEOS2_OS5_
__ZSt9make_pairIibESt4pairINSt17__decay_and_stripIT_E6__typeENS1_IT0_E6__typeEEOS2_OS5_:
LFB5561:
	pushq	%rbp
LCFI517:
	movq	%rsp, %rbp
LCFI518:
	pushq	%rbx
	subq	$40, %rsp
LCFI519:
	movq	%rdi, -40(%rbp)
	movq	%rsi, -48(%rbp)
	movq	-48(%rbp), %rax
	movq	%rax, %rdi
	call	__ZSt7forwardIbEOT_RNSt16remove_referenceIS0_E4typeE
	movq	%rax, %rbx
	movq	-40(%rbp), %rax
	movq	%rax, %rdi
	call	__ZSt7forwardIiEOT_RNSt16remove_referenceIS0_E4typeE
	movq	%rax, %rcx
	leaq	-24(%rbp), %rax
	movq	%rbx, %rdx
	movq	%rcx, %rsi
	movq	%rax, %rdi
	call	__ZNSt4pairIibEC1IibLb1EEEOT_OT0_
	movq	-24(%rbp), %rax
	addq	$40, %rsp
	popq	%rbx
	popq	%rbp
LCFI520:
	ret
LFE5561:
	.globl __ZSt9make_pairINSt7__cxx1112basic_stringIcSt11char_traitsIcESaIcEEESt4pairIibEES6_INSt17__decay_and_stripIT_E6__typeENS8_IT0_E6__typeEEOS9_OSC_
	.weak_definition __ZSt9make_pairINSt7__cxx1112basic_stringIcSt11char_traitsIcESaIcEEESt4pairIibEES6_INSt17__decay_and_stripIT_E6__typeENS8_IT0_E6__typeEEOS9_OSC_
__ZSt9make_pairINSt7__cxx1112basic_stringIcSt11char_traitsIcESaIcEEESt4pairIibEES6_INSt17__decay_and_stripIT_E6__typeENS8_IT0_E6__typeEEOS9_OSC_:
LFB5570:
	pushq	%rbp
LCFI521:
	movq	%rsp, %rbp
LCFI522:
	pushq	%rbx
	subq	$40, %rsp
LCFI523:
	movq	%rdi, -24(%rbp)
	movq	%rsi, -32(%rbp)
	movq	%rdx, -40(%rbp)
	movq	-40(%rbp), %rax
	movq	%rax, %rdi
	call	__ZSt7forwardISt4pairIibEEOT_RNSt16remove_referenceIS2_E4typeE
	movq	%rax, %rbx
	movq	-32(%rbp), %rax
	movq	%rax, %rdi
	call	__ZSt7forwardINSt7__cxx1112basic_stringIcSt11char_traitsIcESaIcEEEEOT_RNSt16remove_referenceIS6_E4typeE
	movq	%rax, %rcx
	movq	-24(%rbp), %rax
	movq	%rbx, %rdx
	movq	%rcx, %rsi
	movq	%rax, %rdi
	call	__ZNSt4pairINSt7__cxx1112basic_stringIcSt11char_traitsIcESaIcEEES_IibEEC1IS5_S6_Lb1EEEOT_OT0_
	movq	-24(%rbp), %rax
	addq	$40, %rsp
	popq	%rbx
	popq	%rbp
LCFI524:
	ret
LFE5570:
	.align 1
	.globl __ZNSt3mapINSt7__cxx1112basic_stringIcSt11char_traitsIcESaIcEEESt4pairIibESt4lessIS5_ESaIS6_IKS5_S7_EEE6insertIS6_IS5_S7_EEENSt9enable_ifIXsrSt16is_constructibleISB_JT_EE5valueES6_ISt17_Rb_tree_iteratorISB_EbEE4typeEOSI_
	.weak_definition __ZNSt3mapINSt7__cxx1112basic_stringIcSt11char_traitsIcESaIcEEESt4pairIibESt4lessIS5_ESaIS6_IKS5_S7_EEE6insertIS6_IS5_S7_EEENSt9enable_ifIXsrSt16is_constructibleISB_JT_EE5valueES6_ISt17_Rb_tree_iteratorISB_EbEE4typeEOSI_
__ZNSt3mapINSt7__cxx1112basic_stringIcSt11char_traitsIcESaIcEEESt4pairIibESt4lessIS5_ESaIS6_IKS5_S7_EEE6insertIS6_IS5_S7_EEENSt9enable_ifIXsrSt16is_constructibleISB_JT_EE5valueES6_ISt17_Rb_tree_iteratorISB_EbEE4typeEOSI_:
LFB5586:
	pushq	%rbp
LCFI525:
	movq	%rsp, %rbp
LCFI526:
	pushq	%rbx
	subq	$24, %rsp
LCFI527:
	movq	%rdi, -24(%rbp)
	movq	%rsi, -32(%rbp)
	movq	-24(%rbp), %rbx
	movq	-32(%rbp), %rax
	movq	%rax, %rdi
	call	__ZSt7forwardISt4pairINSt7__cxx1112basic_stringIcSt11char_traitsIcESaIcEEES0_IibEEEOT_RNSt16remove_referenceIS9_E4typeE
	movq	%rax, %rsi
	movq	%rbx, %rdi
	call	__ZNSt8_Rb_treeINSt7__cxx1112basic_stringIcSt11char_traitsIcESaIcEEESt4pairIKS5_S6_IibEESt10_Select1stIS9_ESt4lessIS5_ESaIS9_EE17_M_emplace_uniqueIJS6_IS5_S8_EEEES6_ISt17_Rb_tree_iteratorIS9_EbEDpOT_
	addq	$24, %rsp
	popq	%rbx
	popq	%rbp
LCFI528:
	ret
LFE5586:
	.align 1
	.globl __ZNSt8_Rb_treeIiiSt9_IdentityIiESt4lessIiESaIiEE13_Rb_tree_implIS3_Lb1EED1Ev
	.weak_definition __ZNSt8_Rb_treeIiiSt9_IdentityIiESt4lessIiESaIiEE13_Rb_tree_implIS3_Lb1EED1Ev
__ZNSt8_Rb_treeIiiSt9_IdentityIiESt4lessIiESaIiEE13_Rb_tree_implIS3_Lb1EED1Ev:
LFB5595:
	pushq	%rbp
LCFI529:
	movq	%rsp, %rbp
LCFI530:
	subq	$16, %rsp
	movq	%rdi, -8(%rbp)
	movq	-8(%rbp), %rax
	movq	%rax, %rdi
	call	__ZNSaISt13_Rb_tree_nodeIiEED2Ev
	nop
	leave
LCFI531:
	ret
LFE5595:
	.align 1
	.globl __ZNSt8_Rb_treeIiiSt9_IdentityIiESt4lessIiESaIiEEC1Ev
	.weak_definition __ZNSt8_Rb_treeIiiSt9_IdentityIiESt4lessIiESaIiEEC1Ev
__ZNSt8_Rb_treeIiiSt9_IdentityIiESt4lessIiESaIiEEC1Ev:
LFB5597:
	pushq	%rbp
LCFI532:
	movq	%rsp, %rbp
LCFI533:
	subq	$16, %rsp
	movq	%rdi, -8(%rbp)
	movq	-8(%rbp), %rax
	movq	%rax, %rdi
	call	__ZNSt8_Rb_treeIiiSt9_IdentityIiESt4lessIiESaIiEE13_Rb_tree_implIS3_Lb1EEC1Ev
	nop
	leave
LCFI534:
	ret
LFE5597:
	.align 1
	.globl __ZNSt3setIiSt4lessIiESaIiEEC1IPiEET_S6_
	.weak_definition __ZNSt3setIiSt4lessIiESaIiEEC1IPiEET_S6_
__ZNSt3setIiSt4lessIiESaIiEEC1IPiEET_S6_:
LFB5599:
	pushq	%rbp
LCFI535:
	movq	%rsp, %rbp
LCFI536:
	pushq	%rbx
	subq	$40, %rsp
LCFI537:
	movq	%rdi, -24(%rbp)
	movq	%rsi, -32(%rbp)
	movq	%rdx, -40(%rbp)
	movq	-24(%rbp), %rax
	movl	$0, 8(%rax)
	movq	-24(%rbp), %rax
	movq	$0, 16(%rax)
	movq	-24(%rbp), %rax
	movq	$0, 24(%rax)
	movq	-24(%rbp), %rax
	movq	$0, 32(%rax)
	movq	-24(%rbp), %rax
	movq	$0, 40(%rax)
	movq	-24(%rbp), %rax
	movq	%rax, %rdi
	call	__ZNSt8_Rb_treeIiiSt9_IdentityIiESt4lessIiESaIiEEC1Ev
	movq	-24(%rbp), %rax
	movq	-40(%rbp), %rdx
	movq	-32(%rbp), %rcx
	movq	%rcx, %rsi
	movq	%rax, %rdi
LEHB40:
	call	__ZNSt8_Rb_treeIiiSt9_IdentityIiESt4lessIiESaIiEE22_M_insert_range_uniqueIPiEENSt9enable_ifIXsrSt7is_sameIiNSt15iterator_traitsIT_E10value_typeEE5valueEvE4typeESB_SB_
LEHE40:
	jmp	L389
L388:
	movq	%rax, %rbx
	movq	-24(%rbp), %rax
	movq	%rax, %rdi
	call	__ZNSt8_Rb_treeIiiSt9_IdentityIiESt4lessIiESaIiEED1Ev
	movq	%rbx, %rax
	movq	%rax, %rdi
LEHB41:
	call	__Unwind_Resume
LEHE41:
L389:
	addq	$40, %rsp
	popq	%rbx
	popq	%rbp
LCFI538:
	ret
LFE5599:
	.section __DATA,__gcc_except_tab
GCC_except_table14:
LLSDA5599:
	.byte	0xff
	.byte	0x3
	.byte	0x1a
	.set L$set$111,LEHB40-LFB5599
	.long L$set$111
	.set L$set$112,LEHE40-LEHB40
	.long L$set$112
	.set L$set$113,L388-LFB5599
	.long L$set$113
	.byte	0
	.set L$set$114,LEHB41-LFB5599
	.long L$set$114
	.set L$set$115,LEHE41-LEHB41
	.long L$set$115
	.long	0
	.byte	0
	.section __TEXT,__textcoal_nt,coalesced,pure_instructions
	.align 1
	.globl __ZNSt8_Rb_treeIiiSt9_IdentityIiESt4lessIiESaIiEED1Ev
	.weak_definition __ZNSt8_Rb_treeIiiSt9_IdentityIiESt4lessIiESaIiEED1Ev
__ZNSt8_Rb_treeIiiSt9_IdentityIiESt4lessIiESaIiEED1Ev:
LFB5602:
	pushq	%rbp
LCFI539:
	movq	%rsp, %rbp
LCFI540:
	subq	$16, %rsp
	movq	%rdi, -8(%rbp)
	movq	-8(%rbp), %rax
	movq	%rax, %rdi
	call	__ZNSt8_Rb_treeIiiSt9_IdentityIiESt4lessIiESaIiEE8_M_beginEv
	movq	%rax, %rdx
	movq	-8(%rbp), %rax
	movq	%rdx, %rsi
	movq	%rax, %rdi
	call	__ZNSt8_Rb_treeIiiSt9_IdentityIiESt4lessIiESaIiEE8_M_eraseEPSt13_Rb_tree_nodeIiE
	movq	-8(%rbp), %rax
	movq	%rax, %rdi
	call	__ZNSt8_Rb_treeIiiSt9_IdentityIiESt4lessIiESaIiEE13_Rb_tree_implIS3_Lb1EED1Ev
	nop
	leave
LCFI541:
	ret
LFE5602:
	.section __DATA,__gcc_except_tab
GCC_except_table15:
LLSDA5602:
	.byte	0xff
	.byte	0x3
	.byte	0
	.section __TEXT,__textcoal_nt,coalesced,pure_instructions
	.align 1
	.globl __ZNKSt3setIiSt4lessIiESaIiEE5beginEv
	.weak_definition __ZNKSt3setIiSt4lessIiESaIiEE5beginEv
__ZNKSt3setIiSt4lessIiESaIiEE5beginEv:
LFB5603:
	pushq	%rbp
LCFI542:
	movq	%rsp, %rbp
LCFI543:
	subq	$16, %rsp
	movq	%rdi, -8(%rbp)
	movq	-8(%rbp), %rax
	movq	%rax, %rdi
	call	__ZNKSt8_Rb_treeIiiSt9_IdentityIiESt4lessIiESaIiEE5beginEv
	leave
LCFI544:
	ret
LFE5603:
	.align 1
	.globl __ZNKSt3setIiSt4lessIiESaIiEE3endEv
	.weak_definition __ZNKSt3setIiSt4lessIiESaIiEE3endEv
__ZNKSt3setIiSt4lessIiESaIiEE3endEv:
LFB5604:
	pushq	%rbp
LCFI545:
	movq	%rsp, %rbp
LCFI546:
	subq	$16, %rsp
	movq	%rdi, -8(%rbp)
	movq	-8(%rbp), %rax
	movq	%rax, %rdi
	call	__ZNKSt8_Rb_treeIiiSt9_IdentityIiESt4lessIiESaIiEE3endEv
	leave
LCFI547:
	ret
LFE5604:
	.align 1
	.globl __ZNSaIiEC2Ev
	.weak_definition __ZNSaIiEC2Ev
__ZNSaIiEC2Ev:
LFB5606:
	pushq	%rbp
LCFI548:
	movq	%rsp, %rbp
LCFI549:
	subq	$16, %rsp
	movq	%rdi, -8(%rbp)
	movq	-8(%rbp), %rax
	movq	%rax, %rdi
	call	__ZN9__gnu_cxx13new_allocatorIiEC2Ev
	nop
	leave
LCFI550:
	ret
LFE5606:
	.align 1
	.globl __ZNSaIiEC1Ev
	.weak_definition __ZNSaIiEC1Ev
__ZNSaIiEC1Ev:
LFB5607:
	pushq	%rbp
LCFI551:
	movq	%rsp, %rbp
LCFI552:
	subq	$16, %rsp
	movq	%rdi, -8(%rbp)
	movq	-8(%rbp), %rax
	movq	%rax, %rdi
	call	__ZN9__gnu_cxx13new_allocatorIiEC2Ev
	nop
	leave
LCFI553:
	ret
LFE5607:
	.align 1
	.globl __ZNSaIiED2Ev
	.weak_definition __ZNSaIiED2Ev
__ZNSaIiED2Ev:
LFB5609:
	pushq	%rbp
LCFI554:
	movq	%rsp, %rbp
LCFI555:
	subq	$16, %rsp
	movq	%rdi, -8(%rbp)
	movq	-8(%rbp), %rax
	movq	%rax, %rdi
	call	__ZN9__gnu_cxx13new_allocatorIiED2Ev
	nop
	leave
LCFI556:
	ret
LFE5609:
	.align 1
	.globl __ZNSaIiED1Ev
	.weak_definition __ZNSaIiED1Ev
__ZNSaIiED1Ev:
LFB5610:
	pushq	%rbp
LCFI557:
	movq	%rsp, %rbp
LCFI558:
	subq	$16, %rsp
	movq	%rdi, -8(%rbp)
	movq	-8(%rbp), %rax
	movq	%rax, %rdi
	call	__ZN9__gnu_cxx13new_allocatorIiED2Ev
	nop
	leave
LCFI559:
	ret
LFE5610:
	.align 1
	.globl __ZNSt7__cxx114listIiSaIiEEC1ISt23_Rb_tree_const_iteratorIiEvEET_S6_RKS1_
	.weak_definition __ZNSt7__cxx114listIiSaIiEEC1ISt23_Rb_tree_const_iteratorIiEvEET_S6_RKS1_
__ZNSt7__cxx114listIiSaIiEEC1ISt23_Rb_tree_const_iteratorIiEvEET_S6_RKS1_:
LFB5613:
	pushq	%rbp
LCFI560:
	movq	%rsp, %rbp
LCFI561:
	pushq	%rbx
	subq	$56, %rsp
LCFI562:
	movq	%rdi, -40(%rbp)
	movq	%rsi, -48(%rbp)
	movq	%rdx, -56(%rbp)
	movq	%rcx, -64(%rbp)
	movq	-40(%rbp), %rbx
	movq	-64(%rbp), %rdx
	leaq	-18(%rbp), %rax
	movq	%rdx, %rsi
	movq	%rax, %rdi
	call	__ZNSaISt10_List_nodeIiEEC1IiEERKSaIT_E
	leaq	-18(%rbp), %rax
	movq	%rax, %rsi
	movq	%rbx, %rdi
	call	__ZNSt7__cxx1110_List_baseIiSaIiEEC2EOSaISt10_List_nodeIiEE
	leaq	-18(%rbp), %rax
	movq	%rax, %rdi
	call	__ZNSaISt10_List_nodeIiEED1Ev
	movq	-56(%rbp), %rdx
	movq	-48(%rbp), %rcx
	movq	-40(%rbp), %rax
	movq	%rcx, %rsi
	movq	%rax, %rdi
LEHB42:
	call	__ZNSt7__cxx114listIiSaIiEE22_M_initialize_dispatchISt23_Rb_tree_const_iteratorIiEEEvT_S6_St12__false_type
LEHE42:
	jmp	L402
L401:
	movq	%rax, %rbx
	movq	-40(%rbp), %rax
	movq	%rax, %rdi
	call	__ZNSt7__cxx1110_List_baseIiSaIiEED2Ev
	movq	%rbx, %rax
	movq	%rax, %rdi
LEHB43:
	call	__Unwind_Resume
LEHE43:
L402:
	addq	$56, %rsp
	popq	%rbx
	popq	%rbp
LCFI563:
	ret
LFE5613:
	.section __DATA,__gcc_except_tab
GCC_except_table16:
LLSDA5613:
	.byte	0xff
	.byte	0x3
	.byte	0x1a
	.set L$set$116,LEHB42-LFB5613
	.long L$set$116
	.set L$set$117,LEHE42-LEHB42
	.long L$set$117
	.set L$set$118,L401-LFB5613
	.long L$set$118
	.byte	0
	.set L$set$119,LEHB43-LFB5613
	.long L$set$119
	.set L$set$120,LEHE43-LEHB43
	.long L$set$120
	.long	0
	.byte	0
	.section __TEXT,__textcoal_nt,coalesced,pure_instructions
	.align 1
	.globl __ZNSt7__cxx1110_List_baseIiSaIiEE10_List_implD1Ev
	.weak_definition __ZNSt7__cxx1110_List_baseIiSaIiEE10_List_implD1Ev
__ZNSt7__cxx1110_List_baseIiSaIiEE10_List_implD1Ev:
LFB5617:
	pushq	%rbp
LCFI564:
	movq	%rsp, %rbp
LCFI565:
	subq	$16, %rsp
	movq	%rdi, -8(%rbp)
	movq	-8(%rbp), %rax
	movq	%rax, %rdi
	call	__ZNSaISt10_List_nodeIiEED2Ev
	nop
	leave
LCFI566:
	ret
LFE5617:
	.align 1
	.globl __ZNSt7__cxx1110_List_baseIiSaIiEED2Ev
	.weak_definition __ZNSt7__cxx1110_List_baseIiSaIiEED2Ev
__ZNSt7__cxx1110_List_baseIiSaIiEED2Ev:
LFB5618:
	pushq	%rbp
LCFI567:
	movq	%rsp, %rbp
LCFI568:
	subq	$16, %rsp
	movq	%rdi, -8(%rbp)
	movq	-8(%rbp), %rax
	movq	%rax, %rdi
	call	__ZNSt7__cxx1110_List_baseIiSaIiEE8_M_clearEv
	movq	-8(%rbp), %rax
	movq	%rax, %rdi
	call	__ZNSt7__cxx1110_List_baseIiSaIiEE10_List_implD1Ev
	nop
	leave
LCFI569:
	ret
LFE5618:
	.globl __ZSt13back_inserterINSt7__cxx114listIiSaIiEEEESt20back_insert_iteratorIT_ERS5_
	.weak_definition __ZSt13back_inserterINSt7__cxx114listIiSaIiEEEESt20back_insert_iteratorIT_ERS5_
__ZSt13back_inserterINSt7__cxx114listIiSaIiEEEESt20back_insert_iteratorIT_ERS5_:
LFB5620:
	pushq	%rbp
LCFI570:
	movq	%rsp, %rbp
LCFI571:
	subq	$32, %rsp
	movq	%rdi, -24(%rbp)
	movq	-24(%rbp), %rdx
	leaq	-8(%rbp), %rax
	movq	%rdx, %rsi
	movq	%rax, %rdi
	call	__ZNSt20back_insert_iteratorINSt7__cxx114listIiSaIiEEEEC1ERS3_
	movq	-8(%rbp), %rax
	leave
LCFI572:
	ret
LFE5620:
	.globl __ZSt4copyISt23_Rb_tree_const_iteratorIiESt20back_insert_iteratorINSt7__cxx114listIiSaIiEEEEET0_T_S9_S8_
	.weak_definition __ZSt4copyISt23_Rb_tree_const_iteratorIiESt20back_insert_iteratorINSt7__cxx114listIiSaIiEEEEET0_T_S9_S8_
__ZSt4copyISt23_Rb_tree_const_iteratorIiESt20back_insert_iteratorINSt7__cxx114listIiSaIiEEEEET0_T_S9_S8_:
LFB5621:
	pushq	%rbp
LCFI573:
	movq	%rsp, %rbp
LCFI574:
	pushq	%rbx
	subq	$40, %rsp
LCFI575:
	movq	%rdi, -24(%rbp)
	movq	%rsi, -32(%rbp)
	movq	%rdx, -40(%rbp)
	movq	-32(%rbp), %rax
	movq	%rax, %rdi
	call	__ZSt12__miter_baseISt23_Rb_tree_const_iteratorIiEET_S2_
	movq	%rax, %rbx
	movq	-24(%rbp), %rax
	movq	%rax, %rdi
	call	__ZSt12__miter_baseISt23_Rb_tree_const_iteratorIiEET_S2_
	movq	%rax, %rcx
	movq	-40(%rbp), %rax
	movq	%rax, %rdx
	movq	%rbx, %rsi
	movq	%rcx, %rdi
	call	__ZSt14__copy_move_a2ILb0ESt23_Rb_tree_const_iteratorIiESt20back_insert_iteratorINSt7__cxx114listIiSaIiEEEEET1_T0_S9_S8_
	addq	$40, %rsp
	popq	%rbx
	popq	%rbp
LCFI576:
	ret
LFE5621:
	.align 1
	.globl __ZNSt7__cxx1112basic_stringIcSt11char_traitsIcESaIcEEC1IPcvEET_S7_RKS3_
	.weak_definition __ZNSt7__cxx1112basic_stringIcSt11char_traitsIcESaIcEEC1IPcvEET_S7_RKS3_
__ZNSt7__cxx1112basic_stringIcSt11char_traitsIcESaIcEEC1IPcvEET_S7_RKS3_:
LFB5639:
	pushq	%rbp
LCFI577:
	movq	%rsp, %rbp
LCFI578:
	pushq	%rbx
	subq	$40, %rsp
LCFI579:
	movq	%rdi, -24(%rbp)
	movq	%rsi, -32(%rbp)
	movq	%rdx, -40(%rbp)
	movq	%rcx, -48(%rbp)
	movq	-24(%rbp), %rbx
	movq	-24(%rbp), %rax
	movq	%rax, %rdi
LEHB44:
	call	__ZNSt7__cxx1112basic_stringIcSt11char_traitsIcESaIcEE13_M_local_dataEv
	movq	%rax, %rcx
	movq	-48(%rbp), %rax
	movq	%rax, %rdx
	movq	%rcx, %rsi
	movq	%rbx, %rdi
	call	__ZNSt7__cxx1112basic_stringIcSt11char_traitsIcESaIcEE12_Alloc_hiderC1EPcRKS3_
LEHE44:
	movq	-40(%rbp), %rdx
	movq	-32(%rbp), %rcx
	movq	-24(%rbp), %rax
	movq	%rcx, %rsi
	movq	%rax, %rdi
LEHB45:
	call	__ZNSt7__cxx1112basic_stringIcSt11char_traitsIcESaIcEE12_M_constructIPcEEvT_S7_
LEHE45:
	jmp	L412
L411:
	movq	%rax, %rbx
	movq	-24(%rbp), %rax
	movq	%rax, %rdi
	call	__ZNSt7__cxx1112basic_stringIcSt11char_traitsIcESaIcEE12_Alloc_hiderD1Ev
	movq	%rbx, %rax
	movq	%rax, %rdi
LEHB46:
	call	__Unwind_Resume
LEHE46:
L412:
	addq	$40, %rsp
	popq	%rbx
	popq	%rbp
LCFI580:
	ret
LFE5639:
	.section __DATA,__gcc_except_tab
GCC_except_table17:
LLSDA5639:
	.byte	0xff
	.byte	0x3
	.byte	0x27
	.set L$set$121,LEHB44-LFB5639
	.long L$set$121
	.set L$set$122,LEHE44-LEHB44
	.long L$set$122
	.long	0
	.byte	0
	.set L$set$123,LEHB45-LFB5639
	.long L$set$123
	.set L$set$124,LEHE45-LEHB45
	.long L$set$124
	.set L$set$125,L411-LFB5639
	.long L$set$125
	.byte	0
	.set L$set$126,LEHB46-LFB5639
	.long L$set$126
	.set L$set$127,LEHE46-LEHB46
	.long L$set$127
	.long	0
	.byte	0
	.section __TEXT,__textcoal_nt,coalesced,pure_instructions
	.globl __ZSt4moveIRNSt7__cxx1112basic_stringIcSt11char_traitsIcESaIcEEEEONSt16remove_referenceIT_E4typeEOS8_
	.weak_definition __ZSt4moveIRNSt7__cxx1112basic_stringIcSt11char_traitsIcESaIcEEEEONSt16remove_referenceIT_E4typeEOS8_
__ZSt4moveIRNSt7__cxx1112basic_stringIcSt11char_traitsIcESaIcEEEEONSt16remove_referenceIT_E4typeEOS8_:
LFB5745:
	pushq	%rbp
LCFI581:
	movq	%rsp, %rbp
LCFI582:
	movq	%rdi, -8(%rbp)
	movq	-8(%rbp), %rax
	popq	%rbp
LCFI583:
	ret
LFE5745:
	.align 1
	.globl __ZNSaImEC2Ev
	.weak_definition __ZNSaImEC2Ev
__ZNSaImEC2Ev:
LFB5749:
	pushq	%rbp
LCFI584:
	movq	%rsp, %rbp
LCFI585:
	subq	$16, %rsp
	movq	%rdi, -8(%rbp)
	movq	-8(%rbp), %rax
	movq	%rax, %rdi
	call	__ZN9__gnu_cxx13new_allocatorImEC2Ev
	nop
	leave
LCFI586:
	ret
LFE5749:
	.align 1
	.globl __ZNSt12_Vector_baseImSaImEE17_Vector_impl_dataC2Ev
	.weak_definition __ZNSt12_Vector_baseImSaImEE17_Vector_impl_dataC2Ev
__ZNSt12_Vector_baseImSaImEE17_Vector_impl_dataC2Ev:
LFB5752:
	pushq	%rbp
LCFI587:
	movq	%rsp, %rbp
LCFI588:
	movq	%rdi, -8(%rbp)
	movq	-8(%rbp), %rax
	movq	$0, (%rax)
	movq	-8(%rbp), %rax
	movq	$0, 8(%rax)
	movq	-8(%rbp), %rax
	movq	$0, 16(%rax)
	nop
	popq	%rbp
LCFI589:
	ret
LFE5752:
	.align 1
	.globl __ZN9__gnu_cxx13new_allocatorImED2Ev
	.weak_definition __ZN9__gnu_cxx13new_allocatorImED2Ev
__ZN9__gnu_cxx13new_allocatorImED2Ev:
LFB5755:
	pushq	%rbp
LCFI590:
	movq	%rsp, %rbp
LCFI591:
	movq	%rdi, -8(%rbp)
	nop
	popq	%rbp
LCFI592:
	ret
LFE5755:
	.align 1
	.globl __ZNSt12_Vector_baseImSaImEE13_M_deallocateEPmm
	.weak_definition __ZNSt12_Vector_baseImSaImEE13_M_deallocateEPmm
__ZNSt12_Vector_baseImSaImEE13_M_deallocateEPmm:
LFB5757:
	pushq	%rbp
LCFI593:
	movq	%rsp, %rbp
LCFI594:
	subq	$32, %rsp
	movq	%rdi, -8(%rbp)
	movq	%rsi, -16(%rbp)
	movq	%rdx, -24(%rbp)
	cmpq	$0, -16(%rbp)
	je	L420
	movq	-8(%rbp), %rax
	movq	-24(%rbp), %rdx
	movq	-16(%rbp), %rcx
	movq	%rcx, %rsi
	movq	%rax, %rdi
	call	__ZNSt16allocator_traitsISaImEE10deallocateERS0_Pmm
L420:
	nop
	leave
LCFI595:
	ret
LFE5757:
	.align 1
	.globl __ZNSt12_Vector_baseImSaImEE19_M_get_Tp_allocatorEv
	.weak_definition __ZNSt12_Vector_baseImSaImEE19_M_get_Tp_allocatorEv
__ZNSt12_Vector_baseImSaImEE19_M_get_Tp_allocatorEv:
LFB5758:
	pushq	%rbp
LCFI596:
	movq	%rsp, %rbp
LCFI597:
	movq	%rdi, -8(%rbp)
	movq	-8(%rbp), %rax
	popq	%rbp
LCFI598:
	ret
LFE5758:
	.globl __ZSt8_DestroyIPmmEvT_S1_RSaIT0_E
	.weak_definition __ZSt8_DestroyIPmmEvT_S1_RSaIT0_E
__ZSt8_DestroyIPmmEvT_S1_RSaIT0_E:
LFB5759:
	pushq	%rbp
LCFI599:
	movq	%rsp, %rbp
LCFI600:
	subq	$32, %rsp
	movq	%rdi, -8(%rbp)
	movq	%rsi, -16(%rbp)
	movq	%rdx, -24(%rbp)
	movq	-16(%rbp), %rdx
	movq	-8(%rbp), %rax
	movq	%rdx, %rsi
	movq	%rax, %rdi
	call	__ZSt8_DestroyIPmEvT_S1_
	nop
	leave
LCFI601:
	ret
LFE5759:
	.align 1
	.globl __ZNSt11_Deque_baseIiSaIiEE11_Deque_implD1Ev
	.weak_definition __ZNSt11_Deque_baseIiSaIiEE11_Deque_implD1Ev
__ZNSt11_Deque_baseIiSaIiEE11_Deque_implD1Ev:
LFB5763:
	pushq	%rbp
LCFI602:
	movq	%rsp, %rbp
LCFI603:
	subq	$16, %rsp
	movq	%rdi, -8(%rbp)
	movq	-8(%rbp), %rax
	movq	%rax, %rdi
	call	__ZNSaIiED2Ev
	nop
	leave
LCFI604:
	ret
LFE5763:
	.align 1
	.globl __ZNSt11_Deque_baseIiSaIiEEC2Ev
	.weak_definition __ZNSt11_Deque_baseIiSaIiEEC2Ev
__ZNSt11_Deque_baseIiSaIiEEC2Ev:
LFB5764:
	pushq	%rbp
LCFI605:
	movq	%rsp, %rbp
LCFI606:
	pushq	%rbx
	subq	$24, %rsp
LCFI607:
	movq	%rdi, -24(%rbp)
	movq	-24(%rbp), %rax
	movq	%rax, %rdi
	call	__ZNSt11_Deque_baseIiSaIiEE11_Deque_implC1Ev
	movq	-24(%rbp), %rax
	movl	$0, %esi
	movq	%rax, %rdi
LEHB47:
	call	__ZNSt11_Deque_baseIiSaIiEE17_M_initialize_mapEm
LEHE47:
	jmp	L428
L427:
	movq	%rax, %rbx
	movq	-24(%rbp), %rax
	movq	%rax, %rdi
	call	__ZNSt11_Deque_baseIiSaIiEE11_Deque_implD1Ev
	movq	%rbx, %rax
	movq	%rax, %rdi
LEHB48:
	call	__Unwind_Resume
LEHE48:
L428:
	addq	$24, %rsp
	popq	%rbx
	popq	%rbp
LCFI608:
	ret
LFE5764:
	.section __DATA,__gcc_except_tab
GCC_except_table18:
LLSDA5764:
	.byte	0xff
	.byte	0x3
	.byte	0x1a
	.set L$set$128,LEHB47-LFB5764
	.long L$set$128
	.set L$set$129,LEHE47-LEHB47
	.long L$set$129
	.set L$set$130,L427-LFB5764
	.long L$set$130
	.byte	0
	.set L$set$131,LEHB48-LFB5764
	.long L$set$131
	.set L$set$132,LEHE48-LEHB48
	.long L$set$132
	.long	0
	.byte	0
	.section __TEXT,__textcoal_nt,coalesced,pure_instructions
	.align 1
	.globl __ZNSt11_Deque_baseIiSaIiEED2Ev
	.weak_definition __ZNSt11_Deque_baseIiSaIiEED2Ev
__ZNSt11_Deque_baseIiSaIiEED2Ev:
LFB5767:
	pushq	%rbp
LCFI609:
	movq	%rsp, %rbp
LCFI610:
	subq	$16, %rsp
	movq	%rdi, -8(%rbp)
	movq	-8(%rbp), %rax
	movq	(%rax), %rax
	testq	%rax, %rax
	je	L430
	movq	-8(%rbp), %rax
	movq	72(%rax), %rax
	leaq	8(%rax), %rdx
	movq	-8(%rbp), %rax
	movq	40(%rax), %rcx
	movq	-8(%rbp), %rax
	movq	%rcx, %rsi
	movq	%rax, %rdi
	call	__ZNSt11_Deque_baseIiSaIiEE16_M_destroy_nodesEPPiS3_
	movq	-8(%rbp), %rax
	movq	8(%rax), %rdx
	movq	-8(%rbp), %rax
	movq	(%rax), %rcx
	movq	-8(%rbp), %rax
	movq	%rcx, %rsi
	movq	%rax, %rdi
	call	__ZNSt11_Deque_baseIiSaIiEE17_M_deallocate_mapEPPim
L430:
	movq	-8(%rbp), %rax
	movq	%rax, %rdi
	call	__ZNSt11_Deque_baseIiSaIiEE11_Deque_implD1Ev
	nop
	leave
LCFI611:
	ret
LFE5767:
	.align 1
	.globl __ZNSt11_Deque_baseIiSaIiEE19_M_get_Tp_allocatorEv
	.weak_definition __ZNSt11_Deque_baseIiSaIiEE19_M_get_Tp_allocatorEv
__ZNSt11_Deque_baseIiSaIiEE19_M_get_Tp_allocatorEv:
LFB5769:
	pushq	%rbp
LCFI612:
	movq	%rsp, %rbp
LCFI613:
	movq	%rdi, -8(%rbp)
	movq	-8(%rbp), %rax
	popq	%rbp
LCFI614:
	ret
LFE5769:
	.align 1
	.globl __ZNSt5dequeIiSaIiEE15_M_destroy_dataESt15_Deque_iteratorIiRiPiES5_RKS0_
	.weak_definition __ZNSt5dequeIiSaIiEE15_M_destroy_dataESt15_Deque_iteratorIiRiPiES5_RKS0_
__ZNSt5dequeIiSaIiEE15_M_destroy_dataESt15_Deque_iteratorIiRiPiES5_RKS0_:
LFB5770:
	pushq	%rbp
LCFI615:
	movq	%rsp, %rbp
LCFI616:
	movq	%rdi, -8(%rbp)
	movq	%rsi, -16(%rbp)
	nop
	popq	%rbp
LCFI617:
	ret
LFE5770:
	.globl __ZSt4moveIRiEONSt16remove_referenceIT_E4typeEOS2_
	.weak_definition __ZSt4moveIRiEONSt16remove_referenceIT_E4typeEOS2_
__ZSt4moveIRiEONSt16remove_referenceIT_E4typeEOS2_:
LFB5771:
	pushq	%rbp
LCFI618:
	movq	%rsp, %rbp
LCFI619:
	movq	%rdi, -8(%rbp)
	movq	-8(%rbp), %rax
	popq	%rbp
LCFI620:
	ret
LFE5771:
	.align 1
	.globl __ZNSt5dequeIiSaIiEE13emplace_frontIJiEEEvDpOT_
	.weak_definition __ZNSt5dequeIiSaIiEE13emplace_frontIJiEEEvDpOT_
__ZNSt5dequeIiSaIiEE13emplace_frontIJiEEEvDpOT_:
LFB5772:
	pushq	%rbp
LCFI621:
	movq	%rsp, %rbp
LCFI622:
	subq	$16, %rsp
	movq	%rdi, -8(%rbp)
	movq	%rsi, -16(%rbp)
	movq	-8(%rbp), %rax
	movq	16(%rax), %rdx
	movq	-8(%rbp), %rax
	movq	24(%rax), %rax
	cmpq	%rax, %rdx
	je	L437
	movq	-16(%rbp), %rax
	movq	%rax, %rdi
	call	__ZSt7forwardIiEOT_RNSt16remove_referenceIS0_E4typeE
	movq	%rax, %rdx
	movq	-8(%rbp), %rax
	movq	16(%rax), %rax
	leaq	-4(%rax), %rcx
	movq	-8(%rbp), %rax
	movq	%rcx, %rsi
	movq	%rax, %rdi
	call	__ZNSt16allocator_traitsISaIiEE9constructIiJiEEEvRS0_PT_DpOT0_
	movq	-8(%rbp), %rax
	movq	16(%rax), %rax
	leaq	-4(%rax), %rdx
	movq	-8(%rbp), %rax
	movq	%rdx, 16(%rax)
	jmp	L439
L437:
	movq	-16(%rbp), %rax
	movq	%rax, %rdi
	call	__ZSt7forwardIiEOT_RNSt16remove_referenceIS0_E4typeE
	movq	%rax, %rdx
	movq	-8(%rbp), %rax
	movq	%rdx, %rsi
	movq	%rax, %rdi
	call	__ZNSt5dequeIiSaIiEE17_M_push_front_auxIJiEEEvDpOT_
L439:
	nop
	leave
LCFI623:
	ret
LFE5772:
	.globl __ZSteqIiRiPiEbRKSt15_Deque_iteratorIT_T0_T1_ES8_
	.weak_definition __ZSteqIiRiPiEbRKSt15_Deque_iteratorIT_T0_T1_ES8_
__ZSteqIiRiPiEbRKSt15_Deque_iteratorIT_T0_T1_ES8_:
LFB5773:
	pushq	%rbp
LCFI624:
	movq	%rsp, %rbp
LCFI625:
	movq	%rdi, -8(%rbp)
	movq	%rsi, -16(%rbp)
	movq	-8(%rbp), %rax
	movq	(%rax), %rdx
	movq	-16(%rbp), %rax
	movq	(%rax), %rax
	cmpq	%rax, %rdx
	sete	%al
	popq	%rbp
LCFI626:
	ret
LFE5773:
	.align 1
	.globl __ZNSt15_Deque_iteratorIiRiPiE11_M_set_nodeEPS1_
	.weak_definition __ZNSt15_Deque_iteratorIiRiPiE11_M_set_nodeEPS1_
__ZNSt15_Deque_iteratorIiRiPiE11_M_set_nodeEPS1_:
LFB5774:
	pushq	%rbp
LCFI627:
	movq	%rsp, %rbp
LCFI628:
	pushq	%rbx
	subq	$24, %rsp
LCFI629:
	movq	%rdi, -24(%rbp)
	movq	%rsi, -32(%rbp)
	movq	-24(%rbp), %rax
	movq	-32(%rbp), %rdx
	movq	%rdx, 24(%rax)
	movq	-32(%rbp), %rax
	movq	(%rax), %rdx
	movq	-24(%rbp), %rax
	movq	%rdx, 8(%rax)
	movq	-24(%rbp), %rax
	movq	8(%rax), %rbx
	call	__ZNSt15_Deque_iteratorIiRiPiE14_S_buffer_sizeEv
	salq	$2, %rax
	leaq	(%rbx,%rax), %rdx
	movq	-24(%rbp), %rax
	movq	%rdx, 16(%rax)
	nop
	addq	$24, %rsp
	popq	%rbx
	popq	%rbp
LCFI630:
	ret
LFE5774:
	.align 1
	.globl __ZNSt5arrayIiLm20EE4dataEv
	.weak_definition __ZNSt5arrayIiLm20EE4dataEv
__ZNSt5arrayIiLm20EE4dataEv:
LFB5775:
	pushq	%rbp
LCFI631:
	movq	%rsp, %rbp
LCFI632:
	subq	$16, %rsp
	movq	%rdi, -8(%rbp)
	movq	-8(%rbp), %rax
	movq	%rax, %rdi
	call	__ZNSt14__array_traitsIiLm20EE6_S_ptrERA20_Ki
	leave
LCFI633:
	ret
LFE5775:
	.align 1
	.globl __ZNSt12__shared_ptrINSt7__cxx1112basic_stringIcSt11char_traitsIcESaIcEEELN9__gnu_cxx12_Lock_policyE2EEC2IS5_vEEPT_
	.weak_definition __ZNSt12__shared_ptrINSt7__cxx1112basic_stringIcSt11char_traitsIcESaIcEEELN9__gnu_cxx12_Lock_policyE2EEC2IS5_vEEPT_
__ZNSt12__shared_ptrINSt7__cxx1112basic_stringIcSt11char_traitsIcESaIcEEELN9__gnu_cxx12_Lock_policyE2EEC2IS5_vEEPT_:
LFB5777:
	pushq	%rbp
LCFI634:
	movq	%rsp, %rbp
LCFI635:
	subq	$32, %rsp
	movq	%rdi, -24(%rbp)
	movq	%rsi, -32(%rbp)
	movq	-24(%rbp), %rax
	movq	-32(%rbp), %rdx
	movq	%rdx, (%rax)
	movq	-24(%rbp), %rax
	addq	$8, %rax
	movq	-32(%rbp), %rdx
	movq	%rdx, %rsi
	movq	%rax, %rdi
	call	__ZNSt14__shared_countILN9__gnu_cxx12_Lock_policyE2EEC1IPNSt7__cxx1112basic_stringIcSt11char_traitsIcESaIcEEEEET_St17integral_constantIbLb0EE
	movq	-32(%rbp), %rdx
	movq	-24(%rbp), %rax
	movq	%rdx, %rsi
	movq	%rax, %rdi
	call	__ZNSt12__shared_ptrINSt7__cxx1112basic_stringIcSt11char_traitsIcESaIcEEELN9__gnu_cxx12_Lock_policyE2EE31_M_enable_shared_from_this_withIS5_S5_EENSt9enable_ifIXntsrNS8_15__has_esft_baseIT0_vEE5valueEvE4typeEPT_
	nop
	leave
LCFI636:
	ret
LFE5777:
	.align 1
	.globl __ZNSt16_Sp_counted_baseILN9__gnu_cxx12_Lock_policyE2EE10_M_releaseEv
	.weak_definition __ZNSt16_Sp_counted_baseILN9__gnu_cxx12_Lock_policyE2EE10_M_releaseEv
__ZNSt16_Sp_counted_baseILN9__gnu_cxx12_Lock_policyE2EE10_M_releaseEv:
LFB5779:
	pushq	%rbp
LCFI637:
	movq	%rsp, %rbp
LCFI638:
	subq	$16, %rsp
	movq	%rdi, -8(%rbp)
	movq	-8(%rbp), %rax
	addq	$8, %rax
	movl	$-1, %esi
	movq	%rax, %rdi
	call	__ZN9__gnu_cxxL27__exchange_and_add_dispatchEPii
	cmpl	$1, %eax
	sete	%al
	testb	%al, %al
	je	L448
	movq	-8(%rbp), %rax
	movq	(%rax), %rax
	addq	$16, %rax
	movq	(%rax), %rdx
	movq	-8(%rbp), %rax
	movq	%rax, %rdi
	call	*%rdx
	movq	-8(%rbp), %rax
	addq	$12, %rax
	movl	$-1, %esi
	movq	%rax, %rdi
	call	__ZN9__gnu_cxxL27__exchange_and_add_dispatchEPii
	cmpl	$1, %eax
	sete	%al
	testb	%al, %al
	je	L448
	movq	-8(%rbp), %rax
	movq	(%rax), %rax
	addq	$24, %rax
	movq	(%rax), %rdx
	movq	-8(%rbp), %rax
	movq	%rax, %rdi
	call	*%rdx
L448:
	nop
	leave
LCFI639:
	ret
LFE5779:
	.align 1
	.globl __ZNSt10__weak_ptrINSt7__cxx1112basic_stringIcSt11char_traitsIcESaIcEEELN9__gnu_cxx12_Lock_policyE2EEC2IS5_vEERKSt12__shared_ptrIT_LS7_2EE
	.weak_definition __ZNSt10__weak_ptrINSt7__cxx1112basic_stringIcSt11char_traitsIcESaIcEEELN9__gnu_cxx12_Lock_policyE2EEC2IS5_vEERKSt12__shared_ptrIT_LS7_2EE
__ZNSt10__weak_ptrINSt7__cxx1112basic_stringIcSt11char_traitsIcESaIcEEELN9__gnu_cxx12_Lock_policyE2EEC2IS5_vEERKSt12__shared_ptrIT_LS7_2EE:
LFB5781:
	pushq	%rbp
LCFI640:
	movq	%rsp, %rbp
LCFI641:
	subq	$16, %rsp
	movq	%rdi, -8(%rbp)
	movq	%rsi, -16(%rbp)
	movq	-16(%rbp), %rax
	movq	(%rax), %rdx
	movq	-8(%rbp), %rax
	movq	%rdx, (%rax)
	movq	-8(%rbp), %rax
	addq	$8, %rax
	movq	-16(%rbp), %rdx
	addq	$8, %rdx
	movq	%rdx, %rsi
	movq	%rax, %rdi
	call	__ZNSt12__weak_countILN9__gnu_cxx12_Lock_policyE2EEC1ERKSt14__shared_countILS1_2EE
	nop
	leave
LCFI642:
	ret
LFE5781:
	.align 1
	.globl __ZNSt16_Sp_counted_baseILN9__gnu_cxx12_Lock_policyE2EE15_M_weak_releaseEv
	.weak_definition __ZNSt16_Sp_counted_baseILN9__gnu_cxx12_Lock_policyE2EE15_M_weak_releaseEv
__ZNSt16_Sp_counted_baseILN9__gnu_cxx12_Lock_policyE2EE15_M_weak_releaseEv:
LFB5783:
	pushq	%rbp
LCFI643:
	movq	%rsp, %rbp
LCFI644:
	subq	$16, %rsp
	movq	%rdi, -8(%rbp)
	movq	-8(%rbp), %rax
	addq	$12, %rax
	movl	$-1, %esi
	movq	%rax, %rdi
	call	__ZN9__gnu_cxxL27__exchange_and_add_dispatchEPii
	cmpl	$1, %eax
	sete	%al
	testb	%al, %al
	je	L452
	movq	-8(%rbp), %rax
	movq	(%rax), %rax
	addq	$24, %rax
	movq	(%rax), %rdx
	movq	-8(%rbp), %rax
	movq	%rax, %rdi
	call	*%rdx
L452:
	nop
	leave
LCFI645:
	ret
LFE5783:
	.align 1
	.globl __ZNSt12__shared_ptrINSt7__cxx1112basic_stringIcSt11char_traitsIcESaIcEEELN9__gnu_cxx12_Lock_policyE2EEC2IS5_vEERKSt10__weak_ptrIT_LS7_2EE
	.weak_definition __ZNSt12__shared_ptrINSt7__cxx1112basic_stringIcSt11char_traitsIcESaIcEEELN9__gnu_cxx12_Lock_policyE2EEC2IS5_vEERKSt10__weak_ptrIT_LS7_2EE
__ZNSt12__shared_ptrINSt7__cxx1112basic_stringIcSt11char_traitsIcESaIcEEELN9__gnu_cxx12_Lock_policyE2EEC2IS5_vEERKSt10__weak_ptrIT_LS7_2EE:
LFB5785:
	pushq	%rbp
LCFI646:
	movq	%rsp, %rbp
LCFI647:
	subq	$16, %rsp
	movq	%rdi, -8(%rbp)
	movq	%rsi, -16(%rbp)
	movq	-8(%rbp), %rax
	addq	$8, %rax
	movq	-16(%rbp), %rdx
	addq	$8, %rdx
	movq	%rdx, %rsi
	movq	%rax, %rdi
	call	__ZNSt14__shared_countILN9__gnu_cxx12_Lock_policyE2EEC1ERKSt12__weak_countILS1_2EE
	movq	-16(%rbp), %rax
	movq	(%rax), %rdx
	movq	-8(%rbp), %rax
	movq	%rdx, (%rax)
	nop
	leave
LCFI648:
	ret
LFE5785:
	.align 1
	.globl __ZNSt5tupleIJRNSt7__cxx1112basic_stringIcSt11char_traitsIcESaIcEEERiRdEEC1IvLb1EEES6_S7_S8_
	.weak_definition __ZNSt5tupleIJRNSt7__cxx1112basic_stringIcSt11char_traitsIcESaIcEEERiRdEEC1IvLb1EEES6_S7_S8_
__ZNSt5tupleIJRNSt7__cxx1112basic_stringIcSt11char_traitsIcESaIcEEERiRdEEC1IvLb1EEES6_S7_S8_:
LFB5789:
	pushq	%rbp
LCFI649:
	movq	%rsp, %rbp
LCFI650:
	subq	$32, %rsp
	movq	%rdi, -8(%rbp)
	movq	%rsi, -16(%rbp)
	movq	%rdx, -24(%rbp)
	movq	%rcx, -32(%rbp)
	movq	-8(%rbp), %rax
	movq	-32(%rbp), %rcx
	movq	-24(%rbp), %rdx
	movq	-16(%rbp), %rsi
	movq	%rax, %rdi
	call	__ZNSt11_Tuple_implILm0EJRNSt7__cxx1112basic_stringIcSt11char_traitsIcESaIcEEERiRdEEC2ES6_S7_S8_
	nop
	leave
LCFI651:
	ret
LFE5789:
	.align 1
	.globl __ZNSt11_Tuple_implILm0EJRNSt7__cxx1112basic_stringIcSt11char_traitsIcESaIcEEERiRdEE9_M_assignIJS5_idEEEvRKS_ILm0EJDpT_EE
	.weak_definition __ZNSt11_Tuple_implILm0EJRNSt7__cxx1112basic_stringIcSt11char_traitsIcESaIcEEERiRdEE9_M_assignIJS5_idEEEvRKS_ILm0EJDpT_EE
__ZNSt11_Tuple_implILm0EJRNSt7__cxx1112basic_stringIcSt11char_traitsIcESaIcEEERiRdEE9_M_assignIJS5_idEEEvRKS_ILm0EJDpT_EE:
LFB5793:
	pushq	%rbp
LCFI652:
	movq	%rsp, %rbp
LCFI653:
	pushq	%rbx
	subq	$24, %rsp
LCFI654:
	movq	%rdi, -24(%rbp)
	movq	%rsi, -32(%rbp)
	movq	-32(%rbp), %rax
	movq	%rax, %rdi
	call	__ZNSt11_Tuple_implILm0EJNSt7__cxx1112basic_stringIcSt11char_traitsIcESaIcEEEidEE7_M_headERKS6_
	movq	%rax, %rbx
	movq	-24(%rbp), %rax
	movq	%rax, %rdi
	call	__ZNSt11_Tuple_implILm0EJRNSt7__cxx1112basic_stringIcSt11char_traitsIcESaIcEEERiRdEE7_M_headERS9_
	movq	%rbx, %rsi
	movq	%rax, %rdi
	call	__ZNSt7__cxx1112basic_stringIcSt11char_traitsIcESaIcEEaSERKS4_
	movq	-24(%rbp), %rax
	movq	%rax, %rdi
	call	__ZNSt11_Tuple_implILm0EJRNSt7__cxx1112basic_stringIcSt11char_traitsIcESaIcEEERiRdEE7_M_tailERS9_
	movq	%rax, %rbx
	movq	-32(%rbp), %rax
	movq	%rax, %rdi
	call	__ZNSt11_Tuple_implILm0EJNSt7__cxx1112basic_stringIcSt11char_traitsIcESaIcEEEidEE7_M_tailERKS6_
	movq	%rax, %rsi
	movq	%rbx, %rdi
	call	__ZNSt11_Tuple_implILm1EJRiRdEE9_M_assignIJidEEEvRKS_ILm1EJDpT_EE
	nop
	addq	$24, %rsp
	popq	%rbx
	popq	%rbp
LCFI655:
	ret
LFE5793:
	.align 1
	.globl __ZNSt7__cxx1111basic_regexIcNS_12regex_traitsIcEEEC1IPKcEET_S7_NSt15regex_constants18syntax_option_typeE
	.weak_definition __ZNSt7__cxx1111basic_regexIcNS_12regex_traitsIcEEEC1IPKcEET_S7_NSt15regex_constants18syntax_option_typeE
__ZNSt7__cxx1111basic_regexIcNS_12regex_traitsIcEEEC1IPKcEET_S7_NSt15regex_constants18syntax_option_typeE:
LFB5796:
	pushq	%rbp
LCFI656:
	movq	%rsp, %rbp
LCFI657:
	pushq	%rbx
	subq	$56, %rsp
LCFI658:
	movq	%rdi, -40(%rbp)
	movq	%rsi, -48(%rbp)
	movq	%rdx, -56(%rbp)
	movl	%ecx, -60(%rbp)
	leaq	-24(%rbp), %rax
	movq	%rax, %rdi
	call	__ZNSt6localeC1Ev
	leaq	-56(%rbp), %rax
	movq	%rax, %rdi
	call	__ZSt4moveIRPKcEONSt16remove_referenceIT_E4typeEOS4_
	movq	(%rax), %rbx
	leaq	-48(%rbp), %rax
	movq	%rax, %rdi
	call	__ZSt4moveIRPKcEONSt16remove_referenceIT_E4typeEOS4_
	movq	(%rax), %rsi
	movl	-60(%rbp), %edx
	leaq	-24(%rbp), %rax
	movq	-40(%rbp), %rdi
	movl	%edx, %r8d
	movq	%rax, %rcx
	movq	%rbx, %rdx
LEHB49:
	call	__ZNSt7__cxx1111basic_regexIcNS_12regex_traitsIcEEEC1IPKcEET_S7_St6localeNSt15regex_constants18syntax_option_typeE
LEHE49:
	leaq	-24(%rbp), %rax
	movq	%rax, %rdi
	call	__ZNSt6localeD1Ev
	jmp	L459
L458:
	movq	%rax, %rbx
	leaq	-24(%rbp), %rax
	movq	%rax, %rdi
	call	__ZNSt6localeD1Ev
	movq	%rbx, %rax
	movq	%rax, %rdi
LEHB50:
	call	__Unwind_Resume
LEHE50:
L459:
	addq	$56, %rsp
	popq	%rbx
	popq	%rbp
LCFI659:
	ret
LFE5796:
	.section __DATA,__gcc_except_tab
GCC_except_table19:
LLSDA5796:
	.byte	0xff
	.byte	0x3
	.byte	0x1a
	.set L$set$133,LEHB49-LFB5796
	.long L$set$133
	.set L$set$134,LEHE49-LEHB49
	.long L$set$134
	.set L$set$135,L458-LFB5796
	.long L$set$135
	.byte	0
	.set L$set$136,LEHB50-LFB5796
	.long L$set$136
	.set L$set$137,LEHE50-LEHB50
	.long L$set$137
	.long	0
	.byte	0
	.section __TEXT,__textcoal_nt,coalesced,pure_instructions
	.align 1
	.globl __ZNSt7__cxx1113match_resultsIN9__gnu_cxx17__normal_iteratorIPKcNS_12basic_stringIcSt11char_traitsIcESaIcEEEEESaINS_9sub_matchISA_EEEED1Ev
	.weak_definition __ZNSt7__cxx1113match_resultsIN9__gnu_cxx17__normal_iteratorIPKcNS_12basic_stringIcSt11char_traitsIcESaIcEEEEESaINS_9sub_matchISA_EEEED1Ev
__ZNSt7__cxx1113match_resultsIN9__gnu_cxx17__normal_iteratorIPKcNS_12basic_stringIcSt11char_traitsIcESaIcEEEEESaINS_9sub_matchISA_EEEED1Ev:
LFB5802:
	pushq	%rbp
LCFI660:
	movq	%rsp, %rbp
LCFI661:
	subq	$16, %rsp
	movq	%rdi, -8(%rbp)
	movq	-8(%rbp), %rax
	movq	%rax, %rdi
	call	__ZNSt6vectorINSt7__cxx119sub_matchIN9__gnu_cxx17__normal_iteratorIPKcNS0_12basic_stringIcSt11char_traitsIcESaIcEEEEEEESaISC_EED2Ev
	nop
	leave
LCFI662:
	ret
LFE5802:
	.globl __ZSt12regex_searchIN9__gnu_cxx17__normal_iteratorIPKcNSt7__cxx1112basic_stringIcSt11char_traitsIcESaIcEEEEEcNS4_12regex_traitsIcEEEbT_SD_RKNS4_11basic_regexIT0_T1_EENSt15regex_constants15match_flag_typeE
	.weak_definition __ZSt12regex_searchIN9__gnu_cxx17__normal_iteratorIPKcNSt7__cxx1112basic_stringIcSt11char_traitsIcESaIcEEEEEcNS4_12regex_traitsIcEEEbT_SD_RKNS4_11basic_regexIT0_T1_EENSt15regex_constants15match_flag_typeE
__ZSt12regex_searchIN9__gnu_cxx17__normal_iteratorIPKcNSt7__cxx1112basic_stringIcSt11char_traitsIcESaIcEEEEEcNS4_12regex_traitsIcEEEbT_SD_RKNS4_11basic_regexIT0_T1_EENSt15regex_constants15match_flag_typeE:
LFB5799:
	pushq	%rbp
LCFI663:
	movq	%rsp, %rbp
LCFI664:
	pushq	%rbx
	subq	$72, %rsp
LCFI665:
	movq	%rdi, -56(%rbp)
	movq	%rsi, -64(%rbp)
	movq	%rdx, -72(%rbp)
	movl	%ecx, -76(%rbp)
	leaq	-48(%rbp), %rax
	movq	%rax, %rdi
	call	__ZNSt7__cxx1113match_resultsIN9__gnu_cxx17__normal_iteratorIPKcNS_12basic_stringIcSt11char_traitsIcESaIcEEEEESaINS_9sub_matchISA_EEEEC1Ev
	movl	-76(%rbp), %ecx
	movq	-72(%rbp), %rdx
	leaq	-48(%rbp), %rax
	movq	-64(%rbp), %rsi
	movq	-56(%rbp), %rdi
	movl	%ecx, %r8d
	movq	%rdx, %rcx
	movq	%rax, %rdx
LEHB51:
	call	__ZSt12regex_searchIN9__gnu_cxx17__normal_iteratorIPKcNSt7__cxx1112basic_stringIcSt11char_traitsIcESaIcEEEEESaINS4_9sub_matchISA_EEEcNS4_12regex_traitsIcEEEbT_SG_RNS4_13match_resultsISG_T0_EERKNS4_11basic_regexIT1_T2_EENSt15regex_constants15match_flag_typeE
LEHE51:
	movl	%eax, %ebx
	nop
	leaq	-48(%rbp), %rax
	movq	%rax, %rdi
	call	__ZNSt7__cxx1113match_resultsIN9__gnu_cxx17__normal_iteratorIPKcNS_12basic_stringIcSt11char_traitsIcESaIcEEEEESaINS_9sub_matchISA_EEEED1Ev
	movl	%ebx, %eax
	jmp	L465
L464:
	movq	%rax, %rbx
	leaq	-48(%rbp), %rax
	movq	%rax, %rdi
	call	__ZNSt7__cxx1113match_resultsIN9__gnu_cxx17__normal_iteratorIPKcNS_12basic_stringIcSt11char_traitsIcESaIcEEEEESaINS_9sub_matchISA_EEEED1Ev
	movq	%rbx, %rax
	movq	%rax, %rdi
LEHB52:
	call	__Unwind_Resume
LEHE52:
L465:
	addq	$72, %rsp
	popq	%rbx
	popq	%rbp
LCFI666:
	ret
LFE5799:
	.section __DATA,__gcc_except_tab
GCC_except_table20:
LLSDA5799:
	.byte	0xff
	.byte	0x3
	.byte	0x1a
	.set L$set$138,LEHB51-LFB5799
	.long L$set$138
	.set L$set$139,LEHE51-LEHB51
	.long L$set$139
	.set L$set$140,L464-LFB5799
	.long L$set$140
	.byte	0
	.set L$set$141,LEHB52-LFB5799
	.long L$set$141
	.set L$set$142,LEHE52-LEHB52
	.long L$set$142
	.long	0
	.byte	0
	.section __TEXT,__textcoal_nt,coalesced,pure_instructions
	.align 1
	.globl __ZNSaISt4pairIiPcEEC2Ev
	.weak_definition __ZNSaISt4pairIiPcEEC2Ev
__ZNSaISt4pairIiPcEEC2Ev:
LFB5804:
	pushq	%rbp
LCFI667:
	movq	%rsp, %rbp
LCFI668:
	subq	$16, %rsp
	movq	%rdi, -8(%rbp)
	movq	-8(%rbp), %rax
	movq	%rax, %rdi
	call	__ZN9__gnu_cxx13new_allocatorISt4pairIiPcEEC2Ev
	nop
	leave
LCFI669:
	ret
LFE5804:
	.align 1
	.globl __ZNSt12_Vector_baseISt4pairIiPcESaIS2_EE17_Vector_impl_dataC2Ev
	.weak_definition __ZNSt12_Vector_baseISt4pairIiPcESaIS2_EE17_Vector_impl_dataC2Ev
__ZNSt12_Vector_baseISt4pairIiPcESaIS2_EE17_Vector_impl_dataC2Ev:
LFB5807:
	pushq	%rbp
LCFI670:
	movq	%rsp, %rbp
LCFI671:
	movq	%rdi, -8(%rbp)
	movq	-8(%rbp), %rax
	movq	$0, (%rax)
	movq	-8(%rbp), %rax
	movq	$0, 8(%rax)
	movq	-8(%rbp), %rax
	movq	$0, 16(%rax)
	nop
	popq	%rbp
LCFI672:
	ret
LFE5807:
	.align 1
	.globl __ZN9__gnu_cxx13new_allocatorISt4pairIiPcEED2Ev
	.weak_definition __ZN9__gnu_cxx13new_allocatorISt4pairIiPcEED2Ev
__ZN9__gnu_cxx13new_allocatorISt4pairIiPcEED2Ev:
LFB5810:
	pushq	%rbp
LCFI673:
	movq	%rsp, %rbp
LCFI674:
	movq	%rdi, -8(%rbp)
	nop
	popq	%rbp
LCFI675:
	ret
LFE5810:
	.align 1
	.globl __ZNSt12_Vector_baseISt4pairIiPcESaIS2_EE13_M_deallocateEPS2_m
	.weak_definition __ZNSt12_Vector_baseISt4pairIiPcESaIS2_EE13_M_deallocateEPS2_m
__ZNSt12_Vector_baseISt4pairIiPcESaIS2_EE13_M_deallocateEPS2_m:
LFB5812:
	pushq	%rbp
LCFI676:
	movq	%rsp, %rbp
LCFI677:
	subq	$32, %rsp
	movq	%rdi, -8(%rbp)
	movq	%rsi, -16(%rbp)
	movq	%rdx, -24(%rbp)
	cmpq	$0, -16(%rbp)
	je	L471
	movq	-8(%rbp), %rax
	movq	-24(%rbp), %rdx
	movq	-16(%rbp), %rcx
	movq	%rcx, %rsi
	movq	%rax, %rdi
	call	__ZNSt16allocator_traitsISaISt4pairIiPcEEE10deallocateERS3_PS2_m
L471:
	nop
	leave
LCFI678:
	ret
LFE5812:
	.align 1
	.globl __ZNSt12_Vector_baseISt4pairIiPcESaIS2_EE19_M_get_Tp_allocatorEv
	.weak_definition __ZNSt12_Vector_baseISt4pairIiPcESaIS2_EE19_M_get_Tp_allocatorEv
__ZNSt12_Vector_baseISt4pairIiPcESaIS2_EE19_M_get_Tp_allocatorEv:
LFB5813:
	pushq	%rbp
LCFI679:
	movq	%rsp, %rbp
LCFI680:
	movq	%rdi, -8(%rbp)
	movq	-8(%rbp), %rax
	popq	%rbp
LCFI681:
	ret
LFE5813:
	.globl __ZSt8_DestroyIPSt4pairIiPcES2_EvT_S4_RSaIT0_E
	.weak_definition __ZSt8_DestroyIPSt4pairIiPcES2_EvT_S4_RSaIT0_E
__ZSt8_DestroyIPSt4pairIiPcES2_EvT_S4_RSaIT0_E:
LFB5814:
	pushq	%rbp
LCFI682:
	movq	%rsp, %rbp
LCFI683:
	subq	$32, %rsp
	movq	%rdi, -8(%rbp)
	movq	%rsi, -16(%rbp)
	movq	%rdx, -24(%rbp)
	movq	-16(%rbp), %rdx
	movq	-8(%rbp), %rax
	movq	%rdx, %rsi
	movq	%rax, %rdi
	call	__ZSt8_DestroyIPSt4pairIiPcEEvT_S4_
	nop
	leave
LCFI684:
	ret
LFE5814:
	.align 1
	.globl __ZNSaINSt7__cxx1112basic_stringIcSt11char_traitsIcESaIcEEEEC2Ev
	.weak_definition __ZNSaINSt7__cxx1112basic_stringIcSt11char_traitsIcESaIcEEEEC2Ev
__ZNSaINSt7__cxx1112basic_stringIcSt11char_traitsIcESaIcEEEEC2Ev:
LFB5816:
	pushq	%rbp
LCFI685:
	movq	%rsp, %rbp
LCFI686:
	subq	$16, %rsp
	movq	%rdi, -8(%rbp)
	movq	-8(%rbp), %rax
	movq	%rax, %rdi
	call	__ZN9__gnu_cxx13new_allocatorINSt7__cxx1112basic_stringIcSt11char_traitsIcESaIcEEEEC2Ev
	nop
	leave
LCFI687:
	ret
LFE5816:
	.align 1
	.globl __ZNSt12_Vector_baseINSt7__cxx1112basic_stringIcSt11char_traitsIcESaIcEEESaIS5_EE17_Vector_impl_dataC2Ev
	.weak_definition __ZNSt12_Vector_baseINSt7__cxx1112basic_stringIcSt11char_traitsIcESaIcEEESaIS5_EE17_Vector_impl_dataC2Ev
__ZNSt12_Vector_baseINSt7__cxx1112basic_stringIcSt11char_traitsIcESaIcEEESaIS5_EE17_Vector_impl_dataC2Ev:
LFB5819:
	pushq	%rbp
LCFI688:
	movq	%rsp, %rbp
LCFI689:
	movq	%rdi, -8(%rbp)
	movq	-8(%rbp), %rax
	movq	$0, (%rax)
	movq	-8(%rbp), %rax
	movq	$0, 8(%rax)
	movq	-8(%rbp), %rax
	movq	$0, 16(%rax)
	nop
	popq	%rbp
LCFI690:
	ret
LFE5819:
	.align 1
	.globl __ZN9__gnu_cxx13new_allocatorINSt7__cxx1112basic_stringIcSt11char_traitsIcESaIcEEEED2Ev
	.weak_definition __ZN9__gnu_cxx13new_allocatorINSt7__cxx1112basic_stringIcSt11char_traitsIcESaIcEEEED2Ev
__ZN9__gnu_cxx13new_allocatorINSt7__cxx1112basic_stringIcSt11char_traitsIcESaIcEEEED2Ev:
LFB5822:
	pushq	%rbp
LCFI691:
	movq	%rsp, %rbp
LCFI692:
	movq	%rdi, -8(%rbp)
	nop
	popq	%rbp
LCFI693:
	ret
LFE5822:
	.align 1
	.globl __ZNSt12_Vector_baseINSt7__cxx1112basic_stringIcSt11char_traitsIcESaIcEEESaIS5_EE13_M_deallocateEPS5_m
	.weak_definition __ZNSt12_Vector_baseINSt7__cxx1112basic_stringIcSt11char_traitsIcESaIcEEESaIS5_EE13_M_deallocateEPS5_m
__ZNSt12_Vector_baseINSt7__cxx1112basic_stringIcSt11char_traitsIcESaIcEEESaIS5_EE13_M_deallocateEPS5_m:
LFB5824:
	pushq	%rbp
LCFI694:
	movq	%rsp, %rbp
LCFI695:
	subq	$32, %rsp
	movq	%rdi, -8(%rbp)
	movq	%rsi, -16(%rbp)
	movq	%rdx, -24(%rbp)
	cmpq	$0, -16(%rbp)
	je	L480
	movq	-8(%rbp), %rax
	movq	-24(%rbp), %rdx
	movq	-16(%rbp), %rcx
	movq	%rcx, %rsi
	movq	%rax, %rdi
	call	__ZNSt16allocator_traitsISaINSt7__cxx1112basic_stringIcSt11char_traitsIcESaIcEEEEE10deallocateERS6_PS5_m
L480:
	nop
	leave
LCFI696:
	ret
LFE5824:
	.align 1
	.globl __ZNSt12_Vector_baseINSt7__cxx1112basic_stringIcSt11char_traitsIcESaIcEEESaIS5_EE19_M_get_Tp_allocatorEv
	.weak_definition __ZNSt12_Vector_baseINSt7__cxx1112basic_stringIcSt11char_traitsIcESaIcEEESaIS5_EE19_M_get_Tp_allocatorEv
__ZNSt12_Vector_baseINSt7__cxx1112basic_stringIcSt11char_traitsIcESaIcEEESaIS5_EE19_M_get_Tp_allocatorEv:
LFB5825:
	pushq	%rbp
LCFI697:
	movq	%rsp, %rbp
LCFI698:
	movq	%rdi, -8(%rbp)
	movq	-8(%rbp), %rax
	popq	%rbp
LCFI699:
	ret
LFE5825:
	.globl __ZSt8_DestroyIPNSt7__cxx1112basic_stringIcSt11char_traitsIcESaIcEEES5_EvT_S7_RSaIT0_E
	.weak_definition __ZSt8_DestroyIPNSt7__cxx1112basic_stringIcSt11char_traitsIcESaIcEEES5_EvT_S7_RSaIT0_E
__ZSt8_DestroyIPNSt7__cxx1112basic_stringIcSt11char_traitsIcESaIcEEES5_EvT_S7_RSaIT0_E:
LFB5826:
	pushq	%rbp
LCFI700:
	movq	%rsp, %rbp
LCFI701:
	subq	$32, %rsp
	movq	%rdi, -8(%rbp)
	movq	%rsi, -16(%rbp)
	movq	%rdx, -24(%rbp)
	movq	-16(%rbp), %rdx
	movq	-8(%rbp), %rax
	movq	%rdx, %rsi
	movq	%rax, %rdi
	call	__ZSt8_DestroyIPNSt7__cxx1112basic_stringIcSt11char_traitsIcESaIcEEEEvT_S7_
	nop
	leave
LCFI702:
	ret
LFE5826:
	.globl __ZNSt16allocator_traitsISaINSt7__cxx1112basic_stringIcSt11char_traitsIcESaIcEEEEE9constructIS5_JRKS5_EEEvRS6_PT_DpOT0_
	.weak_definition __ZNSt16allocator_traitsISaINSt7__cxx1112basic_stringIcSt11char_traitsIcESaIcEEEEE9constructIS5_JRKS5_EEEvRS6_PT_DpOT0_
__ZNSt16allocator_traitsISaINSt7__cxx1112basic_stringIcSt11char_traitsIcESaIcEEEEE9constructIS5_JRKS5_EEEvRS6_PT_DpOT0_:
LFB5827:
	pushq	%rbp
LCFI703:
	movq	%rsp, %rbp
LCFI704:
	subq	$32, %rsp
	movq	%rdi, -8(%rbp)
	movq	%rsi, -16(%rbp)
	movq	%rdx, -24(%rbp)
	movq	-24(%rbp), %rax
	movq	%rax, %rdi
	call	__ZSt7forwardIRKNSt7__cxx1112basic_stringIcSt11char_traitsIcESaIcEEEEOT_RNSt16remove_referenceIS8_E4typeE
	movq	%rax, %rdx
	movq	-16(%rbp), %rcx
	movq	-8(%rbp), %rax
	movq	%rcx, %rsi
	movq	%rax, %rdi
	call	__ZN9__gnu_cxx13new_allocatorINSt7__cxx1112basic_stringIcSt11char_traitsIcESaIcEEEE9constructIS6_JRKS6_EEEvPT_DpOT0_
	nop
	leave
LCFI705:
	ret
LFE5827:
	.globl __ZNSt6vectorINSt7__cxx1112basic_stringIcSt11char_traitsIcESaIcEEESaIS5_EE15_S_use_relocateEv
	.weak_definition __ZNSt6vectorINSt7__cxx1112basic_stringIcSt11char_traitsIcESaIcEEESaIS5_EE15_S_use_relocateEv
__ZNSt6vectorINSt7__cxx1112basic_stringIcSt11char_traitsIcESaIcEEESaIS5_EE15_S_use_relocateEv:
LFB5829:
	pushq	%rbp
LCFI706:
	movq	%rsp, %rbp
LCFI707:
	subq	$16, %rsp
	call	__ZNSt6vectorINSt7__cxx1112basic_stringIcSt11char_traitsIcESaIcEEESaIS5_EE19_S_nothrow_relocateESt17integral_constantIbLb1EE
	leave
LCFI708:
	ret
LFE5829:
	.globl __ZNSt6vectorINSt7__cxx1112basic_stringIcSt11char_traitsIcESaIcEEESaIS5_EE19_S_nothrow_relocateESt17integral_constantIbLb1EE
	.weak_definition __ZNSt6vectorINSt7__cxx1112basic_stringIcSt11char_traitsIcESaIcEEESaIS5_EE19_S_nothrow_relocateESt17integral_constantIbLb1EE
__ZNSt6vectorINSt7__cxx1112basic_stringIcSt11char_traitsIcESaIcEEESaIS5_EE19_S_nothrow_relocateESt17integral_constantIbLb1EE:
LFB5830:
	pushq	%rbp
LCFI709:
	movq	%rsp, %rbp
LCFI710:
	movl	$1, %eax
	popq	%rbp
LCFI711:
	ret
LFE5830:
	.cstring
lC27:
	.ascii "vector::_M_realloc_insert\0"
	.section __TEXT,__textcoal_nt,coalesced,pure_instructions
	.align 1
	.globl __ZNSt6vectorINSt7__cxx1112basic_stringIcSt11char_traitsIcESaIcEEESaIS5_EE17_M_realloc_insertIJRKS5_EEEvN9__gnu_cxx17__normal_iteratorIPS5_S7_EEDpOT_
	.weak_definition __ZNSt6vectorINSt7__cxx1112basic_stringIcSt11char_traitsIcESaIcEEESaIS5_EE17_M_realloc_insertIJRKS5_EEEvN9__gnu_cxx17__normal_iteratorIPS5_S7_EEDpOT_
__ZNSt6vectorINSt7__cxx1112basic_stringIcSt11char_traitsIcESaIcEEESaIS5_EE17_M_realloc_insertIJRKS5_EEEvN9__gnu_cxx17__normal_iteratorIPS5_S7_EEDpOT_:
LFB5828:
	pushq	%rbp
LCFI712:
	movq	%rsp, %rbp
LCFI713:
	pushq	%rbx
	subq	$104, %rsp
LCFI714:
	movq	%rdi, -88(%rbp)
	movq	%rsi, -96(%rbp)
	movq	%rdx, -104(%rbp)
	movq	-88(%rbp), %rax
	leaq	lC27(%rip), %rdx
	movl	$1, %esi
	movq	%rax, %rdi
LEHB53:
	call	__ZNKSt6vectorINSt7__cxx1112basic_stringIcSt11char_traitsIcESaIcEEESaIS5_EE12_M_check_lenEmPKc
	movq	%rax, -32(%rbp)
	movq	-88(%rbp), %rax
	movq	(%rax), %rax
	movq	%rax, -40(%rbp)
	movq	-88(%rbp), %rax
	movq	8(%rax), %rax
	movq	%rax, -48(%rbp)
	movq	-88(%rbp), %rax
	movq	%rax, %rdi
	call	__ZNSt6vectorINSt7__cxx1112basic_stringIcSt11char_traitsIcESaIcEEESaIS5_EE5beginEv
	movq	%rax, -72(%rbp)
	leaq	-72(%rbp), %rdx
	leaq	-96(%rbp), %rax
	movq	%rdx, %rsi
	movq	%rax, %rdi
	call	__ZN9__gnu_cxxmiIPNSt7__cxx1112basic_stringIcSt11char_traitsIcESaIcEEESt6vectorIS6_SaIS6_EEEENS_17__normal_iteratorIT_T0_E15difference_typeERKSE_SH_
	movq	%rax, -56(%rbp)
	movq	-88(%rbp), %rax
	movq	-32(%rbp), %rdx
	movq	%rdx, %rsi
	movq	%rax, %rdi
	call	__ZNSt12_Vector_baseINSt7__cxx1112basic_stringIcSt11char_traitsIcESaIcEEESaIS5_EE11_M_allocateEm
LEHE53:
	movq	%rax, -64(%rbp)
	movq	-64(%rbp), %rax
	movq	%rax, -24(%rbp)
	movq	-104(%rbp), %rax
	movq	%rax, %rdi
	call	__ZSt7forwardIRKNSt7__cxx1112basic_stringIcSt11char_traitsIcESaIcEEEEOT_RNSt16remove_referenceIS8_E4typeE
	movq	%rax, %rdx
	movq	-56(%rbp), %rax
	salq	$5, %rax
	movq	%rax, %rcx
	movq	-64(%rbp), %rax
	addq	%rax, %rcx
	movq	-88(%rbp), %rax
	movq	%rcx, %rsi
	movq	%rax, %rdi
LEHB54:
	call	__ZNSt16allocator_traitsISaINSt7__cxx1112basic_stringIcSt11char_traitsIcESaIcEEEEE9constructIS5_JRKS5_EEEvRS6_PT_DpOT0_
	movq	$0, -24(%rbp)
	call	__ZNSt6vectorINSt7__cxx1112basic_stringIcSt11char_traitsIcESaIcEEESaIS5_EE15_S_use_relocateEv
	testb	%al, %al
	je	L490
	movq	-88(%rbp), %rax
	movq	%rax, %rdi
	call	__ZNSt12_Vector_baseINSt7__cxx1112basic_stringIcSt11char_traitsIcESaIcEEESaIS5_EE19_M_get_Tp_allocatorEv
	movq	%rax, %rbx
	leaq	-96(%rbp), %rax
	movq	%rax, %rdi
	call	__ZNK9__gnu_cxx17__normal_iteratorIPNSt7__cxx1112basic_stringIcSt11char_traitsIcESaIcEEESt6vectorIS6_SaIS6_EEE4baseEv
	movq	(%rax), %rsi
	movq	-64(%rbp), %rdx
	movq	-40(%rbp), %rax
	movq	%rbx, %rcx
	movq	%rax, %rdi
	call	__ZNSt6vectorINSt7__cxx1112basic_stringIcSt11char_traitsIcESaIcEEESaIS5_EE11_S_relocateEPS5_S8_S8_RS6_
	movq	%rax, -24(%rbp)
	addq	$32, -24(%rbp)
	movq	-88(%rbp), %rax
	movq	%rax, %rdi
	call	__ZNSt12_Vector_baseINSt7__cxx1112basic_stringIcSt11char_traitsIcESaIcEEESaIS5_EE19_M_get_Tp_allocatorEv
	movq	%rax, %rbx
	leaq	-96(%rbp), %rax
	movq	%rax, %rdi
	call	__ZNK9__gnu_cxx17__normal_iteratorIPNSt7__cxx1112basic_stringIcSt11char_traitsIcESaIcEEESt6vectorIS6_SaIS6_EEE4baseEv
	movq	(%rax), %rax
	movq	-24(%rbp), %rdx
	movq	-48(%rbp), %rsi
	movq	%rbx, %rcx
	movq	%rax, %rdi
	call	__ZNSt6vectorINSt7__cxx1112basic_stringIcSt11char_traitsIcESaIcEEESaIS5_EE11_S_relocateEPS5_S8_S8_RS6_
	movq	%rax, -24(%rbp)
	jmp	L491
L490:
	movq	-88(%rbp), %rax
	movq	%rax, %rdi
	call	__ZNSt12_Vector_baseINSt7__cxx1112basic_stringIcSt11char_traitsIcESaIcEEESaIS5_EE19_M_get_Tp_allocatorEv
	movq	%rax, %rbx
	leaq	-96(%rbp), %rax
	movq	%rax, %rdi
	call	__ZNK9__gnu_cxx17__normal_iteratorIPNSt7__cxx1112basic_stringIcSt11char_traitsIcESaIcEEESt6vectorIS6_SaIS6_EEE4baseEv
	movq	(%rax), %rsi
	movq	-64(%rbp), %rdx
	movq	-40(%rbp), %rax
	movq	%rbx, %rcx
	movq	%rax, %rdi
	call	__ZSt34__uninitialized_move_if_noexcept_aIPNSt7__cxx1112basic_stringIcSt11char_traitsIcESaIcEEES6_SaIS5_EET0_T_S9_S8_RT1_
	movq	%rax, -24(%rbp)
	addq	$32, -24(%rbp)
	movq	-88(%rbp), %rax
	movq	%rax, %rdi
	call	__ZNSt12_Vector_baseINSt7__cxx1112basic_stringIcSt11char_traitsIcESaIcEEESaIS5_EE19_M_get_Tp_allocatorEv
	movq	%rax, %rbx
	leaq	-96(%rbp), %rax
	movq	%rax, %rdi
	call	__ZNK9__gnu_cxx17__normal_iteratorIPNSt7__cxx1112basic_stringIcSt11char_traitsIcESaIcEEESt6vectorIS6_SaIS6_EEE4baseEv
	movq	(%rax), %rax
	movq	-24(%rbp), %rdx
	movq	-48(%rbp), %rsi
	movq	%rbx, %rcx
	movq	%rax, %rdi
	call	__ZSt34__uninitialized_move_if_noexcept_aIPNSt7__cxx1112basic_stringIcSt11char_traitsIcESaIcEEES6_SaIS5_EET0_T_S9_S8_RT1_
LEHE54:
	movq	%rax, -24(%rbp)
L491:
	call	__ZNSt6vectorINSt7__cxx1112basic_stringIcSt11char_traitsIcESaIcEEESaIS5_EE15_S_use_relocateEv
	xorl	$1, %eax
	testb	%al, %al
	je	L492
	movq	-88(%rbp), %rax
	movq	%rax, %rdi
	call	__ZNSt12_Vector_baseINSt7__cxx1112basic_stringIcSt11char_traitsIcESaIcEEESaIS5_EE19_M_get_Tp_allocatorEv
	movq	%rax, %rdx
	movq	-48(%rbp), %rcx
	movq	-40(%rbp), %rax
	movq	%rcx, %rsi
	movq	%rax, %rdi
LEHB55:
	call	__ZSt8_DestroyIPNSt7__cxx1112basic_stringIcSt11char_traitsIcESaIcEEES5_EvT_S7_RSaIT0_E
L492:
	movq	-88(%rbp), %rax
	movq	-88(%rbp), %rdx
	movq	16(%rdx), %rdx
	subq	-40(%rbp), %rdx
	sarq	$5, %rdx
	movq	-40(%rbp), %rcx
	movq	%rcx, %rsi
	movq	%rax, %rdi
	call	__ZNSt12_Vector_baseINSt7__cxx1112basic_stringIcSt11char_traitsIcESaIcEEESaIS5_EE13_M_deallocateEPS5_m
LEHE55:
	movq	-88(%rbp), %rax
	movq	-64(%rbp), %rdx
	movq	%rdx, (%rax)
	movq	-88(%rbp), %rax
	movq	-24(%rbp), %rdx
	movq	%rdx, 8(%rax)
	movq	-32(%rbp), %rax
	salq	$5, %rax
	movq	%rax, %rdx
	movq	-64(%rbp), %rax
	addq	%rax, %rdx
	movq	-88(%rbp), %rax
	movq	%rdx, 16(%rax)
	jmp	L499
L497:
	movq	%rax, %rdi
	call	___cxa_begin_catch
	cmpq	$0, -24(%rbp)
	jne	L494
	movq	-56(%rbp), %rax
	salq	$5, %rax
	movq	%rax, %rdx
	movq	-64(%rbp), %rax
	addq	%rax, %rdx
	movq	-88(%rbp), %rax
	movq	%rdx, %rsi
	movq	%rax, %rdi
	call	__ZNSt16allocator_traitsISaINSt7__cxx1112basic_stringIcSt11char_traitsIcESaIcEEEEE7destroyIS5_EEvRS6_PT_
	jmp	L495
L494:
	movq	-88(%rbp), %rax
	movq	%rax, %rdi
	call	__ZNSt12_Vector_baseINSt7__cxx1112basic_stringIcSt11char_traitsIcESaIcEEESaIS5_EE19_M_get_Tp_allocatorEv
	movq	%rax, %rdx
	movq	-24(%rbp), %rcx
	movq	-64(%rbp), %rax
	movq	%rcx, %rsi
	movq	%rax, %rdi
LEHB56:
	call	__ZSt8_DestroyIPNSt7__cxx1112basic_stringIcSt11char_traitsIcESaIcEEES5_EvT_S7_RSaIT0_E
L495:
	movq	-88(%rbp), %rax
	movq	-32(%rbp), %rdx
	movq	-64(%rbp), %rcx
	movq	%rcx, %rsi
	movq	%rax, %rdi
	call	__ZNSt12_Vector_baseINSt7__cxx1112basic_stringIcSt11char_traitsIcESaIcEEESaIS5_EE13_M_deallocateEPS5_m
	call	___cxa_rethrow
LEHE56:
L498:
	movq	%rax, %rbx
	call	___cxa_end_catch
	movq	%rbx, %rax
	movq	%rax, %rdi
LEHB57:
	call	__Unwind_Resume
LEHE57:
L499:
	addq	$104, %rsp
	popq	%rbx
	popq	%rbp
LCFI715:
	ret
LFE5828:
	.section __DATA,__gcc_except_tab
GCC_except_table21:
	.align 3
LLSDA5828:
	.byte	0xff
	.byte	0
	.byte	0x4d
	.byte	0x3
	.byte	0x41
	.set L$set$143,LEHB53-LFB5828
	.long L$set$143
	.set L$set$144,LEHE53-LEHB53
	.long L$set$144
	.long	0
	.byte	0
	.set L$set$145,LEHB54-LFB5828
	.long L$set$145
	.set L$set$146,LEHE54-LEHB54
	.long L$set$146
	.set L$set$147,L497-LFB5828
	.long L$set$147
	.byte	0x1
	.set L$set$148,LEHB55-LFB5828
	.long L$set$148
	.set L$set$149,LEHE55-LEHB55
	.long L$set$149
	.long	0
	.byte	0
	.set L$set$150,LEHB56-LFB5828
	.long L$set$150
	.set L$set$151,LEHE56-LEHB56
	.long L$set$151
	.set L$set$152,L498-LFB5828
	.long L$set$152
	.byte	0
	.set L$set$153,LEHB57-LFB5828
	.long L$set$153
	.set L$set$154,LEHE57-LEHB57
	.long L$set$154
	.long	0
	.byte	0
	.byte	0x1
	.byte	0
	.align 3
	.quad	0
	.section __TEXT,__textcoal_nt,coalesced,pure_instructions
	.align 1
	.globl __ZNSt6vectorINSt7__cxx1112basic_stringIcSt11char_traitsIcESaIcEEESaIS5_EE12emplace_backIJS5_EEEvDpOT_
	.weak_definition __ZNSt6vectorINSt7__cxx1112basic_stringIcSt11char_traitsIcESaIcEEESaIS5_EE12emplace_backIJS5_EEEvDpOT_
__ZNSt6vectorINSt7__cxx1112basic_stringIcSt11char_traitsIcESaIcEEESaIS5_EE12emplace_backIJS5_EEEvDpOT_:
LFB5831:
	pushq	%rbp
LCFI716:
	movq	%rsp, %rbp
LCFI717:
	pushq	%rbx
	subq	$24, %rsp
LCFI718:
	movq	%rdi, -24(%rbp)
	movq	%rsi, -32(%rbp)
	movq	-24(%rbp), %rax
	movq	8(%rax), %rdx
	movq	-24(%rbp), %rax
	movq	16(%rax), %rax
	cmpq	%rax, %rdx
	je	L501
	movq	-32(%rbp), %rax
	movq	%rax, %rdi
	call	__ZSt7forwardINSt7__cxx1112basic_stringIcSt11char_traitsIcESaIcEEEEOT_RNSt16remove_referenceIS6_E4typeE
	movq	%rax, %rdx
	movq	-24(%rbp), %rax
	movq	8(%rax), %rcx
	movq	-24(%rbp), %rax
	movq	%rcx, %rsi
	movq	%rax, %rdi
	call	__ZNSt16allocator_traitsISaINSt7__cxx1112basic_stringIcSt11char_traitsIcESaIcEEEEE9constructIS5_JS5_EEEvRS6_PT_DpOT0_
	movq	-24(%rbp), %rax
	movq	8(%rax), %rax
	leaq	32(%rax), %rdx
	movq	-24(%rbp), %rax
	movq	%rdx, 8(%rax)
	jmp	L503
L501:
	movq	-32(%rbp), %rax
	movq	%rax, %rdi
	call	__ZSt7forwardINSt7__cxx1112basic_stringIcSt11char_traitsIcESaIcEEEEOT_RNSt16remove_referenceIS6_E4typeE
	movq	%rax, %rbx
	movq	-24(%rbp), %rax
	movq	%rax, %rdi
	call	__ZNSt6vectorINSt7__cxx1112basic_stringIcSt11char_traitsIcESaIcEEESaIS5_EE3endEv
	movq	%rax, %rcx
	movq	-24(%rbp), %rax
	movq	%rbx, %rdx
	movq	%rcx, %rsi
	movq	%rax, %rdi
	call	__ZNSt6vectorINSt7__cxx1112basic_stringIcSt11char_traitsIcESaIcEEESaIS5_EE17_M_realloc_insertIJS5_EEEvN9__gnu_cxx17__normal_iteratorIPS5_S7_EEDpOT_
L503:
	nop
	addq	$24, %rsp
	popq	%rbx
	popq	%rbp
LCFI719:
	ret
LFE5831:
	.align 1
	.globl __ZN9__gnu_cxx17__normal_iteratorIPNSt7__cxx1112basic_stringIcSt11char_traitsIcESaIcEEESt6vectorIS6_SaIS6_EEEC1ERKS7_
	.weak_definition __ZN9__gnu_cxx17__normal_iteratorIPNSt7__cxx1112basic_stringIcSt11char_traitsIcESaIcEEESt6vectorIS6_SaIS6_EEEC1ERKS7_
__ZN9__gnu_cxx17__normal_iteratorIPNSt7__cxx1112basic_stringIcSt11char_traitsIcESaIcEEESt6vectorIS6_SaIS6_EEEC1ERKS7_:
LFB5855:
	pushq	%rbp
LCFI720:
	movq	%rsp, %rbp
LCFI721:
	movq	%rdi, -8(%rbp)
	movq	%rsi, -16(%rbp)
	movq	-16(%rbp), %rax
	movq	(%rax), %rdx
	movq	-8(%rbp), %rax
	movq	%rdx, (%rax)
	nop
	popq	%rbp
LCFI722:
	ret
LFE5855:
	.align 1
	.globl __ZNK9__gnu_cxx17__normal_iteratorIPNSt7__cxx1112basic_stringIcSt11char_traitsIcESaIcEEESt6vectorIS6_SaIS6_EEE4baseEv
	.weak_definition __ZNK9__gnu_cxx17__normal_iteratorIPNSt7__cxx1112basic_stringIcSt11char_traitsIcESaIcEEESt6vectorIS6_SaIS6_EEE4baseEv
__ZNK9__gnu_cxx17__normal_iteratorIPNSt7__cxx1112basic_stringIcSt11char_traitsIcESaIcEEESt6vectorIS6_SaIS6_EEE4baseEv:
LFB5856:
	pushq	%rbp
LCFI723:
	movq	%rsp, %rbp
LCFI724:
	movq	%rdi, -8(%rbp)
	movq	-8(%rbp), %rax
	popq	%rbp
LCFI725:
	ret
LFE5856:
	.align 1
	.globl __ZNK9__gnu_cxx17__normal_iteratorIPKNSt7__cxx1112basic_stringIcSt11char_traitsIcESaIcEEESt6vectorIS6_SaIS6_EEE4baseEv
	.weak_definition __ZNK9__gnu_cxx17__normal_iteratorIPKNSt7__cxx1112basic_stringIcSt11char_traitsIcESaIcEEESt6vectorIS6_SaIS6_EEE4baseEv
__ZNK9__gnu_cxx17__normal_iteratorIPKNSt7__cxx1112basic_stringIcSt11char_traitsIcESaIcEEESt6vectorIS6_SaIS6_EEE4baseEv:
LFB5857:
	pushq	%rbp
LCFI726:
	movq	%rsp, %rbp
LCFI727:
	movq	%rdi, -8(%rbp)
	movq	-8(%rbp), %rax
	popq	%rbp
LCFI728:
	ret
LFE5857:
	.align 1
	.globl __ZN9__gnu_cxx17__normal_iteratorIPKNSt7__cxx1112basic_stringIcSt11char_traitsIcESaIcEEESt6vectorIS6_SaIS6_EEEC1ERKS8_
	.weak_definition __ZN9__gnu_cxx17__normal_iteratorIPKNSt7__cxx1112basic_stringIcSt11char_traitsIcESaIcEEESt6vectorIS6_SaIS6_EEEC1ERKS8_
__ZN9__gnu_cxx17__normal_iteratorIPKNSt7__cxx1112basic_stringIcSt11char_traitsIcESaIcEEESt6vectorIS6_SaIS6_EEEC1ERKS8_:
LFB5860:
	pushq	%rbp
LCFI729:
	movq	%rsp, %rbp
LCFI730:
	movq	%rdi, -8(%rbp)
	movq	%rsi, -16(%rbp)
	movq	-16(%rbp), %rax
	movq	(%rax), %rdx
	movq	-8(%rbp), %rax
	movq	%rdx, (%rax)
	nop
	popq	%rbp
LCFI731:
	ret
LFE5860:
	.globl __ZN9__gnu_cxxneIPNSt7__cxx1112basic_stringIcSt11char_traitsIcESaIcEEESt6vectorIS6_SaIS6_EEEEbRKNS_17__normal_iteratorIT_T0_EESG_
	.weak_definition __ZN9__gnu_cxxneIPNSt7__cxx1112basic_stringIcSt11char_traitsIcESaIcEEESt6vectorIS6_SaIS6_EEEEbRKNS_17__normal_iteratorIT_T0_EESG_
__ZN9__gnu_cxxneIPNSt7__cxx1112basic_stringIcSt11char_traitsIcESaIcEEESt6vectorIS6_SaIS6_EEEEbRKNS_17__normal_iteratorIT_T0_EESG_:
LFB5861:
	pushq	%rbp
LCFI732:
	movq	%rsp, %rbp
LCFI733:
	pushq	%rbx
	subq	$24, %rsp
LCFI734:
	movq	%rdi, -24(%rbp)
	movq	%rsi, -32(%rbp)
	movq	-24(%rbp), %rax
	movq	%rax, %rdi
	call	__ZNK9__gnu_cxx17__normal_iteratorIPNSt7__cxx1112basic_stringIcSt11char_traitsIcESaIcEEESt6vectorIS6_SaIS6_EEE4baseEv
	movq	(%rax), %rbx
	movq	-32(%rbp), %rax
	movq	%rax, %rdi
	call	__ZNK9__gnu_cxx17__normal_iteratorIPNSt7__cxx1112basic_stringIcSt11char_traitsIcESaIcEEESt6vectorIS6_SaIS6_EEE4baseEv
	movq	(%rax), %rax
	cmpq	%rax, %rbx
	setne	%al
	addq	$24, %rsp
	popq	%rbx
	popq	%rbp
LCFI735:
	ret
LFE5861:
	.align 1
	.globl __ZN9__gnu_cxx17__normal_iteratorIPNSt7__cxx1112basic_stringIcSt11char_traitsIcESaIcEEESt6vectorIS6_SaIS6_EEEppEv
	.weak_definition __ZN9__gnu_cxx17__normal_iteratorIPNSt7__cxx1112basic_stringIcSt11char_traitsIcESaIcEEESt6vectorIS6_SaIS6_EEEppEv
__ZN9__gnu_cxx17__normal_iteratorIPNSt7__cxx1112basic_stringIcSt11char_traitsIcESaIcEEESt6vectorIS6_SaIS6_EEEppEv:
LFB5862:
	pushq	%rbp
LCFI736:
	movq	%rsp, %rbp
LCFI737:
	movq	%rdi, -8(%rbp)
	movq	-8(%rbp), %rax
	movq	(%rax), %rax
	leaq	32(%rax), %rdx
	movq	-8(%rbp), %rax
	movq	%rdx, (%rax)
	movq	-8(%rbp), %rax
	popq	%rbp
LCFI738:
	ret
LFE5862:
	.align 1
	.globl __ZNK9__gnu_cxx17__normal_iteratorIPNSt7__cxx1112basic_stringIcSt11char_traitsIcESaIcEEESt6vectorIS6_SaIS6_EEEdeEv
	.weak_definition __ZNK9__gnu_cxx17__normal_iteratorIPNSt7__cxx1112basic_stringIcSt11char_traitsIcESaIcEEESt6vectorIS6_SaIS6_EEEdeEv
__ZNK9__gnu_cxx17__normal_iteratorIPNSt7__cxx1112basic_stringIcSt11char_traitsIcESaIcEEESt6vectorIS6_SaIS6_EEEdeEv:
LFB5863:
	pushq	%rbp
LCFI739:
	movq	%rsp, %rbp
LCFI740:
	movq	%rdi, -8(%rbp)
	movq	-8(%rbp), %rax
	movq	(%rax), %rax
	popq	%rbp
LCFI741:
	ret
LFE5863:
	.align 1
	.globl __ZN4test7printerINSt7__cxx1112basic_stringIcSt11char_traitsIcESaIcEEEEclES6_
	.weak_definition __ZN4test7printerINSt7__cxx1112basic_stringIcSt11char_traitsIcESaIcEEEEclES6_
__ZN4test7printerINSt7__cxx1112basic_stringIcSt11char_traitsIcESaIcEEEEclES6_:
LFB5864:
	pushq	%rbp
LCFI742:
	movq	%rsp, %rbp
LCFI743:
	subq	$16, %rsp
	movq	%rdi, -8(%rbp)
	movq	%rsi, -16(%rbp)
	movq	-8(%rbp), %rax
	movq	(%rax), %rax
	movq	%rax, %rdx
	movq	-16(%rbp), %rax
	movq	%rax, %rsi
	movq	%rdx, %rdi
	call	__ZStlsIcSt11char_traitsIcESaIcEERSt13basic_ostreamIT_T0_ES7_RKNSt7__cxx1112basic_stringIS4_S5_T1_EE
	movq	%rax, %rdx
	movq	__ZSt4endlIcSt11char_traitsIcEERSt13basic_ostreamIT_T0_ES6_@GOTPCREL(%rip), %rax
	movq	%rax, %rsi
	movq	%rdx, %rdi
	call	__ZNSolsEPFRSoS_E
	nop
	leave
LCFI744:
	ret
LFE5864:
	.align 1
	.globl __ZNSaISt13_Rb_tree_nodeISt4pairIKNSt7__cxx1112basic_stringIcSt11char_traitsIcESaIcEEES0_IibEEEEC2Ev
	.weak_definition __ZNSaISt13_Rb_tree_nodeISt4pairIKNSt7__cxx1112basic_stringIcSt11char_traitsIcESaIcEEES0_IibEEEEC2Ev
__ZNSaISt13_Rb_tree_nodeISt4pairIKNSt7__cxx1112basic_stringIcSt11char_traitsIcESaIcEEES0_IibEEEEC2Ev:
LFB5867:
	pushq	%rbp
LCFI745:
	movq	%rsp, %rbp
LCFI746:
	subq	$16, %rsp
	movq	%rdi, -8(%rbp)
	movq	-8(%rbp), %rax
	movq	%rax, %rdi
	call	__ZN9__gnu_cxx13new_allocatorISt13_Rb_tree_nodeISt4pairIKNSt7__cxx1112basic_stringIcSt11char_traitsIcESaIcEEES2_IibEEEEC2Ev
	nop
	leave
LCFI747:
	ret
LFE5867:
	.align 1
	.globl __ZNSt20_Rb_tree_key_compareISt4lessINSt7__cxx1112basic_stringIcSt11char_traitsIcESaIcEEEEEC2Ev
	.weak_definition __ZNSt20_Rb_tree_key_compareISt4lessINSt7__cxx1112basic_stringIcSt11char_traitsIcESaIcEEEEEC2Ev
__ZNSt20_Rb_tree_key_compareISt4lessINSt7__cxx1112basic_stringIcSt11char_traitsIcESaIcEEEEEC2Ev:
LFB5870:
	pushq	%rbp
LCFI748:
	movq	%rsp, %rbp
LCFI749:
	movq	%rdi, -8(%rbp)
	nop
	popq	%rbp
LCFI750:
	ret
LFE5870:
	.align 1
	.globl __ZN9__gnu_cxx13new_allocatorISt13_Rb_tree_nodeISt4pairIKNSt7__cxx1112basic_stringIcSt11char_traitsIcESaIcEEES2_IibEEEED2Ev
	.weak_definition __ZN9__gnu_cxx13new_allocatorISt13_Rb_tree_nodeISt4pairIKNSt7__cxx1112basic_stringIcSt11char_traitsIcESaIcEEES2_IibEEEED2Ev
__ZN9__gnu_cxx13new_allocatorISt13_Rb_tree_nodeISt4pairIKNSt7__cxx1112basic_stringIcSt11char_traitsIcESaIcEEES2_IibEEEED2Ev:
LFB5873:
	pushq	%rbp
LCFI751:
	movq	%rsp, %rbp
LCFI752:
	movq	%rdi, -8(%rbp)
	nop
	popq	%rbp
LCFI753:
	ret
LFE5873:
	.align 1
	.globl __ZNSt8_Rb_treeINSt7__cxx1112basic_stringIcSt11char_traitsIcESaIcEEESt4pairIKS5_S6_IibEESt10_Select1stIS9_ESt4lessIS5_ESaIS9_EE8_M_eraseEPSt13_Rb_tree_nodeIS9_E
	.weak_definition __ZNSt8_Rb_treeINSt7__cxx1112basic_stringIcSt11char_traitsIcESaIcEEESt4pairIKS5_S6_IibEESt10_Select1stIS9_ESt4lessIS5_ESaIS9_EE8_M_eraseEPSt13_Rb_tree_nodeIS9_E
__ZNSt8_Rb_treeINSt7__cxx1112basic_stringIcSt11char_traitsIcESaIcEEESt4pairIKS5_S6_IibEESt10_Select1stIS9_ESt4lessIS5_ESaIS9_EE8_M_eraseEPSt13_Rb_tree_nodeIS9_E:
LFB5875:
	pushq	%rbp
LCFI754:
	movq	%rsp, %rbp
LCFI755:
	subq	$32, %rsp
	movq	%rdi, -24(%rbp)
	movq	%rsi, -32(%rbp)
L522:
	cmpq	$0, -32(%rbp)
	je	L523
	movq	-32(%rbp), %rax
	movq	%rax, %rdi
	call	__ZNSt8_Rb_treeINSt7__cxx1112basic_stringIcSt11char_traitsIcESaIcEEESt4pairIKS5_S6_IibEESt10_Select1stIS9_ESt4lessIS5_ESaIS9_EE8_S_rightEPSt18_Rb_tree_node_base
	movq	%rax, %rdx
	movq	-24(%rbp), %rax
	movq	%rdx, %rsi
	movq	%rax, %rdi
	call	__ZNSt8_Rb_treeINSt7__cxx1112basic_stringIcSt11char_traitsIcESaIcEEESt4pairIKS5_S6_IibEESt10_Select1stIS9_ESt4lessIS5_ESaIS9_EE8_M_eraseEPSt13_Rb_tree_nodeIS9_E
	movq	-32(%rbp), %rax
	movq	%rax, %rdi
	call	__ZNSt8_Rb_treeINSt7__cxx1112basic_stringIcSt11char_traitsIcESaIcEEESt4pairIKS5_S6_IibEESt10_Select1stIS9_ESt4lessIS5_ESaIS9_EE7_S_leftEPSt18_Rb_tree_node_base
	movq	%rax, -8(%rbp)
	movq	-32(%rbp), %rdx
	movq	-24(%rbp), %rax
	movq	%rdx, %rsi
	movq	%rax, %rdi
	call	__ZNSt8_Rb_treeINSt7__cxx1112basic_stringIcSt11char_traitsIcESaIcEEESt4pairIKS5_S6_IibEESt10_Select1stIS9_ESt4lessIS5_ESaIS9_EE12_M_drop_nodeEPSt13_Rb_tree_nodeIS9_E
	movq	-8(%rbp), %rax
	movq	%rax, -32(%rbp)
	jmp	L522
L523:
	nop
	leave
LCFI756:
	ret
LFE5875:
	.align 1
	.globl __ZNSt8_Rb_treeINSt7__cxx1112basic_stringIcSt11char_traitsIcESaIcEEESt4pairIKS5_S6_IibEESt10_Select1stIS9_ESt4lessIS5_ESaIS9_EE8_M_beginEv
	.weak_definition __ZNSt8_Rb_treeINSt7__cxx1112basic_stringIcSt11char_traitsIcESaIcEEESt4pairIKS5_S6_IibEESt10_Select1stIS9_ESt4lessIS5_ESaIS9_EE8_M_beginEv
__ZNSt8_Rb_treeINSt7__cxx1112basic_stringIcSt11char_traitsIcESaIcEEESt4pairIKS5_S6_IibEESt10_Select1stIS9_ESt4lessIS5_ESaIS9_EE8_M_beginEv:
LFB5876:
	pushq	%rbp
LCFI757:
	movq	%rsp, %rbp
LCFI758:
	movq	%rdi, -8(%rbp)
	movq	-8(%rbp), %rax
	movq	16(%rax), %rax
	popq	%rbp
LCFI759:
	ret
LFE5876:
	.globl __ZSt7forwardIbEOT_RNSt16remove_referenceIS0_E4typeE
	.weak_definition __ZSt7forwardIbEOT_RNSt16remove_referenceIS0_E4typeE
__ZSt7forwardIbEOT_RNSt16remove_referenceIS0_E4typeE:
LFB5877:
	pushq	%rbp
LCFI760:
	movq	%rsp, %rbp
LCFI761:
	movq	%rdi, -8(%rbp)
	movq	-8(%rbp), %rax
	popq	%rbp
LCFI762:
	ret
LFE5877:
	.align 1
	.globl __ZNSt4pairIibEC1IibLb1EEEOT_OT0_
	.weak_definition __ZNSt4pairIibEC1IibLb1EEEOT_OT0_
__ZNSt4pairIibEC1IibLb1EEEOT_OT0_:
LFB5880:
	pushq	%rbp
LCFI763:
	movq	%rsp, %rbp
LCFI764:
	subq	$32, %rsp
	movq	%rdi, -8(%rbp)
	movq	%rsi, -16(%rbp)
	movq	%rdx, -24(%rbp)
	movq	-16(%rbp), %rax
	movq	%rax, %rdi
	call	__ZSt7forwardIiEOT_RNSt16remove_referenceIS0_E4typeE
	movl	(%rax), %edx
	movq	-8(%rbp), %rax
	movl	%edx, (%rax)
	movq	-24(%rbp), %rax
	movq	%rax, %rdi
	call	__ZSt7forwardIbEOT_RNSt16remove_referenceIS0_E4typeE
	movzbl	(%rax), %eax
	movq	-8(%rbp), %rdx
	movb	%al, 4(%rdx)
	nop
	leave
LCFI765:
	ret
LFE5880:
	.globl __ZSt7forwardINSt7__cxx1112basic_stringIcSt11char_traitsIcESaIcEEEEOT_RNSt16remove_referenceIS6_E4typeE
	.weak_definition __ZSt7forwardINSt7__cxx1112basic_stringIcSt11char_traitsIcESaIcEEEEOT_RNSt16remove_referenceIS6_E4typeE
__ZSt7forwardINSt7__cxx1112basic_stringIcSt11char_traitsIcESaIcEEEEOT_RNSt16remove_referenceIS6_E4typeE:
LFB5881:
	pushq	%rbp
LCFI766:
	movq	%rsp, %rbp
LCFI767:
	movq	%rdi, -8(%rbp)
	movq	-8(%rbp), %rax
	popq	%rbp
LCFI768:
	ret
LFE5881:
	.globl __ZSt7forwardISt4pairIibEEOT_RNSt16remove_referenceIS2_E4typeE
	.weak_definition __ZSt7forwardISt4pairIibEEOT_RNSt16remove_referenceIS2_E4typeE
__ZSt7forwardISt4pairIibEEOT_RNSt16remove_referenceIS2_E4typeE:
LFB5882:
	pushq	%rbp
LCFI769:
	movq	%rsp, %rbp
LCFI770:
	movq	%rdi, -8(%rbp)
	movq	-8(%rbp), %rax
	popq	%rbp
LCFI771:
	ret
LFE5882:
	.align 1
	.globl __ZNSt4pairINSt7__cxx1112basic_stringIcSt11char_traitsIcESaIcEEES_IibEEC1IS5_S6_Lb1EEEOT_OT0_
	.weak_definition __ZNSt4pairINSt7__cxx1112basic_stringIcSt11char_traitsIcESaIcEEES_IibEEC1IS5_S6_Lb1EEEOT_OT0_
__ZNSt4pairINSt7__cxx1112basic_stringIcSt11char_traitsIcESaIcEEES_IibEEC1IS5_S6_Lb1EEEOT_OT0_:
LFB5885:
	pushq	%rbp
LCFI772:
	movq	%rsp, %rbp
LCFI773:
	pushq	%rbx
	subq	$40, %rsp
LCFI774:
	movq	%rdi, -24(%rbp)
	movq	%rsi, -32(%rbp)
	movq	%rdx, -40(%rbp)
	movq	-24(%rbp), %rbx
	movq	-32(%rbp), %rax
	movq	%rax, %rdi
	call	__ZSt7forwardINSt7__cxx1112basic_stringIcSt11char_traitsIcESaIcEEEEOT_RNSt16remove_referenceIS6_E4typeE
	movq	%rax, %rsi
	movq	%rbx, %rdi
	call	__ZNSt7__cxx1112basic_stringIcSt11char_traitsIcESaIcEEC1EOS4_
	movq	-40(%rbp), %rax
	movq	%rax, %rdi
	call	__ZSt7forwardISt4pairIibEEOT_RNSt16remove_referenceIS2_E4typeE
	movq	-24(%rbp), %rdx
	movq	(%rax), %rax
	movq	%rax, 32(%rdx)
	nop
	addq	$40, %rsp
	popq	%rbx
	popq	%rbp
LCFI775:
	ret
LFE5885:
	.globl __ZSt7forwardISt4pairINSt7__cxx1112basic_stringIcSt11char_traitsIcESaIcEEES0_IibEEEOT_RNSt16remove_referenceIS9_E4typeE
	.weak_definition __ZSt7forwardISt4pairINSt7__cxx1112basic_stringIcSt11char_traitsIcESaIcEEES0_IibEEEOT_RNSt16remove_referenceIS9_E4typeE
__ZSt7forwardISt4pairINSt7__cxx1112basic_stringIcSt11char_traitsIcESaIcEEES0_IibEEEOT_RNSt16remove_referenceIS9_E4typeE:
LFB5886:
	pushq	%rbp
LCFI776:
	movq	%rsp, %rbp
LCFI777:
	movq	%rdi, -8(%rbp)
	movq	-8(%rbp), %rax
	popq	%rbp
LCFI778:
	ret
LFE5886:
	.align 1
	.globl __ZNSt8_Rb_treeINSt7__cxx1112basic_stringIcSt11char_traitsIcESaIcEEESt4pairIKS5_S6_IibEESt10_Select1stIS9_ESt4lessIS5_ESaIS9_EE17_M_emplace_uniqueIJS6_IS5_S8_EEEES6_ISt17_Rb_tree_iteratorIS9_EbEDpOT_
	.weak_definition __ZNSt8_Rb_treeINSt7__cxx1112basic_stringIcSt11char_traitsIcESaIcEEESt4pairIKS5_S6_IibEESt10_Select1stIS9_ESt4lessIS5_ESaIS9_EE17_M_emplace_uniqueIJS6_IS5_S8_EEEES6_ISt17_Rb_tree_iteratorIS9_EbEDpOT_
__ZNSt8_Rb_treeINSt7__cxx1112basic_stringIcSt11char_traitsIcESaIcEEESt4pairIKS5_S6_IibEESt10_Select1stIS9_ESt4lessIS5_ESaIS9_EE17_M_emplace_uniqueIJS6_IS5_S8_EEEES6_ISt17_Rb_tree_iteratorIS9_EbEDpOT_:
LFB5887:
	pushq	%rbp
LCFI779:
	movq	%rsp, %rbp
LCFI780:
	pushq	%rbx
	subq	$120, %rsp
LCFI781:
	movq	%rdi, -120(%rbp)
	movq	%rsi, -128(%rbp)
	movq	-128(%rbp), %rax
	movq	%rax, %rdi
	call	__ZSt7forwardISt4pairINSt7__cxx1112basic_stringIcSt11char_traitsIcESaIcEEES0_IibEEEOT_RNSt16remove_referenceIS9_E4typeE
	movq	%rax, %rdx
	movq	-120(%rbp), %rax
	movq	%rdx, %rsi
	movq	%rax, %rdi
LEHB58:
	call	__ZNSt8_Rb_treeINSt7__cxx1112basic_stringIcSt11char_traitsIcESaIcEEESt4pairIKS5_S6_IibEESt10_Select1stIS9_ESt4lessIS5_ESaIS9_EE14_M_create_nodeIJS6_IS5_S8_EEEEPSt13_Rb_tree_nodeIS9_EDpOT_
LEHE58:
	movq	%rax, -24(%rbp)
	movq	-24(%rbp), %rax
	movq	%rax, %rdi
LEHB59:
	call	__ZNSt8_Rb_treeINSt7__cxx1112basic_stringIcSt11char_traitsIcESaIcEEESt4pairIKS5_S6_IibEESt10_Select1stIS9_ESt4lessIS5_ESaIS9_EE6_S_keyEPKSt13_Rb_tree_nodeIS9_E
	movq	%rax, %rdx
	movq	-120(%rbp), %rax
	movq	%rdx, %rsi
	movq	%rax, %rdi
	call	__ZNSt8_Rb_treeINSt7__cxx1112basic_stringIcSt11char_traitsIcESaIcEEESt4pairIKS5_S6_IibEESt10_Select1stIS9_ESt4lessIS5_ESaIS9_EE24_M_get_insert_unique_posERS7_
	movq	%rax, -112(%rbp)
	movq	%rdx, -104(%rbp)
	movq	-104(%rbp), %rax
	testq	%rax, %rax
	je	L537
	movb	$1, -73(%rbp)
	movq	-104(%rbp), %rdx
	movq	-112(%rbp), %rsi
	movq	-24(%rbp), %rcx
	movq	-120(%rbp), %rax
	movq	%rax, %rdi
	call	__ZNSt8_Rb_treeINSt7__cxx1112basic_stringIcSt11char_traitsIcESaIcEEESt4pairIKS5_S6_IibEESt10_Select1stIS9_ESt4lessIS5_ESaIS9_EE14_M_insert_nodeEPSt18_Rb_tree_node_baseSH_PSt13_Rb_tree_nodeIS9_E
LEHE59:
	movq	%rax, -72(%rbp)
	leaq	-73(%rbp), %rdx
	leaq	-72(%rbp), %rcx
	leaq	-96(%rbp), %rax
	movq	%rcx, %rsi
	movq	%rax, %rdi
	call	__ZNSt4pairISt17_Rb_tree_iteratorIS_IKNSt7__cxx1112basic_stringIcSt11char_traitsIcESaIcEEES_IibEEEbEC1ISA_bLb1EEEOT_OT0_
	movq	-96(%rbp), %rax
	movq	-88(%rbp), %rdx
	jmp	L544
L537:
	movq	-24(%rbp), %rdx
	movq	-120(%rbp), %rax
	movq	%rdx, %rsi
	movq	%rax, %rdi
	call	__ZNSt8_Rb_treeINSt7__cxx1112basic_stringIcSt11char_traitsIcESaIcEEESt4pairIKS5_S6_IibEESt10_Select1stIS9_ESt4lessIS5_ESaIS9_EE12_M_drop_nodeEPSt13_Rb_tree_nodeIS9_E
	movb	$0, -33(%rbp)
	movq	-112(%rbp), %rdx
	leaq	-32(%rbp), %rax
	movq	%rdx, %rsi
	movq	%rax, %rdi
	call	__ZNSt17_Rb_tree_iteratorISt4pairIKNSt7__cxx1112basic_stringIcSt11char_traitsIcESaIcEEES0_IibEEEC1EPSt18_Rb_tree_node_base
	leaq	-33(%rbp), %rdx
	leaq	-32(%rbp), %rcx
	leaq	-64(%rbp), %rax
	movq	%rcx, %rsi
	movq	%rax, %rdi
	call	__ZNSt4pairISt17_Rb_tree_iteratorIS_IKNSt7__cxx1112basic_stringIcSt11char_traitsIcESaIcEEES_IibEEEbEC1ISA_bLb1EEEOT_OT0_
	movq	-64(%rbp), %rax
	movq	-56(%rbp), %rdx
	jmp	L544
L542:
	movq	%rax, %rdi
	call	___cxa_begin_catch
	movq	-24(%rbp), %rdx
	movq	-120(%rbp), %rax
	movq	%rdx, %rsi
	movq	%rax, %rdi
	call	__ZNSt8_Rb_treeINSt7__cxx1112basic_stringIcSt11char_traitsIcESaIcEEESt4pairIKS5_S6_IibEESt10_Select1stIS9_ESt4lessIS5_ESaIS9_EE12_M_drop_nodeEPSt13_Rb_tree_nodeIS9_E
LEHB60:
	call	___cxa_rethrow
LEHE60:
L543:
	movq	%rax, %rbx
	call	___cxa_end_catch
	movq	%rbx, %rax
	movq	%rax, %rdi
LEHB61:
	call	__Unwind_Resume
LEHE61:
L544:
	addq	$120, %rsp
	popq	%rbx
	popq	%rbp
LCFI782:
	ret
LFE5887:
	.section __DATA,__gcc_except_tab
GCC_except_table22:
	.align 3
LLSDA5887:
	.byte	0xff
	.byte	0
	.byte	0x45
	.byte	0x3
	.byte	0x34
	.set L$set$155,LEHB58-LFB5887
	.long L$set$155
	.set L$set$156,LEHE58-LEHB58
	.long L$set$156
	.long	0
	.byte	0
	.set L$set$157,LEHB59-LFB5887
	.long L$set$157
	.set L$set$158,LEHE59-LEHB59
	.long L$set$158
	.set L$set$159,L542-LFB5887
	.long L$set$159
	.byte	0x1
	.set L$set$160,LEHB60-LFB5887
	.long L$set$160
	.set L$set$161,LEHE60-LEHB60
	.long L$set$161
	.set L$set$162,L543-LFB5887
	.long L$set$162
	.byte	0
	.set L$set$163,LEHB61-LFB5887
	.long L$set$163
	.set L$set$164,LEHE61-LEHB61
	.long L$set$164
	.long	0
	.byte	0
	.byte	0x1
	.byte	0
	.align 3
	.quad	0
	.section __TEXT,__textcoal_nt,coalesced,pure_instructions
	.align 1
	.globl __ZNSt8_Rb_treeIiiSt9_IdentityIiESt4lessIiESaIiEE13_Rb_tree_implIS3_Lb1EEC1Ev
	.weak_definition __ZNSt8_Rb_treeIiiSt9_IdentityIiESt4lessIiESaIiEE13_Rb_tree_implIS3_Lb1EEC1Ev
__ZNSt8_Rb_treeIiiSt9_IdentityIiESt4lessIiESaIiEE13_Rb_tree_implIS3_Lb1EEC1Ev:
LFB5902:
	pushq	%rbp
LCFI783:
	movq	%rsp, %rbp
LCFI784:
	subq	$16, %rsp
	movq	%rdi, -8(%rbp)
	movq	-8(%rbp), %rax
	movq	%rax, %rdi
	call	__ZNSaISt13_Rb_tree_nodeIiEEC2Ev
	movq	-8(%rbp), %rax
	movq	%rax, %rdi
	call	__ZNSt20_Rb_tree_key_compareISt4lessIiEEC2Ev
	movq	-8(%rbp), %rax
	addq	$8, %rax
	movq	%rax, %rdi
	call	__ZNSt15_Rb_tree_headerC2Ev
	nop
	leave
LCFI785:
	ret
LFE5902:
	.align 1
	.globl __ZNSaISt13_Rb_tree_nodeIiEED2Ev
	.weak_definition __ZNSaISt13_Rb_tree_nodeIiEED2Ev
__ZNSaISt13_Rb_tree_nodeIiEED2Ev:
LFB5904:
	pushq	%rbp
LCFI786:
	movq	%rsp, %rbp
LCFI787:
	subq	$16, %rsp
	movq	%rdi, -8(%rbp)
	movq	-8(%rbp), %rax
	movq	%rax, %rdi
	call	__ZN9__gnu_cxx13new_allocatorISt13_Rb_tree_nodeIiEED2Ev
	nop
	leave
LCFI788:
	ret
LFE5904:
	.align 1
	.globl __ZNSt8_Rb_treeIiiSt9_IdentityIiESt4lessIiESaIiEE22_M_insert_range_uniqueIPiEENSt9enable_ifIXsrSt7is_sameIiNSt15iterator_traitsIT_E10value_typeEE5valueEvE4typeESB_SB_
	.weak_definition __ZNSt8_Rb_treeIiiSt9_IdentityIiESt4lessIiESaIiEE22_M_insert_range_uniqueIPiEENSt9enable_ifIXsrSt7is_sameIiNSt15iterator_traitsIT_E10value_typeEE5valueEvE4typeESB_SB_
__ZNSt8_Rb_treeIiiSt9_IdentityIiESt4lessIiESaIiEE22_M_insert_range_uniqueIPiEENSt9enable_ifIXsrSt7is_sameIiNSt15iterator_traitsIT_E10value_typeEE5valueEvE4typeESB_SB_:
LFB5906:
	pushq	%rbp
LCFI789:
	movq	%rsp, %rbp
LCFI790:
	subq	$64, %rsp
	movq	%rdi, -40(%rbp)
	movq	%rsi, -48(%rbp)
	movq	%rdx, -56(%rbp)
	movq	-40(%rbp), %rdx
	leaq	-24(%rbp), %rax
	movq	%rdx, %rsi
	movq	%rax, %rdi
	call	__ZNSt8_Rb_treeIiiSt9_IdentityIiESt4lessIiESaIiEE11_Alloc_nodeC1ERS5_
L549:
	movq	-48(%rbp), %rax
	cmpq	-56(%rbp), %rax
	je	L550
	movq	-40(%rbp), %rax
	movq	%rax, %rdi
	call	__ZNSt8_Rb_treeIiiSt9_IdentityIiESt4lessIiESaIiEE3endEv
	movq	%rax, -8(%rbp)
	leaq	-8(%rbp), %rdx
	leaq	-16(%rbp), %rax
	movq	%rdx, %rsi
	movq	%rax, %rdi
	call	__ZNSt23_Rb_tree_const_iteratorIiEC1ERKSt17_Rb_tree_iteratorIiE
	leaq	-24(%rbp), %rax
	movq	-48(%rbp), %rdx
	movq	-16(%rbp), %rsi
	movq	-40(%rbp), %rdi
	movq	%rax, %rcx
	call	__ZNSt8_Rb_treeIiiSt9_IdentityIiESt4lessIiESaIiEE17_M_insert_unique_IRiNS5_11_Alloc_nodeEEESt17_Rb_tree_iteratorIiESt23_Rb_tree_const_iteratorIiEOT_RT0_
	addq	$4, -48(%rbp)
	jmp	L549
L550:
	nop
	leave
LCFI791:
	ret
LFE5906:
	.align 1
	.globl __ZNSt8_Rb_treeIiiSt9_IdentityIiESt4lessIiESaIiEE8_M_eraseEPSt13_Rb_tree_nodeIiE
	.weak_definition __ZNSt8_Rb_treeIiiSt9_IdentityIiESt4lessIiESaIiEE8_M_eraseEPSt13_Rb_tree_nodeIiE
__ZNSt8_Rb_treeIiiSt9_IdentityIiESt4lessIiESaIiEE8_M_eraseEPSt13_Rb_tree_nodeIiE:
LFB5907:
	pushq	%rbp
LCFI792:
	movq	%rsp, %rbp
LCFI793:
	subq	$32, %rsp
	movq	%rdi, -24(%rbp)
	movq	%rsi, -32(%rbp)
L553:
	cmpq	$0, -32(%rbp)
	je	L554
	movq	-32(%rbp), %rax
	movq	%rax, %rdi
	call	__ZNSt8_Rb_treeIiiSt9_IdentityIiESt4lessIiESaIiEE8_S_rightEPSt18_Rb_tree_node_base
	movq	%rax, %rdx
	movq	-24(%rbp), %rax
	movq	%rdx, %rsi
	movq	%rax, %rdi
	call	__ZNSt8_Rb_treeIiiSt9_IdentityIiESt4lessIiESaIiEE8_M_eraseEPSt13_Rb_tree_nodeIiE
	movq	-32(%rbp), %rax
	movq	%rax, %rdi
	call	__ZNSt8_Rb_treeIiiSt9_IdentityIiESt4lessIiESaIiEE7_S_leftEPSt18_Rb_tree_node_base
	movq	%rax, -8(%rbp)
	movq	-32(%rbp), %rdx
	movq	-24(%rbp), %rax
	movq	%rdx, %rsi
	movq	%rax, %rdi
	call	__ZNSt8_Rb_treeIiiSt9_IdentityIiESt4lessIiESaIiEE12_M_drop_nodeEPSt13_Rb_tree_nodeIiE
	movq	-8(%rbp), %rax
	movq	%rax, -32(%rbp)
	jmp	L553
L554:
	nop
	leave
LCFI794:
	ret
LFE5907:
	.align 1
	.globl __ZNSt8_Rb_treeIiiSt9_IdentityIiESt4lessIiESaIiEE8_M_beginEv
	.weak_definition __ZNSt8_Rb_treeIiiSt9_IdentityIiESt4lessIiESaIiEE8_M_beginEv
__ZNSt8_Rb_treeIiiSt9_IdentityIiESt4lessIiESaIiEE8_M_beginEv:
LFB5908:
	pushq	%rbp
LCFI795:
	movq	%rsp, %rbp
LCFI796:
	movq	%rdi, -8(%rbp)
	movq	-8(%rbp), %rax
	movq	16(%rax), %rax
	popq	%rbp
LCFI797:
	ret
LFE5908:
	.align 1
	.globl __ZNKSt8_Rb_treeIiiSt9_IdentityIiESt4lessIiESaIiEE5beginEv
	.weak_definition __ZNKSt8_Rb_treeIiiSt9_IdentityIiESt4lessIiESaIiEE5beginEv
__ZNKSt8_Rb_treeIiiSt9_IdentityIiESt4lessIiESaIiEE5beginEv:
LFB5909:
	pushq	%rbp
LCFI798:
	movq	%rsp, %rbp
LCFI799:
	subq	$32, %rsp
	movq	%rdi, -24(%rbp)
	movq	-24(%rbp), %rax
	movq	24(%rax), %rdx
	leaq	-8(%rbp), %rax
	movq	%rdx, %rsi
	movq	%rax, %rdi
	call	__ZNSt23_Rb_tree_const_iteratorIiEC1EPKSt18_Rb_tree_node_base
	movq	-8(%rbp), %rax
	leave
LCFI800:
	ret
LFE5909:
	.align 1
	.globl __ZNKSt8_Rb_treeIiiSt9_IdentityIiESt4lessIiESaIiEE3endEv
	.weak_definition __ZNKSt8_Rb_treeIiiSt9_IdentityIiESt4lessIiESaIiEE3endEv
__ZNKSt8_Rb_treeIiiSt9_IdentityIiESt4lessIiESaIiEE3endEv:
LFB5910:
	pushq	%rbp
LCFI801:
	movq	%rsp, %rbp
LCFI802:
	subq	$32, %rsp
	movq	%rdi, -24(%rbp)
	movq	-24(%rbp), %rax
	leaq	8(%rax), %rdx
	leaq	-8(%rbp), %rax
	movq	%rdx, %rsi
	movq	%rax, %rdi
	call	__ZNSt23_Rb_tree_const_iteratorIiEC1EPKSt18_Rb_tree_node_base
	movq	-8(%rbp), %rax
	leave
LCFI803:
	ret
LFE5910:
	.align 1
	.globl __ZN9__gnu_cxx13new_allocatorIiEC2Ev
	.weak_definition __ZN9__gnu_cxx13new_allocatorIiEC2Ev
__ZN9__gnu_cxx13new_allocatorIiEC2Ev:
LFB5912:
	pushq	%rbp
LCFI804:
	movq	%rsp, %rbp
LCFI805:
	movq	%rdi, -8(%rbp)
	nop
	popq	%rbp
LCFI806:
	ret
LFE5912:
	.align 1
	.globl __ZN9__gnu_cxx13new_allocatorIiED2Ev
	.weak_definition __ZN9__gnu_cxx13new_allocatorIiED2Ev
__ZN9__gnu_cxx13new_allocatorIiED2Ev:
LFB5915:
	pushq	%rbp
LCFI807:
	movq	%rsp, %rbp
LCFI808:
	movq	%rdi, -8(%rbp)
	nop
	popq	%rbp
LCFI809:
	ret
LFE5915:
	.align 1
	.globl __ZNSaISt10_List_nodeIiEEC1IiEERKSaIT_E
	.weak_definition __ZNSaISt10_List_nodeIiEEC1IiEERKSaIT_E
__ZNSaISt10_List_nodeIiEEC1IiEERKSaIT_E:
LFB5919:
	pushq	%rbp
LCFI810:
	movq	%rsp, %rbp
LCFI811:
	subq	$16, %rsp
	movq	%rdi, -8(%rbp)
	movq	%rsi, -16(%rbp)
	movq	-8(%rbp), %rax
	movq	%rax, %rdi
	call	__ZN9__gnu_cxx13new_allocatorISt10_List_nodeIiEEC2Ev
	nop
	leave
LCFI812:
	ret
LFE5919:
	.align 1
	.globl __ZNSaISt10_List_nodeIiEED2Ev
	.weak_definition __ZNSaISt10_List_nodeIiEED2Ev
__ZNSaISt10_List_nodeIiEED2Ev:
LFB5921:
	pushq	%rbp
LCFI813:
	movq	%rsp, %rbp
LCFI814:
	subq	$16, %rsp
	movq	%rdi, -8(%rbp)
	movq	-8(%rbp), %rax
	movq	%rax, %rdi
	call	__ZN9__gnu_cxx13new_allocatorISt10_List_nodeIiEED2Ev
	nop
	leave
LCFI815:
	ret
LFE5921:
	.align 1
	.globl __ZNSaISt10_List_nodeIiEED1Ev
	.weak_definition __ZNSaISt10_List_nodeIiEED1Ev
__ZNSaISt10_List_nodeIiEED1Ev:
LFB5922:
	pushq	%rbp
LCFI816:
	movq	%rsp, %rbp
LCFI817:
	subq	$16, %rsp
	movq	%rdi, -8(%rbp)
	movq	-8(%rbp), %rax
	movq	%rax, %rdi
	call	__ZN9__gnu_cxx13new_allocatorISt10_List_nodeIiEED2Ev
	nop
	leave
LCFI818:
	ret
LFE5922:
	.align 1
	.globl __ZNSt7__cxx1110_List_baseIiSaIiEEC2EOSaISt10_List_nodeIiEE
	.weak_definition __ZNSt7__cxx1110_List_baseIiSaIiEEC2EOSaISt10_List_nodeIiEE
__ZNSt7__cxx1110_List_baseIiSaIiEEC2EOSaISt10_List_nodeIiEE:
LFB5924:
	pushq	%rbp
LCFI819:
	movq	%rsp, %rbp
LCFI820:
	pushq	%rbx
	subq	$24, %rsp
LCFI821:
	movq	%rdi, -24(%rbp)
	movq	%rsi, -32(%rbp)
	movq	-24(%rbp), %rbx
	movq	-32(%rbp), %rax
	movq	%rax, %rdi
	call	__ZSt4moveIRSaISt10_List_nodeIiEEEONSt16remove_referenceIT_E4typeEOS5_
	movq	%rax, %rsi
	movq	%rbx, %rdi
	call	__ZNSt7__cxx1110_List_baseIiSaIiEE10_List_implC1EOSaISt10_List_nodeIiEE
	nop
	addq	$24, %rsp
	popq	%rbx
	popq	%rbp
LCFI822:
	ret
LFE5924:
	.align 1
	.globl __ZNSt7__cxx114listIiSaIiEE22_M_initialize_dispatchISt23_Rb_tree_const_iteratorIiEEEvT_S6_St12__false_type
	.weak_definition __ZNSt7__cxx114listIiSaIiEE22_M_initialize_dispatchISt23_Rb_tree_const_iteratorIiEEEvT_S6_St12__false_type
__ZNSt7__cxx114listIiSaIiEE22_M_initialize_dispatchISt23_Rb_tree_const_iteratorIiEEEvT_S6_St12__false_type:
LFB5926:
	pushq	%rbp
LCFI823:
	movq	%rsp, %rbp
LCFI824:
	subq	$32, %rsp
	movq	%rdi, -8(%rbp)
	movq	%rsi, -16(%rbp)
	movq	%rdx, -24(%rbp)
L569:
	leaq	-24(%rbp), %rdx
	leaq	-16(%rbp), %rax
	movq	%rdx, %rsi
	movq	%rax, %rdi
	call	__ZStneRKSt23_Rb_tree_const_iteratorIiES2_
	testb	%al, %al
	je	L570
	leaq	-16(%rbp), %rax
	movq	%rax, %rdi
	call	__ZNKSt23_Rb_tree_const_iteratorIiEdeEv
	movq	%rax, %rdx
	movq	-8(%rbp), %rax
	movq	%rdx, %rsi
	movq	%rax, %rdi
	call	__ZNSt7__cxx114listIiSaIiEE12emplace_backIJRKiEEEvDpOT_
	leaq	-16(%rbp), %rax
	movq	%rax, %rdi
	call	__ZNSt23_Rb_tree_const_iteratorIiEppEv
	jmp	L569
L570:
	nop
	leave
LCFI825:
	ret
LFE5926:
	.align 1
	.globl __ZNSt7__cxx1110_List_baseIiSaIiEE8_M_clearEv
	.weak_definition __ZNSt7__cxx1110_List_baseIiSaIiEE8_M_clearEv
__ZNSt7__cxx1110_List_baseIiSaIiEE8_M_clearEv:
LFB5927:
	pushq	%rbp
LCFI826:
	movq	%rsp, %rbp
LCFI827:
	subq	$48, %rsp
	movq	%rdi, -40(%rbp)
	movq	-40(%rbp), %rax
	movq	(%rax), %rax
	movq	%rax, -8(%rbp)
L573:
	movq	-40(%rbp), %rax
	cmpq	%rax, -8(%rbp)
	je	L574
	movq	-8(%rbp), %rax
	movq	%rax, -16(%rbp)
	movq	-16(%rbp), %rax
	movq	(%rax), %rax
	movq	%rax, -8(%rbp)
	movq	-16(%rbp), %rax
	movq	%rax, %rdi
	call	__ZNSt10_List_nodeIiE9_M_valptrEv
	movq	%rax, -24(%rbp)
	movq	-40(%rbp), %rax
	movq	%rax, %rdi
	call	__ZNSt7__cxx1110_List_baseIiSaIiEE21_M_get_Node_allocatorEv
	movq	%rax, %rdx
	movq	-24(%rbp), %rax
	movq	%rax, %rsi
	movq	%rdx, %rdi
	call	__ZNSt16allocator_traitsISaISt10_List_nodeIiEEE7destroyIiEEvRS2_PT_
	movq	-16(%rbp), %rdx
	movq	-40(%rbp), %rax
	movq	%rdx, %rsi
	movq	%rax, %rdi
	call	__ZNSt7__cxx1110_List_baseIiSaIiEE11_M_put_nodeEPSt10_List_nodeIiE
	jmp	L573
L574:
	nop
	leave
LCFI828:
	ret
LFE5927:
	.align 1
	.globl __ZNSt20back_insert_iteratorINSt7__cxx114listIiSaIiEEEEC1ERS3_
	.weak_definition __ZNSt20back_insert_iteratorINSt7__cxx114listIiSaIiEEEEC1ERS3_
__ZNSt20back_insert_iteratorINSt7__cxx114listIiSaIiEEEEC1ERS3_:
LFB5930:
	pushq	%rbp
LCFI829:
	movq	%rsp, %rbp
LCFI830:
	subq	$16, %rsp
	movq	%rdi, -8(%rbp)
	movq	%rsi, -16(%rbp)
	movq	-16(%rbp), %rax
	movq	%rax, %rdi
	call	__ZSt11__addressofINSt7__cxx114listIiSaIiEEEEPT_RS4_
	movq	-8(%rbp), %rdx
	movq	%rax, (%rdx)
	nop
	leave
LCFI831:
	ret
LFE5930:
	.globl __ZSt12__miter_baseISt23_Rb_tree_const_iteratorIiEET_S2_
	.weak_definition __ZSt12__miter_baseISt23_Rb_tree_const_iteratorIiEET_S2_
__ZSt12__miter_baseISt23_Rb_tree_const_iteratorIiEET_S2_:
LFB5931:
	pushq	%rbp
LCFI832:
	movq	%rsp, %rbp
LCFI833:
	movq	%rdi, -8(%rbp)
	movq	-8(%rbp), %rax
	popq	%rbp
LCFI834:
	ret
LFE5931:
	.globl __ZSt14__copy_move_a2ILb0ESt23_Rb_tree_const_iteratorIiESt20back_insert_iteratorINSt7__cxx114listIiSaIiEEEEET1_T0_S9_S8_
	.weak_definition __ZSt14__copy_move_a2ILb0ESt23_Rb_tree_const_iteratorIiESt20back_insert_iteratorINSt7__cxx114listIiSaIiEEEEET1_T0_S9_S8_
__ZSt14__copy_move_a2ILb0ESt23_Rb_tree_const_iteratorIiESt20back_insert_iteratorINSt7__cxx114listIiSaIiEEEEET1_T0_S9_S8_:
LFB5932:
	pushq	%rbp
LCFI835:
	movq	%rsp, %rbp
LCFI836:
	pushq	%r12
	pushq	%rbx
	subq	$32, %rsp
LCFI837:
	movq	%rdi, -24(%rbp)
	movq	%rsi, -32(%rbp)
	movq	%rdx, -40(%rbp)
	movq	-40(%rbp), %rax
	movq	%rax, %rdi
	call	__ZSt12__niter_baseISt20back_insert_iteratorINSt7__cxx114listIiSaIiEEEEET_S6_
	movq	%rax, %r12
	movq	-32(%rbp), %rax
	movq	%rax, %rdi
	call	__ZSt12__niter_baseISt23_Rb_tree_const_iteratorIiEET_S2_
	movq	%rax, %rbx
	movq	-24(%rbp), %rax
	movq	%rax, %rdi
	call	__ZSt12__niter_baseISt23_Rb_tree_const_iteratorIiEET_S2_
	movq	%r12, %rdx
	movq	%rbx, %rsi
	movq	%rax, %rdi
	call	__ZSt13__copy_move_aILb0ESt23_Rb_tree_const_iteratorIiESt20back_insert_iteratorINSt7__cxx114listIiSaIiEEEEET1_T0_S9_S8_
	movq	%rax, %rdx
	leaq	-40(%rbp), %rax
	movq	%rdx, %rsi
	movq	%rax, %rdi
	call	__ZSt12__niter_wrapISt20back_insert_iteratorINSt7__cxx114listIiSaIiEEEEET_RKS6_S6_
	addq	$32, %rsp
	popq	%rbx
	popq	%r12
	popq	%rbp
LCFI838:
	ret
LFE5932:
	.align 1
	.globl __ZNSt7__cxx1112basic_stringIcSt11char_traitsIcESaIcEE12_M_constructIPcEEvT_S7_
	.weak_definition __ZNSt7__cxx1112basic_stringIcSt11char_traitsIcESaIcEE12_M_constructIPcEEvT_S7_
__ZNSt7__cxx1112basic_stringIcSt11char_traitsIcESaIcEE12_M_constructIPcEEvT_S7_:
LFB5940:
	pushq	%rbp
LCFI839:
	movq	%rsp, %rbp
LCFI840:
	subq	$48, %rsp
	movq	%rdi, -24(%rbp)
	movq	%rsi, -32(%rbp)
	movq	%rdx, -40(%rbp)
	movq	-40(%rbp), %rdx
	movq	-32(%rbp), %rcx
	movq	-24(%rbp), %rax
	movq	%rcx, %rsi
	movq	%rax, %rdi
	call	__ZNSt7__cxx1112basic_stringIcSt11char_traitsIcESaIcEE16_M_construct_auxIPcEEvT_S7_St12__false_type
	nop
	leave
LCFI841:
	ret
LFE5940:
	.globl __ZN9__gnu_cxx14__alloc_traitsISaIcEcE17_S_select_on_copyERKS1_
	.weak_definition __ZN9__gnu_cxx14__alloc_traitsISaIcEcE17_S_select_on_copyERKS1_
__ZN9__gnu_cxx14__alloc_traitsISaIcEcE17_S_select_on_copyERKS1_:
LFB5970:
	pushq	%rbp
LCFI842:
	movq	%rsp, %rbp
LCFI843:
	subq	$16, %rsp
	movq	%rdi, -8(%rbp)
	movq	%rsi, -16(%rbp)
	movq	-8(%rbp), %rax
	movq	-16(%rbp), %rdx
	movq	%rdx, %rsi
	movq	%rax, %rdi
	call	__ZNSt16allocator_traitsISaIcEE37select_on_container_copy_constructionERKS0_
	movq	-8(%rbp), %rax
	leave
LCFI844:
	ret
LFE5970:
	.align 1
	.globl __ZN9__gnu_cxx13new_allocatorImEC2Ev
	.weak_definition __ZN9__gnu_cxx13new_allocatorImEC2Ev
__ZN9__gnu_cxx13new_allocatorImEC2Ev:
LFB5975:
	pushq	%rbp
LCFI845:
	movq	%rsp, %rbp
LCFI846:
	movq	%rdi, -8(%rbp)
	nop
	popq	%rbp
LCFI847:
	ret
LFE5975:
	.globl __ZNSt16allocator_traitsISaImEE10deallocateERS0_Pmm
	.weak_definition __ZNSt16allocator_traitsISaImEE10deallocateERS0_Pmm
__ZNSt16allocator_traitsISaImEE10deallocateERS0_Pmm:
LFB5977:
	pushq	%rbp
LCFI848:
	movq	%rsp, %rbp
LCFI849:
	subq	$32, %rsp
	movq	%rdi, -8(%rbp)
	movq	%rsi, -16(%rbp)
	movq	%rdx, -24(%rbp)
	movq	-24(%rbp), %rdx
	movq	-16(%rbp), %rcx
	movq	-8(%rbp), %rax
	movq	%rcx, %rsi
	movq	%rax, %rdi
	call	__ZN9__gnu_cxx13new_allocatorImE10deallocateEPmm
	nop
	leave
LCFI850:
	ret
LFE5977:
	.globl __ZSt8_DestroyIPmEvT_S1_
	.weak_definition __ZSt8_DestroyIPmEvT_S1_
__ZSt8_DestroyIPmEvT_S1_:
LFB5978:
	pushq	%rbp
LCFI851:
	movq	%rsp, %rbp
LCFI852:
	subq	$16, %rsp
	movq	%rdi, -8(%rbp)
	movq	%rsi, -16(%rbp)
	movq	-16(%rbp), %rdx
	movq	-8(%rbp), %rax
	movq	%rdx, %rsi
	movq	%rax, %rdi
	call	__ZNSt12_Destroy_auxILb1EE9__destroyIPmEEvT_S3_
	nop
	leave
LCFI853:
	ret
LFE5978:
	.align 1
	.globl __ZNSt11_Deque_baseIiSaIiEE11_Deque_implC1Ev
	.weak_definition __ZNSt11_Deque_baseIiSaIiEE11_Deque_implC1Ev
__ZNSt11_Deque_baseIiSaIiEE11_Deque_implC1Ev:
LFB5981:
	pushq	%rbp
LCFI854:
	movq	%rsp, %rbp
LCFI855:
	subq	$16, %rsp
	movq	%rdi, -8(%rbp)
	movq	-8(%rbp), %rax
	movq	%rax, %rdi
	call	__ZNSaIiEC2Ev
	movq	-8(%rbp), %rax
	movq	$0, (%rax)
	movq	-8(%rbp), %rax
	movq	$0, 8(%rax)
	movq	-8(%rbp), %rax
	addq	$16, %rax
	movq	%rax, %rdi
	call	__ZNSt15_Deque_iteratorIiRiPiEC1Ev
	movq	-8(%rbp), %rax
	addq	$48, %rax
	movq	%rax, %rdi
	call	__ZNSt15_Deque_iteratorIiRiPiEC1Ev
	nop
	leave
LCFI856:
	ret
LFE5981:
	.align 1
	.globl __ZNSt11_Deque_baseIiSaIiEE17_M_initialize_mapEm
	.weak_definition __ZNSt11_Deque_baseIiSaIiEE17_M_initialize_mapEm
__ZNSt11_Deque_baseIiSaIiEE17_M_initialize_mapEm:
LFB5982:
	pushq	%rbp
LCFI857:
	movq	%rsp, %rbp
LCFI858:
	pushq	%rbx
	subq	$72, %rsp
LCFI859:
	movq	%rdi, -72(%rbp)
	movq	%rsi, -80(%rbp)
	movl	$4, %edi
	call	__ZSt16__deque_buf_sizem
	movq	%rax, %rbx
	movq	-80(%rbp), %rax
	movl	$0, %edx
	divq	%rbx
	addq	$1, %rax
	movq	%rax, -24(%rbp)
	movq	-24(%rbp), %rax
	addq	$2, %rax
	movq	%rax, -56(%rbp)
	movq	$8, -48(%rbp)
	leaq	-56(%rbp), %rdx
	leaq	-48(%rbp), %rax
	movq	%rdx, %rsi
	movq	%rax, %rdi
	call	__ZSt3maxImERKT_S2_S2_
	movq	(%rax), %rdx
	movq	-72(%rbp), %rax
	movq	%rdx, 8(%rax)
	movq	-72(%rbp), %rax
	movq	8(%rax), %rdx
	movq	-72(%rbp), %rax
	movq	%rdx, %rsi
	movq	%rax, %rdi
LEHB62:
	call	__ZNSt11_Deque_baseIiSaIiEE15_M_allocate_mapEm
LEHE62:
	movq	-72(%rbp), %rdx
	movq	%rax, (%rdx)
	movq	-72(%rbp), %rax
	movq	(%rax), %rdx
	movq	-72(%rbp), %rax
	movq	8(%rax), %rax
	subq	-24(%rbp), %rax
	shrq	%rax
	salq	$3, %rax
	addq	%rdx, %rax
	movq	%rax, -32(%rbp)
	movq	-24(%rbp), %rax
	leaq	0(,%rax,8), %rdx
	movq	-32(%rbp), %rax
	addq	%rdx, %rax
	movq	%rax, -40(%rbp)
	movq	-40(%rbp), %rdx
	movq	-32(%rbp), %rcx
	movq	-72(%rbp), %rax
	movq	%rcx, %rsi
	movq	%rax, %rdi
LEHB63:
	call	__ZNSt11_Deque_baseIiSaIiEE15_M_create_nodesEPPiS3_
LEHE63:
	movq	-72(%rbp), %rax
	addq	$16, %rax
	movq	-32(%rbp), %rdx
	movq	%rdx, %rsi
	movq	%rax, %rdi
	call	__ZNSt15_Deque_iteratorIiRiPiE11_M_set_nodeEPS1_
	movq	-72(%rbp), %rax
	addq	$48, %rax
	movq	-40(%rbp), %rdx
	subq	$8, %rdx
	movq	%rdx, %rsi
	movq	%rax, %rdi
	call	__ZNSt15_Deque_iteratorIiRiPiE11_M_set_nodeEPS1_
	movq	-72(%rbp), %rax
	movq	24(%rax), %rdx
	movq	-72(%rbp), %rax
	movq	%rdx, 16(%rax)
	movq	-72(%rbp), %rax
	movq	56(%rax), %rbx
	movl	$4, %edi
	call	__ZSt16__deque_buf_sizem
	movq	%rax, %rcx
	movq	-80(%rbp), %rax
	movl	$0, %edx
	divq	%rcx
	movq	%rdx, %rcx
	movq	%rcx, %rax
	salq	$2, %rax
	leaq	(%rbx,%rax), %rdx
	movq	-72(%rbp), %rax
	movq	%rdx, 48(%rax)
	jmp	L592
L590:
	movq	%rax, %rdi
	call	___cxa_begin_catch
	movq	-72(%rbp), %rax
	movq	8(%rax), %rdx
	movq	-72(%rbp), %rax
	movq	(%rax), %rcx
	movq	-72(%rbp), %rax
	movq	%rcx, %rsi
	movq	%rax, %rdi
	call	__ZNSt11_Deque_baseIiSaIiEE17_M_deallocate_mapEPPim
	movq	-72(%rbp), %rax
	movq	$0, (%rax)
	movq	-72(%rbp), %rax
	movq	$0, 8(%rax)
LEHB64:
	call	___cxa_rethrow
LEHE64:
L591:
	movq	%rax, %rbx
	call	___cxa_end_catch
	movq	%rbx, %rax
	movq	%rax, %rdi
LEHB65:
	call	__Unwind_Resume
LEHE65:
L592:
	addq	$72, %rsp
	popq	%rbx
	popq	%rbp
LCFI860:
	ret
LFE5982:
	.section __DATA,__gcc_except_tab
GCC_except_table23:
	.align 3
LLSDA5982:
	.byte	0xff
	.byte	0
	.byte	0x45
	.byte	0x3
	.byte	0x34
	.set L$set$165,LEHB62-LFB5982
	.long L$set$165
	.set L$set$166,LEHE62-LEHB62
	.long L$set$166
	.long	0
	.byte	0
	.set L$set$167,LEHB63-LFB5982
	.long L$set$167
	.set L$set$168,LEHE63-LEHB63
	.long L$set$168
	.set L$set$169,L590-LFB5982
	.long L$set$169
	.byte	0x1
	.set L$set$170,LEHB64-LFB5982
	.long L$set$170
	.set L$set$171,LEHE64-LEHB64
	.long L$set$171
	.set L$set$172,L591-LFB5982
	.long L$set$172
	.byte	0
	.set L$set$173,LEHB65-LFB5982
	.long L$set$173
	.set L$set$174,LEHE65-LEHB65
	.long L$set$174
	.long	0
	.byte	0
	.byte	0x1
	.byte	0
	.align 3
	.quad	0
	.section __TEXT,__textcoal_nt,coalesced,pure_instructions
	.align 1
	.globl __ZNSt11_Deque_baseIiSaIiEE16_M_destroy_nodesEPPiS3_
	.weak_definition __ZNSt11_Deque_baseIiSaIiEE16_M_destroy_nodesEPPiS3_
__ZNSt11_Deque_baseIiSaIiEE16_M_destroy_nodesEPPiS3_:
LFB5983:
	pushq	%rbp
LCFI861:
	movq	%rsp, %rbp
LCFI862:
	subq	$48, %rsp
	movq	%rdi, -24(%rbp)
	movq	%rsi, -32(%rbp)
	movq	%rdx, -40(%rbp)
	movq	-32(%rbp), %rax
	movq	%rax, -8(%rbp)
L595:
	movq	-8(%rbp), %rax
	cmpq	-40(%rbp), %rax
	jnb	L596
	movq	-8(%rbp), %rax
	movq	(%rax), %rdx
	movq	-24(%rbp), %rax
	movq	%rdx, %rsi
	movq	%rax, %rdi
	call	__ZNSt11_Deque_baseIiSaIiEE18_M_deallocate_nodeEPi
	addq	$8, -8(%rbp)
	jmp	L595
L596:
	nop
	leave
LCFI863:
	ret
LFE5983:
	.align 1
	.globl __ZNSt11_Deque_baseIiSaIiEE17_M_deallocate_mapEPPim
	.weak_definition __ZNSt11_Deque_baseIiSaIiEE17_M_deallocate_mapEPPim
__ZNSt11_Deque_baseIiSaIiEE17_M_deallocate_mapEPPim:
LFB5984:
	pushq	%rbp
LCFI864:
	movq	%rsp, %rbp
LCFI865:
	subq	$48, %rsp
	movq	%rdi, -24(%rbp)
	movq	%rsi, -32(%rbp)
	movq	%rdx, -40(%rbp)
	leaq	-1(%rbp), %rax
	movq	-24(%rbp), %rdx
	movq	%rdx, %rsi
	movq	%rax, %rdi
	call	__ZNKSt11_Deque_baseIiSaIiEE20_M_get_map_allocatorEv
	movq	-40(%rbp), %rdx
	movq	-32(%rbp), %rcx
	leaq	-1(%rbp), %rax
	movq	%rcx, %rsi
	movq	%rax, %rdi
	call	__ZNSt16allocator_traitsISaIPiEE10deallocateERS1_PS0_m
	leaq	-1(%rbp), %rax
	movq	%rax, %rdi
	call	__ZNSaIPiED1Ev
	nop
	leave
LCFI866:
	ret
LFE5984:
	.section __DATA,__gcc_except_tab
GCC_except_table24:
LLSDA5984:
	.byte	0xff
	.byte	0x3
	.byte	0
	.section __TEXT,__textcoal_nt,coalesced,pure_instructions
	.globl __ZNSt16allocator_traitsISaIiEE9constructIiJiEEEvRS0_PT_DpOT0_
	.weak_definition __ZNSt16allocator_traitsISaIiEE9constructIiJiEEEvRS0_PT_DpOT0_
__ZNSt16allocator_traitsISaIiEE9constructIiJiEEEvRS0_PT_DpOT0_:
LFB5986:
	pushq	%rbp
LCFI867:
	movq	%rsp, %rbp
LCFI868:
	subq	$32, %rsp
	movq	%rdi, -8(%rbp)
	movq	%rsi, -16(%rbp)
	movq	%rdx, -24(%rbp)
	movq	-24(%rbp), %rax
	movq	%rax, %rdi
	call	__ZSt7forwardIiEOT_RNSt16remove_referenceIS0_E4typeE
	movq	%rax, %rdx
	movq	-16(%rbp), %rcx
	movq	-8(%rbp), %rax
	movq	%rcx, %rsi
	movq	%rax, %rdi
	call	__ZN9__gnu_cxx13new_allocatorIiE9constructIiJiEEEvPT_DpOT0_
	nop
	leave
LCFI869:
	ret
LFE5986:
	.cstring
	.align 3
lC28:
	.ascii "cannot create std::deque larger than max_size()\0"
	.section __TEXT,__textcoal_nt,coalesced,pure_instructions
	.align 1
	.globl __ZNSt5dequeIiSaIiEE17_M_push_front_auxIJiEEEvDpOT_
	.weak_definition __ZNSt5dequeIiSaIiEE17_M_push_front_auxIJiEEEvDpOT_
__ZNSt5dequeIiSaIiEE17_M_push_front_auxIJiEEEvDpOT_:
LFB5987:
	pushq	%rbp
LCFI870:
	movq	%rsp, %rbp
LCFI871:
	pushq	%rbx
	subq	$24, %rsp
LCFI872:
	movq	%rdi, -24(%rbp)
	movq	%rsi, -32(%rbp)
	movq	-24(%rbp), %rax
	movq	%rax, %rdi
	call	__ZNKSt5dequeIiSaIiEE4sizeEv
	movq	%rax, %rbx
	movq	-24(%rbp), %rax
	movq	%rax, %rdi
	call	__ZNKSt5dequeIiSaIiEE8max_sizeEv
	cmpq	%rax, %rbx
	sete	%al
	testb	%al, %al
	je	L600
	leaq	lC28(%rip), %rdi
	call	__ZSt20__throw_length_errorPKc
L600:
	movq	-24(%rbp), %rax
	movl	$1, %esi
	movq	%rax, %rdi
	call	__ZNSt5dequeIiSaIiEE23_M_reserve_map_at_frontEm
	movq	-24(%rbp), %rax
	movq	-24(%rbp), %rdx
	movq	40(%rdx), %rdx
	leaq	-8(%rdx), %rbx
	movq	%rax, %rdi
	call	__ZNSt11_Deque_baseIiSaIiEE16_M_allocate_nodeEv
	movq	%rax, (%rbx)
	movq	-24(%rbp), %rax
	addq	$16, %rax
	movq	-24(%rbp), %rdx
	movq	40(%rdx), %rdx
	subq	$8, %rdx
	movq	%rdx, %rsi
	movq	%rax, %rdi
	call	__ZNSt15_Deque_iteratorIiRiPiE11_M_set_nodeEPS1_
	movq	-24(%rbp), %rax
	movq	32(%rax), %rax
	leaq	-4(%rax), %rdx
	movq	-24(%rbp), %rax
	movq	%rdx, 16(%rax)
	movq	-32(%rbp), %rax
	movq	%rax, %rdi
	call	__ZSt7forwardIiEOT_RNSt16remove_referenceIS0_E4typeE
	movq	%rax, %rdx
	movq	-24(%rbp), %rax
	movq	16(%rax), %rcx
	movq	-24(%rbp), %rax
	movq	%rcx, %rsi
	movq	%rax, %rdi
	call	__ZNSt16allocator_traitsISaIiEE9constructIiJiEEEvRS0_PT_DpOT0_
	nop
	addq	$24, %rsp
	popq	%rbx
	popq	%rbp
LCFI873:
	ret
LFE5987:
	.globl __ZNSt15_Deque_iteratorIiRiPiE14_S_buffer_sizeEv
	.weak_definition __ZNSt15_Deque_iteratorIiRiPiE14_S_buffer_sizeEv
__ZNSt15_Deque_iteratorIiRiPiE14_S_buffer_sizeEv:
LFB5988:
	pushq	%rbp
LCFI874:
	movq	%rsp, %rbp
LCFI875:
	movl	$4, %edi
	call	__ZSt16__deque_buf_sizem
	popq	%rbp
LCFI876:
	ret
LFE5988:
	.globl __ZNSt14__array_traitsIiLm20EE6_S_ptrERA20_Ki
	.weak_definition __ZNSt14__array_traitsIiLm20EE6_S_ptrERA20_Ki
__ZNSt14__array_traitsIiLm20EE6_S_ptrERA20_Ki:
LFB5989:
	pushq	%rbp
LCFI877:
	movq	%rsp, %rbp
LCFI878:
	movq	%rdi, -8(%rbp)
	movq	-8(%rbp), %rax
	popq	%rbp
LCFI879:
	ret
LFE5989:
	.align 1
	.globl __ZNSt14__shared_countILN9__gnu_cxx12_Lock_policyE2EEC1IPNSt7__cxx1112basic_stringIcSt11char_traitsIcESaIcEEEEET_St17integral_constantIbLb0EE
	.weak_definition __ZNSt14__shared_countILN9__gnu_cxx12_Lock_policyE2EEC1IPNSt7__cxx1112basic_stringIcSt11char_traitsIcESaIcEEEEET_St17integral_constantIbLb0EE
__ZNSt14__shared_countILN9__gnu_cxx12_Lock_policyE2EEC1IPNSt7__cxx1112basic_stringIcSt11char_traitsIcESaIcEEEEET_St17integral_constantIbLb0EE:
LFB5992:
	pushq	%rbp
LCFI880:
	movq	%rsp, %rbp
LCFI881:
	subq	$16, %rsp
	movq	%rdi, -8(%rbp)
	movq	%rsi, -16(%rbp)
	movq	-16(%rbp), %rdx
	movq	-8(%rbp), %rax
	movq	%rdx, %rsi
	movq	%rax, %rdi
	call	__ZNSt14__shared_countILN9__gnu_cxx12_Lock_policyE2EEC1IPNSt7__cxx1112basic_stringIcSt11char_traitsIcESaIcEEEEET_
	nop
	leave
LCFI882:
	ret
LFE5992:
	.align 1
	.globl __ZNSt12__shared_ptrINSt7__cxx1112basic_stringIcSt11char_traitsIcESaIcEEELN9__gnu_cxx12_Lock_policyE2EE31_M_enable_shared_from_this_withIS5_S5_EENSt9enable_ifIXntsrNS8_15__has_esft_baseIT0_vEE5valueEvE4typeEPT_
	.weak_definition __ZNSt12__shared_ptrINSt7__cxx1112basic_stringIcSt11char_traitsIcESaIcEEELN9__gnu_cxx12_Lock_policyE2EE31_M_enable_shared_from_this_withIS5_S5_EENSt9enable_ifIXntsrNS8_15__has_esft_baseIT0_vEE5valueEvE4typeEPT_
__ZNSt12__shared_ptrINSt7__cxx1112basic_stringIcSt11char_traitsIcESaIcEEELN9__gnu_cxx12_Lock_policyE2EE31_M_enable_shared_from_this_withIS5_S5_EENSt9enable_ifIXntsrNS8_15__has_esft_baseIT0_vEE5valueEvE4typeEPT_:
LFB5993:
	pushq	%rbp
LCFI883:
	movq	%rsp, %rbp
LCFI884:
	movq	%rdi, -8(%rbp)
	movq	%rsi, -16(%rbp)
	nop
	popq	%rbp
LCFI885:
	ret
LFE5993:
	.align 1
	.globl __ZNSt16_Sp_counted_baseILN9__gnu_cxx12_Lock_policyE2EE10_M_destroyEv
	.weak_definition __ZNSt16_Sp_counted_baseILN9__gnu_cxx12_Lock_policyE2EE10_M_destroyEv
__ZNSt16_Sp_counted_baseILN9__gnu_cxx12_Lock_policyE2EE10_M_destroyEv:
LFB5994:
	pushq	%rbp
LCFI886:
	movq	%rsp, %rbp
LCFI887:
	subq	$16, %rsp
	movq	%rdi, -8(%rbp)
	cmpq	$0, -8(%rbp)
	je	L609
	movq	-8(%rbp), %rax
	movq	(%rax), %rax
	addq	$8, %rax
	movq	(%rax), %rdx
	movq	-8(%rbp), %rax
	movq	%rax, %rdi
	call	*%rdx
L609:
	nop
	leave
LCFI888:
	ret
LFE5994:
	.align 1
	.globl __ZNSt12__weak_countILN9__gnu_cxx12_Lock_policyE2EEC1ERKSt14__shared_countILS1_2EE
	.weak_definition __ZNSt12__weak_countILN9__gnu_cxx12_Lock_policyE2EEC1ERKSt14__shared_countILS1_2EE
__ZNSt12__weak_countILN9__gnu_cxx12_Lock_policyE2EEC1ERKSt14__shared_countILS1_2EE:
LFB5997:
	pushq	%rbp
LCFI889:
	movq	%rsp, %rbp
LCFI890:
	subq	$16, %rsp
	movq	%rdi, -8(%rbp)
	movq	%rsi, -16(%rbp)
	movq	-16(%rbp), %rax
	movq	(%rax), %rdx
	movq	-8(%rbp), %rax
	movq	%rdx, (%rax)
	movq	-8(%rbp), %rax
	movq	(%rax), %rax
	testq	%rax, %rax
	je	L612
	movq	-8(%rbp), %rax
	movq	(%rax), %rax
	movq	%rax, %rdi
	call	__ZNSt16_Sp_counted_baseILN9__gnu_cxx12_Lock_policyE2EE15_M_weak_add_refEv
L612:
	nop
	leave
LCFI891:
	ret
LFE5997:
	.align 1
	.globl __ZNSt14__shared_countILN9__gnu_cxx12_Lock_policyE2EEC1ERKSt12__weak_countILS1_2EE
	.weak_definition __ZNSt14__shared_countILN9__gnu_cxx12_Lock_policyE2EEC1ERKSt12__weak_countILS1_2EE
__ZNSt14__shared_countILN9__gnu_cxx12_Lock_policyE2EEC1ERKSt12__weak_countILS1_2EE:
LFB6000:
	pushq	%rbp
LCFI892:
	movq	%rsp, %rbp
LCFI893:
	subq	$16, %rsp
	movq	%rdi, -8(%rbp)
	movq	%rsi, -16(%rbp)
	movq	-16(%rbp), %rax
	movq	(%rax), %rdx
	movq	-8(%rbp), %rax
	movq	%rdx, (%rax)
	movq	-8(%rbp), %rax
	movq	(%rax), %rax
	testq	%rax, %rax
	je	L614
	movq	-8(%rbp), %rax
	movq	(%rax), %rax
	movq	%rax, %rdi
	call	__ZNSt16_Sp_counted_baseILN9__gnu_cxx12_Lock_policyE2EE15_M_add_ref_lockEv
	jmp	L616
L614:
	call	__ZSt20__throw_bad_weak_ptrv
L616:
	nop
	leave
LCFI894:
	ret
LFE6000:
	.align 1
	.globl __ZNSt11_Tuple_implILm0EJRNSt7__cxx1112basic_stringIcSt11char_traitsIcESaIcEEERiRdEEC2ES6_S7_S8_
	.weak_definition __ZNSt11_Tuple_implILm0EJRNSt7__cxx1112basic_stringIcSt11char_traitsIcESaIcEEERiRdEEC2ES6_S7_S8_
__ZNSt11_Tuple_implILm0EJRNSt7__cxx1112basic_stringIcSt11char_traitsIcESaIcEEERiRdEEC2ES6_S7_S8_:
LFB6002:
	pushq	%rbp
LCFI895:
	movq	%rsp, %rbp
LCFI896:
	subq	$32, %rsp
	movq	%rdi, -8(%rbp)
	movq	%rsi, -16(%rbp)
	movq	%rdx, -24(%rbp)
	movq	%rcx, -32(%rbp)
	movq	-8(%rbp), %rax
	movq	-32(%rbp), %rdx
	movq	-24(%rbp), %rcx
	movq	%rcx, %rsi
	movq	%rax, %rdi
	call	__ZNSt11_Tuple_implILm1EJRiRdEEC2ES0_S1_
	movq	-8(%rbp), %rax
	addq	$16, %rax
	movq	-16(%rbp), %rdx
	movq	%rdx, %rsi
	movq	%rax, %rdi
	call	__ZNSt10_Head_baseILm0ERNSt7__cxx1112basic_stringIcSt11char_traitsIcESaIcEEELb0EEC2ES6_
	nop
	leave
LCFI897:
	ret
LFE6002:
	.globl __ZNSt11_Tuple_implILm0EJRNSt7__cxx1112basic_stringIcSt11char_traitsIcESaIcEEERiRdEE7_M_tailERS9_
	.weak_definition __ZNSt11_Tuple_implILm0EJRNSt7__cxx1112basic_stringIcSt11char_traitsIcESaIcEEERiRdEE7_M_tailERS9_
__ZNSt11_Tuple_implILm0EJRNSt7__cxx1112basic_stringIcSt11char_traitsIcESaIcEEERiRdEE7_M_tailERS9_:
LFB6004:
	pushq	%rbp
LCFI898:
	movq	%rsp, %rbp
LCFI899:
	movq	%rdi, -8(%rbp)
	movq	-8(%rbp), %rax
	popq	%rbp
LCFI900:
	ret
LFE6004:
	.globl __ZNSt11_Tuple_implILm0EJRNSt7__cxx1112basic_stringIcSt11char_traitsIcESaIcEEERiRdEE7_M_headERS9_
	.weak_definition __ZNSt11_Tuple_implILm0EJRNSt7__cxx1112basic_stringIcSt11char_traitsIcESaIcEEERiRdEE7_M_headERS9_
__ZNSt11_Tuple_implILm0EJRNSt7__cxx1112basic_stringIcSt11char_traitsIcESaIcEEERiRdEE7_M_headERS9_:
LFB6006:
	pushq	%rbp
LCFI901:
	movq	%rsp, %rbp
LCFI902:
	subq	$16, %rsp
	movq	%rdi, -8(%rbp)
	movq	-8(%rbp), %rax
	addq	$16, %rax
	movq	%rax, %rdi
	call	__ZNSt10_Head_baseILm0ERNSt7__cxx1112basic_stringIcSt11char_traitsIcESaIcEEELb0EE7_M_headERS7_
	leave
LCFI903:
	ret
LFE6006:
	.align 1
	.globl __ZNSt10_Head_baseILm0ERNSt7__cxx1112basic_stringIcSt11char_traitsIcESaIcEEELb0EEC2ES6_
	.weak_definition __ZNSt10_Head_baseILm0ERNSt7__cxx1112basic_stringIcSt11char_traitsIcESaIcEEELb0EEC2ES6_
__ZNSt10_Head_baseILm0ERNSt7__cxx1112basic_stringIcSt11char_traitsIcESaIcEEELb0EEC2ES6_:
LFB6012:
	pushq	%rbp
LCFI904:
	movq	%rsp, %rbp
LCFI905:
	movq	%rdi, -8(%rbp)
	movq	%rsi, -16(%rbp)
	movq	-8(%rbp), %rax
	movq	-16(%rbp), %rdx
	movq	%rdx, (%rax)
	nop
	popq	%rbp
LCFI906:
	ret
LFE6012:
	.globl __ZNSt11_Tuple_implILm0EJNSt7__cxx1112basic_stringIcSt11char_traitsIcESaIcEEEidEE7_M_headERKS6_
	.weak_definition __ZNSt11_Tuple_implILm0EJNSt7__cxx1112basic_stringIcSt11char_traitsIcESaIcEEEidEE7_M_headERKS6_
__ZNSt11_Tuple_implILm0EJNSt7__cxx1112basic_stringIcSt11char_traitsIcESaIcEEEidEE7_M_headERKS6_:
LFB6014:
	pushq	%rbp
LCFI907:
	movq	%rsp, %rbp
LCFI908:
	subq	$16, %rsp
	movq	%rdi, -8(%rbp)
	movq	-8(%rbp), %rax
	addq	$16, %rax
	movq	%rax, %rdi
	call	__ZNSt10_Head_baseILm0ENSt7__cxx1112basic_stringIcSt11char_traitsIcESaIcEEELb0EE7_M_headERKS6_
	leave
LCFI909:
	ret
LFE6014:
	.globl __ZNSt11_Tuple_implILm0EJNSt7__cxx1112basic_stringIcSt11char_traitsIcESaIcEEEidEE7_M_tailERKS6_
	.weak_definition __ZNSt11_Tuple_implILm0EJNSt7__cxx1112basic_stringIcSt11char_traitsIcESaIcEEEidEE7_M_tailERKS6_
__ZNSt11_Tuple_implILm0EJNSt7__cxx1112basic_stringIcSt11char_traitsIcESaIcEEEidEE7_M_tailERKS6_:
LFB6017:
	pushq	%rbp
LCFI910:
	movq	%rsp, %rbp
LCFI911:
	movq	%rdi, -8(%rbp)
	movq	-8(%rbp), %rax
	popq	%rbp
LCFI912:
	ret
LFE6017:
	.align 1
	.globl __ZNSt11_Tuple_implILm1EJRiRdEE9_M_assignIJidEEEvRKS_ILm1EJDpT_EE
	.weak_definition __ZNSt11_Tuple_implILm1EJRiRdEE9_M_assignIJidEEEvRKS_ILm1EJDpT_EE
__ZNSt11_Tuple_implILm1EJRiRdEE9_M_assignIJidEEEvRKS_ILm1EJDpT_EE:
LFB6018:
	pushq	%rbp
LCFI913:
	movq	%rsp, %rbp
LCFI914:
	pushq	%rbx
	subq	$24, %rsp
LCFI915:
	movq	%rdi, -24(%rbp)
	movq	%rsi, -32(%rbp)
	movq	-32(%rbp), %rax
	movq	%rax, %rdi
	call	__ZNSt11_Tuple_implILm1EJidEE7_M_headERKS0_
	movq	%rax, %rbx
	movq	-24(%rbp), %rax
	movq	%rax, %rdi
	call	__ZNSt11_Tuple_implILm1EJRiRdEE7_M_headERS2_
	movl	(%rbx), %edx
	movl	%edx, (%rax)
	movq	-24(%rbp), %rax
	movq	%rax, %rdi
	call	__ZNSt11_Tuple_implILm1EJRiRdEE7_M_tailERS2_
	movq	%rax, %rbx
	movq	-32(%rbp), %rax
	movq	%rax, %rdi
	call	__ZNSt11_Tuple_implILm1EJidEE7_M_tailERKS0_
	movq	%rax, %rsi
	movq	%rbx, %rdi
	call	__ZNSt11_Tuple_implILm2EJRdEE9_M_assignIdEEvRKS_ILm2EJT_EE
	nop
	addq	$24, %rsp
	popq	%rbx
	popq	%rbp
LCFI916:
	ret
LFE6018:
	.globl __ZSt4moveIRPKcEONSt16remove_referenceIT_E4typeEOS4_
	.weak_definition __ZSt4moveIRPKcEONSt16remove_referenceIT_E4typeEOS4_
__ZSt4moveIRPKcEONSt16remove_referenceIT_E4typeEOS4_:
LFB6019:
	pushq	%rbp
LCFI917:
	movq	%rsp, %rbp
LCFI918:
	movq	%rdi, -8(%rbp)
	movq	-8(%rbp), %rax
	popq	%rbp
LCFI919:
	ret
LFE6019:
	.align 1
	.globl __ZNSt7__cxx1111basic_regexIcNS_12regex_traitsIcEEEC1IPKcEET_S7_St6localeNSt15regex_constants18syntax_option_typeE
	.weak_definition __ZNSt7__cxx1111basic_regexIcNS_12regex_traitsIcEEEC1IPKcEET_S7_St6localeNSt15regex_constants18syntax_option_typeE
__ZNSt7__cxx1111basic_regexIcNS_12regex_traitsIcEEEC1IPKcEET_S7_St6localeNSt15regex_constants18syntax_option_typeE:
LFB6022:
	pushq	%rbp
LCFI920:
	movq	%rsp, %rbp
LCFI921:
	pushq	%r13
	pushq	%r12
	pushq	%rbx
	subq	$56, %rsp
LCFI922:
	movq	%rdi, -40(%rbp)
	movq	%rsi, -48(%rbp)
	movq	%rdx, -56(%rbp)
	movq	%rcx, -64(%rbp)
	movl	%r8d, -68(%rbp)
	movq	-40(%rbp), %rax
	movl	-68(%rbp), %edx
	movl	%edx, (%rax)
	movq	-40(%rbp), %rax
	leaq	8(%rax), %rbx
	movq	-64(%rbp), %rax
	movq	%rax, %rdi
	call	__ZSt4moveIRSt6localeEONSt16remove_referenceIT_E4typeEOS3_
	movq	%rax, %rsi
	movq	%rbx, %rdi
	call	__ZNSt6localeC1ERKS_
	movq	-40(%rbp), %rax
	movl	(%rax), %r13d
	movq	-40(%rbp), %rax
	leaq	8(%rax), %r12
	leaq	-56(%rbp), %rax
	movq	%rax, %rdi
	call	__ZSt4moveIRPKcEONSt16remove_referenceIT_E4typeEOS4_
	movq	(%rax), %rbx
	leaq	-48(%rbp), %rax
	movq	%rax, %rdi
	call	__ZSt4moveIRPKcEONSt16remove_referenceIT_E4typeEOS4_
	movq	(%rax), %rsi
	movq	-40(%rbp), %rax
	addq	$16, %rax
	movl	%r13d, %r8d
	movq	%r12, %rcx
	movq	%rbx, %rdx
	movq	%rax, %rdi
LEHB66:
	call	__ZNSt8__detail13__compile_nfaINSt7__cxx1112regex_traitsIcEEPKcEENSt9enable_ifIXsrNS_20__is_contiguous_iterIT0_EE5valueESt10shared_ptrIKNS_4_NFAIT_EEEE4typeES8_S8_RKNSC_11locale_typeENSt15regex_constants18syntax_option_typeE
LEHE66:
	jmp	L633
L632:
	movq	%rax, %rbx
	movq	-40(%rbp), %rax
	addq	$8, %rax
	movq	%rax, %rdi
	call	__ZNSt6localeD1Ev
	movq	%rbx, %rax
	movq	%rax, %rdi
LEHB67:
	call	__Unwind_Resume
LEHE67:
L633:
	addq	$56, %rsp
	popq	%rbx
	popq	%r12
	popq	%r13
	popq	%rbp
LCFI923:
	ret
LFE6022:
	.section __DATA,__gcc_except_tab
GCC_except_table25:
LLSDA6022:
	.byte	0xff
	.byte	0x3
	.byte	0x1a
	.set L$set$175,LEHB66-LFB6022
	.long L$set$175
	.set L$set$176,LEHE66-LEHB66
	.long L$set$176
	.set L$set$177,L632-LFB6022
	.long L$set$177
	.byte	0
	.set L$set$178,LEHB67-LFB6022
	.long L$set$178
	.set L$set$179,LEHE67-LEHB67
	.long L$set$179
	.long	0
	.byte	0
	.section __TEXT,__textcoal_nt,coalesced,pure_instructions
	.align 1
	.globl __ZNSt7__cxx1113match_resultsIN9__gnu_cxx17__normal_iteratorIPKcNS_12basic_stringIcSt11char_traitsIcESaIcEEEEESaINS_9sub_matchISA_EEEEC1Ev
	.weak_definition __ZNSt7__cxx1113match_resultsIN9__gnu_cxx17__normal_iteratorIPKcNS_12basic_stringIcSt11char_traitsIcESaIcEEEEESaINS_9sub_matchISA_EEEEC1Ev
__ZNSt7__cxx1113match_resultsIN9__gnu_cxx17__normal_iteratorIPKcNS_12basic_stringIcSt11char_traitsIcESaIcEEEEESaINS_9sub_matchISA_EEEEC1Ev:
LFB6028:
	pushq	%rbp
LCFI924:
	movq	%rsp, %rbp
LCFI925:
	subq	$32, %rsp
	movq	%rdi, -24(%rbp)
	leaq	-1(%rbp), %rax
	movq	%rax, %rdi
	call	__ZNSaINSt7__cxx119sub_matchIN9__gnu_cxx17__normal_iteratorIPKcNS_12basic_stringIcSt11char_traitsIcESaIcEEEEEEEEC1Ev
	leaq	-1(%rbp), %rax
	movq	-24(%rbp), %rdx
	movq	%rax, %rsi
	movq	%rdx, %rdi
	call	__ZNSt7__cxx1113match_resultsIN9__gnu_cxx17__normal_iteratorIPKcNS_12basic_stringIcSt11char_traitsIcESaIcEEEEESaINS_9sub_matchISA_EEEEC1ERKSD_
	leaq	-1(%rbp), %rax
	movq	%rax, %rdi
	call	__ZNSaINSt7__cxx119sub_matchIN9__gnu_cxx17__normal_iteratorIPKcNS_12basic_stringIcSt11char_traitsIcESaIcEEEEEEEED1Ev
	nop
	leave
LCFI926:
	ret
LFE6028:
	.align 1
	.globl __ZNSt6vectorINSt7__cxx119sub_matchIN9__gnu_cxx17__normal_iteratorIPKcNS0_12basic_stringIcSt11char_traitsIcESaIcEEEEEEESaISC_EED2Ev
	.weak_definition __ZNSt6vectorINSt7__cxx119sub_matchIN9__gnu_cxx17__normal_iteratorIPKcNS0_12basic_stringIcSt11char_traitsIcESaIcEEEEEEESaISC_EED2Ev
__ZNSt6vectorINSt7__cxx119sub_matchIN9__gnu_cxx17__normal_iteratorIPKcNS0_12basic_stringIcSt11char_traitsIcESaIcEEEEEEESaISC_EED2Ev:
LFB6030:
	pushq	%rbp
LCFI927:
	movq	%rsp, %rbp
LCFI928:
	subq	$16, %rsp
	movq	%rdi, -8(%rbp)
	movq	-8(%rbp), %rax
	movq	%rax, %rdi
	call	__ZNSt12_Vector_baseINSt7__cxx119sub_matchIN9__gnu_cxx17__normal_iteratorIPKcNS0_12basic_stringIcSt11char_traitsIcESaIcEEEEEEESaISC_EE19_M_get_Tp_allocatorEv
	movq	%rax, %rdx
	movq	-8(%rbp), %rax
	movq	8(%rax), %rcx
	movq	-8(%rbp), %rax
	movq	(%rax), %rax
	movq	%rcx, %rsi
	movq	%rax, %rdi
	call	__ZSt8_DestroyIPNSt7__cxx119sub_matchIN9__gnu_cxx17__normal_iteratorIPKcNS0_12basic_stringIcSt11char_traitsIcESaIcEEEEEEESC_EvT_SE_RSaIT0_E
	movq	-8(%rbp), %rax
	movq	%rax, %rdi
	call	__ZNSt12_Vector_baseINSt7__cxx119sub_matchIN9__gnu_cxx17__normal_iteratorIPKcNS0_12basic_stringIcSt11char_traitsIcESaIcEEEEEEESaISC_EED2Ev
	nop
	leave
LCFI929:
	ret
LFE6030:
	.section __DATA,__gcc_except_tab
GCC_except_table26:
LLSDA6030:
	.byte	0xff
	.byte	0x3
	.byte	0
	.section __TEXT,__textcoal_nt,coalesced,pure_instructions
	.align 1
	.globl __ZNSt6vectorINSt7__cxx119sub_matchIN9__gnu_cxx17__normal_iteratorIPKcNS0_12basic_stringIcSt11char_traitsIcESaIcEEEEEEESaISC_EED1Ev
	.weak_definition __ZNSt6vectorINSt7__cxx119sub_matchIN9__gnu_cxx17__normal_iteratorIPKcNS0_12basic_stringIcSt11char_traitsIcESaIcEEEEEEESaISC_EED1Ev
__ZNSt6vectorINSt7__cxx119sub_matchIN9__gnu_cxx17__normal_iteratorIPKcNS0_12basic_stringIcSt11char_traitsIcESaIcEEEEEEESaISC_EED1Ev:
LFB6031:
	pushq	%rbp
LCFI930:
	movq	%rsp, %rbp
LCFI931:
	subq	$16, %rsp
	movq	%rdi, -8(%rbp)
	movq	-8(%rbp), %rax
	movq	%rax, %rdi
	call	__ZNSt12_Vector_baseINSt7__cxx119sub_matchIN9__gnu_cxx17__normal_iteratorIPKcNS0_12basic_stringIcSt11char_traitsIcESaIcEEEEEEESaISC_EE19_M_get_Tp_allocatorEv
	movq	%rax, %rdx
	movq	-8(%rbp), %rax
	movq	8(%rax), %rcx
	movq	-8(%rbp), %rax
	movq	(%rax), %rax
	movq	%rcx, %rsi
	movq	%rax, %rdi
	call	__ZSt8_DestroyIPNSt7__cxx119sub_matchIN9__gnu_cxx17__normal_iteratorIPKcNS0_12basic_stringIcSt11char_traitsIcESaIcEEEEEEESC_EvT_SE_RSaIT0_E
	movq	-8(%rbp), %rax
	movq	%rax, %rdi
	call	__ZNSt12_Vector_baseINSt7__cxx119sub_matchIN9__gnu_cxx17__normal_iteratorIPKcNS0_12basic_stringIcSt11char_traitsIcESaIcEEEEEEESaISC_EED2Ev
	nop
	leave
LCFI932:
	ret
LFE6031:
	.section __DATA,__gcc_except_tab
GCC_except_table27:
LLSDA6031:
	.byte	0xff
	.byte	0x3
	.byte	0
	.section __TEXT,__textcoal_nt,coalesced,pure_instructions
	.globl __ZSt12regex_searchIN9__gnu_cxx17__normal_iteratorIPKcNSt7__cxx1112basic_stringIcSt11char_traitsIcESaIcEEEEESaINS4_9sub_matchISA_EEEcNS4_12regex_traitsIcEEEbT_SG_RNS4_13match_resultsISG_T0_EERKNS4_11basic_regexIT1_T2_EENSt15regex_constants15match_flag_typeE
	.weak_definition __ZSt12regex_searchIN9__gnu_cxx17__normal_iteratorIPKcNSt7__cxx1112basic_stringIcSt11char_traitsIcESaIcEEEEESaINS4_9sub_matchISA_EEEcNS4_12regex_traitsIcEEEbT_SG_RNS4_13match_resultsISG_T0_EERKNS4_11basic_regexIT1_T2_EENSt15regex_constants15match_flag_typeE
__ZSt12regex_searchIN9__gnu_cxx17__normal_iteratorIPKcNSt7__cxx1112basic_stringIcSt11char_traitsIcESaIcEEEEESaINS4_9sub_matchISA_EEEcNS4_12regex_traitsIcEEEbT_SG_RNS4_13match_resultsISG_T0_EERKNS4_11basic_regexIT1_T2_EENSt15regex_constants15match_flag_typeE:
LFB6032:
	pushq	%rbp
LCFI933:
	movq	%rsp, %rbp
LCFI934:
	subq	$48, %rsp
	movq	%rdi, -8(%rbp)
	movq	%rsi, -16(%rbp)
	movq	%rdx, -24(%rbp)
	movq	%rcx, -32(%rbp)
	movl	%r8d, -36(%rbp)
	movl	-36(%rbp), %edi
	movq	-32(%rbp), %rcx
	movq	-24(%rbp), %rdx
	movq	-16(%rbp), %rsi
	movq	-8(%rbp), %rax
	movl	%edi, %r8d
	movq	%rax, %rdi
	call	__ZNSt8__detail17__regex_algo_implIN9__gnu_cxx17__normal_iteratorIPKcNSt7__cxx1112basic_stringIcSt11char_traitsIcESaIcEEEEESaINS5_9sub_matchISB_EEEcNS5_12regex_traitsIcEELNS_20_RegexExecutorPolicyE0ELb0EEEbT_SI_RNS5_13match_resultsISI_T0_EERKNS5_11basic_regexIT1_T2_EENSt15regex_constants15match_flag_typeE
	leave
LCFI935:
	ret
LFE6032:
	.align 1
	.globl __ZN9__gnu_cxx13new_allocatorISt4pairIiPcEEC2Ev
	.weak_definition __ZN9__gnu_cxx13new_allocatorISt4pairIiPcEEC2Ev
__ZN9__gnu_cxx13new_allocatorISt4pairIiPcEEC2Ev:
LFB6034:
	pushq	%rbp
LCFI936:
	movq	%rsp, %rbp
LCFI937:
	movq	%rdi, -8(%rbp)
	nop
	popq	%rbp
LCFI938:
	ret
LFE6034:
	.globl __ZNSt16allocator_traitsISaISt4pairIiPcEEE10deallocateERS3_PS2_m
	.weak_definition __ZNSt16allocator_traitsISaISt4pairIiPcEEE10deallocateERS3_PS2_m
__ZNSt16allocator_traitsISaISt4pairIiPcEEE10deallocateERS3_PS2_m:
LFB6036:
	pushq	%rbp
LCFI939:
	movq	%rsp, %rbp
LCFI940:
	subq	$32, %rsp
	movq	%rdi, -8(%rbp)
	movq	%rsi, -16(%rbp)
	movq	%rdx, -24(%rbp)
	movq	-24(%rbp), %rdx
	movq	-16(%rbp), %rcx
	movq	-8(%rbp), %rax
	movq	%rcx, %rsi
	movq	%rax, %rdi
	call	__ZN9__gnu_cxx13new_allocatorISt4pairIiPcEE10deallocateEPS3_m
	nop
	leave
LCFI941:
	ret
LFE6036:
	.globl __ZSt8_DestroyIPSt4pairIiPcEEvT_S4_
	.weak_definition __ZSt8_DestroyIPSt4pairIiPcEEvT_S4_
__ZSt8_DestroyIPSt4pairIiPcEEvT_S4_:
LFB6037:
	pushq	%rbp
LCFI942:
	movq	%rsp, %rbp
LCFI943:
	subq	$16, %rsp
	movq	%rdi, -8(%rbp)
	movq	%rsi, -16(%rbp)
	movq	-16(%rbp), %rdx
	movq	-8(%rbp), %rax
	movq	%rdx, %rsi
	movq	%rax, %rdi
	call	__ZNSt12_Destroy_auxILb1EE9__destroyIPSt4pairIiPcEEEvT_S6_
	nop
	leave
LCFI944:
	ret
LFE6037:
	.align 1
	.globl __ZN9__gnu_cxx13new_allocatorINSt7__cxx1112basic_stringIcSt11char_traitsIcESaIcEEEEC2Ev
	.weak_definition __ZN9__gnu_cxx13new_allocatorINSt7__cxx1112basic_stringIcSt11char_traitsIcESaIcEEEEC2Ev
__ZN9__gnu_cxx13new_allocatorINSt7__cxx1112basic_stringIcSt11char_traitsIcESaIcEEEEC2Ev:
LFB6039:
	pushq	%rbp
LCFI945:
	movq	%rsp, %rbp
LCFI946:
	movq	%rdi, -8(%rbp)
	nop
	popq	%rbp
LCFI947:
	ret
LFE6039:
	.globl __ZNSt16allocator_traitsISaINSt7__cxx1112basic_stringIcSt11char_traitsIcESaIcEEEEE10deallocateERS6_PS5_m
	.weak_definition __ZNSt16allocator_traitsISaINSt7__cxx1112basic_stringIcSt11char_traitsIcESaIcEEEEE10deallocateERS6_PS5_m
__ZNSt16allocator_traitsISaINSt7__cxx1112basic_stringIcSt11char_traitsIcESaIcEEEEE10deallocateERS6_PS5_m:
LFB6041:
	pushq	%rbp
LCFI948:
	movq	%rsp, %rbp
LCFI949:
	subq	$32, %rsp
	movq	%rdi, -8(%rbp)
	movq	%rsi, -16(%rbp)
	movq	%rdx, -24(%rbp)
	movq	-24(%rbp), %rdx
	movq	-16(%rbp), %rcx
	movq	-8(%rbp), %rax
	movq	%rcx, %rsi
	movq	%rax, %rdi
	call	__ZN9__gnu_cxx13new_allocatorINSt7__cxx1112basic_stringIcSt11char_traitsIcESaIcEEEE10deallocateEPS6_m
	nop
	leave
LCFI950:
	ret
LFE6041:
	.globl __ZSt8_DestroyIPNSt7__cxx1112basic_stringIcSt11char_traitsIcESaIcEEEEvT_S7_
	.weak_definition __ZSt8_DestroyIPNSt7__cxx1112basic_stringIcSt11char_traitsIcESaIcEEEEvT_S7_
__ZSt8_DestroyIPNSt7__cxx1112basic_stringIcSt11char_traitsIcESaIcEEEEvT_S7_:
LFB6042:
	pushq	%rbp
LCFI951:
	movq	%rsp, %rbp
LCFI952:
	subq	$16, %rsp
	movq	%rdi, -8(%rbp)
	movq	%rsi, -16(%rbp)
	movq	-16(%rbp), %rdx
	movq	-8(%rbp), %rax
	movq	%rdx, %rsi
	movq	%rax, %rdi
	call	__ZNSt12_Destroy_auxILb0EE9__destroyIPNSt7__cxx1112basic_stringIcSt11char_traitsIcESaIcEEEEEvT_S9_
	nop
	leave
LCFI953:
	ret
LFE6042:
	.globl __ZSt7forwardIRKNSt7__cxx1112basic_stringIcSt11char_traitsIcESaIcEEEEOT_RNSt16remove_referenceIS8_E4typeE
	.weak_definition __ZSt7forwardIRKNSt7__cxx1112basic_stringIcSt11char_traitsIcESaIcEEEEOT_RNSt16remove_referenceIS8_E4typeE
__ZSt7forwardIRKNSt7__cxx1112basic_stringIcSt11char_traitsIcESaIcEEEEOT_RNSt16remove_referenceIS8_E4typeE:
LFB6043:
	pushq	%rbp
LCFI954:
	movq	%rsp, %rbp
LCFI955:
	movq	%rdi, -8(%rbp)
	movq	-8(%rbp), %rax
	popq	%rbp
LCFI956:
	ret
LFE6043:
	.align 1
	.globl __ZN9__gnu_cxx13new_allocatorINSt7__cxx1112basic_stringIcSt11char_traitsIcESaIcEEEE9constructIS6_JRKS6_EEEvPT_DpOT0_
	.weak_definition __ZN9__gnu_cxx13new_allocatorINSt7__cxx1112basic_stringIcSt11char_traitsIcESaIcEEEE9constructIS6_JRKS6_EEEvPT_DpOT0_
__ZN9__gnu_cxx13new_allocatorINSt7__cxx1112basic_stringIcSt11char_traitsIcESaIcEEEE9constructIS6_JRKS6_EEEvPT_DpOT0_:
LFB6044:
	pushq	%rbp
LCFI957:
	movq	%rsp, %rbp
LCFI958:
	pushq	%r13
	pushq	%r12
	pushq	%rbx
	subq	$40, %rsp
LCFI959:
	movq	%rdi, -40(%rbp)
	movq	%rsi, -48(%rbp)
	movq	%rdx, -56(%rbp)
	movq	-56(%rbp), %rax
	movq	%rax, %rdi
	call	__ZSt7forwardIRKNSt7__cxx1112basic_stringIcSt11char_traitsIcESaIcEEEEOT_RNSt16remove_referenceIS8_E4typeE
	movq	%rax, %r13
	movq	-48(%rbp), %rbx
	movq	%rbx, %rsi
	movl	$32, %edi
	call	__ZnwmPv
	movq	%rax, %r12
	movq	%r13, %rsi
	movq	%r12, %rdi
LEHB68:
	call	__ZNSt7__cxx1112basic_stringIcSt11char_traitsIcESaIcEEC1ERKS4_
LEHE68:
	jmp	L650
L649:
	movq	%rax, %r13
	movq	%rbx, %rsi
	movq	%r12, %rdi
	call	__ZdlPvS_
	movq	%r13, %rax
	movq	%rax, %rdi
LEHB69:
	call	__Unwind_Resume
LEHE69:
L650:
	addq	$40, %rsp
	popq	%rbx
	popq	%r12
	popq	%r13
	popq	%rbp
LCFI960:
	ret
LFE6044:
	.section __DATA,__gcc_except_tab
GCC_except_table28:
LLSDA6044:
	.byte	0xff
	.byte	0x3
	.byte	0x1a
	.set L$set$180,LEHB68-LFB6044
	.long L$set$180
	.set L$set$181,LEHE68-LEHB68
	.long L$set$181
	.set L$set$182,L649-LFB6044
	.long L$set$182
	.byte	0
	.set L$set$183,LEHB69-LFB6044
	.long L$set$183
	.set L$set$184,LEHE69-LEHB69
	.long L$set$184
	.long	0
	.byte	0
	.section __TEXT,__textcoal_nt,coalesced,pure_instructions
	.align 1
	.globl __ZNKSt6vectorINSt7__cxx1112basic_stringIcSt11char_traitsIcESaIcEEESaIS5_EE12_M_check_lenEmPKc
	.weak_definition __ZNKSt6vectorINSt7__cxx1112basic_stringIcSt11char_traitsIcESaIcEEESaIS5_EE12_M_check_lenEmPKc
__ZNKSt6vectorINSt7__cxx1112basic_stringIcSt11char_traitsIcESaIcEEESaIS5_EE12_M_check_lenEmPKc:
LFB6045:
	pushq	%rbp
LCFI961:
	movq	%rsp, %rbp
LCFI962:
	pushq	%rbx
	subq	$56, %rsp
LCFI963:
	movq	%rdi, -40(%rbp)
	movq	%rsi, -48(%rbp)
	movq	%rdx, -56(%rbp)
	movq	-40(%rbp), %rax
	movq	%rax, %rdi
	call	__ZNKSt6vectorINSt7__cxx1112basic_stringIcSt11char_traitsIcESaIcEEESaIS5_EE8max_sizeEv
	movq	%rax, %rbx
	movq	-40(%rbp), %rax
	movq	%rax, %rdi
	call	__ZNKSt6vectorINSt7__cxx1112basic_stringIcSt11char_traitsIcESaIcEEESaIS5_EE4sizeEv
	subq	%rax, %rbx
	movq	%rbx, %rdx
	movq	-48(%rbp), %rax
	cmpq	%rax, %rdx
	setb	%al
	testb	%al, %al
	je	L652
	movq	-56(%rbp), %rax
	movq	%rax, %rdi
	call	__ZSt20__throw_length_errorPKc
L652:
	movq	-40(%rbp), %rax
	movq	%rax, %rdi
	call	__ZNKSt6vectorINSt7__cxx1112basic_stringIcSt11char_traitsIcESaIcEEESaIS5_EE4sizeEv
	movq	%rax, %rbx
	movq	-40(%rbp), %rax
	movq	%rax, %rdi
	call	__ZNKSt6vectorINSt7__cxx1112basic_stringIcSt11char_traitsIcESaIcEEESaIS5_EE4sizeEv
	movq	%rax, -32(%rbp)
	leaq	-48(%rbp), %rdx
	leaq	-32(%rbp), %rax
	movq	%rdx, %rsi
	movq	%rax, %rdi
	call	__ZSt3maxImERKT_S2_S2_
	movq	(%rax), %rax
	addq	%rbx, %rax
	movq	%rax, -24(%rbp)
	movq	-40(%rbp), %rax
	movq	%rax, %rdi
	call	__ZNKSt6vectorINSt7__cxx1112basic_stringIcSt11char_traitsIcESaIcEEESaIS5_EE4sizeEv
	cmpq	%rax, -24(%rbp)
	jb	L653
	movq	-40(%rbp), %rax
	movq	%rax, %rdi
	call	__ZNKSt6vectorINSt7__cxx1112basic_stringIcSt11char_traitsIcESaIcEEESaIS5_EE8max_sizeEv
	cmpq	%rax, -24(%rbp)
	jbe	L654
L653:
	movq	-40(%rbp), %rax
	movq	%rax, %rdi
	call	__ZNKSt6vectorINSt7__cxx1112basic_stringIcSt11char_traitsIcESaIcEEESaIS5_EE8max_sizeEv
	jmp	L655
L654:
	movq	-24(%rbp), %rax
L655:
	addq	$56, %rsp
	popq	%rbx
	popq	%rbp
LCFI964:
	ret
LFE6045:
	.globl __ZN9__gnu_cxxmiIPNSt7__cxx1112basic_stringIcSt11char_traitsIcESaIcEEESt6vectorIS6_SaIS6_EEEENS_17__normal_iteratorIT_T0_E15difference_typeERKSE_SH_
	.weak_definition __ZN9__gnu_cxxmiIPNSt7__cxx1112basic_stringIcSt11char_traitsIcESaIcEEESt6vectorIS6_SaIS6_EEEENS_17__normal_iteratorIT_T0_E15difference_typeERKSE_SH_
__ZN9__gnu_cxxmiIPNSt7__cxx1112basic_stringIcSt11char_traitsIcESaIcEEESt6vectorIS6_SaIS6_EEEENS_17__normal_iteratorIT_T0_E15difference_typeERKSE_SH_:
LFB6046:
	pushq	%rbp
LCFI965:
	movq	%rsp, %rbp
LCFI966:
	pushq	%rbx
	subq	$24, %rsp
LCFI967:
	movq	%rdi, -24(%rbp)
	movq	%rsi, -32(%rbp)
	movq	-24(%rbp), %rax
	movq	%rax, %rdi
	call	__ZNK9__gnu_cxx17__normal_iteratorIPNSt7__cxx1112basic_stringIcSt11char_traitsIcESaIcEEESt6vectorIS6_SaIS6_EEE4baseEv
	movq	(%rax), %rbx
	movq	-32(%rbp), %rax
	movq	%rax, %rdi
	call	__ZNK9__gnu_cxx17__normal_iteratorIPNSt7__cxx1112basic_stringIcSt11char_traitsIcESaIcEEESt6vectorIS6_SaIS6_EEE4baseEv
	movq	(%rax), %rax
	subq	%rax, %rbx
	movq	%rbx, %rax
	sarq	$5, %rax
	addq	$24, %rsp
	popq	%rbx
	popq	%rbp
LCFI968:
	ret
LFE6046:
	.align 1
	.globl __ZNSt12_Vector_baseINSt7__cxx1112basic_stringIcSt11char_traitsIcESaIcEEESaIS5_EE11_M_allocateEm
	.weak_definition __ZNSt12_Vector_baseINSt7__cxx1112basic_stringIcSt11char_traitsIcESaIcEEESaIS5_EE11_M_allocateEm
__ZNSt12_Vector_baseINSt7__cxx1112basic_stringIcSt11char_traitsIcESaIcEEESaIS5_EE11_M_allocateEm:
LFB6047:
	pushq	%rbp
LCFI969:
	movq	%rsp, %rbp
LCFI970:
	subq	$16, %rsp
	movq	%rdi, -8(%rbp)
	movq	%rsi, -16(%rbp)
	cmpq	$0, -16(%rbp)
	je	L660
	movq	-8(%rbp), %rax
	movq	-16(%rbp), %rdx
	movq	%rdx, %rsi
	movq	%rax, %rdi
	call	__ZNSt16allocator_traitsISaINSt7__cxx1112basic_stringIcSt11char_traitsIcESaIcEEEEE8allocateERS6_m
	jmp	L662
L660:
	movl	$0, %eax
L662:
	leave
LCFI971:
	ret
LFE6047:
	.globl __ZNSt6vectorINSt7__cxx1112basic_stringIcSt11char_traitsIcESaIcEEESaIS5_EE11_S_relocateEPS5_S8_S8_RS6_
	.weak_definition __ZNSt6vectorINSt7__cxx1112basic_stringIcSt11char_traitsIcESaIcEEESaIS5_EE11_S_relocateEPS5_S8_S8_RS6_
__ZNSt6vectorINSt7__cxx1112basic_stringIcSt11char_traitsIcESaIcEEESaIS5_EE11_S_relocateEPS5_S8_S8_RS6_:
LFB6048:
	pushq	%rbp
LCFI972:
	movq	%rsp, %rbp
LCFI973:
	subq	$48, %rsp
	movq	%rdi, -24(%rbp)
	movq	%rsi, -32(%rbp)
	movq	%rdx, -40(%rbp)
	movq	%rcx, -48(%rbp)
	movq	-48(%rbp), %rcx
	movq	-40(%rbp), %rdx
	movq	-32(%rbp), %rsi
	movq	-24(%rbp), %rax
	movq	%rax, %rdi
	call	__ZNSt6vectorINSt7__cxx1112basic_stringIcSt11char_traitsIcESaIcEEESaIS5_EE14_S_do_relocateEPS5_S8_S8_RS6_St17integral_constantIbLb1EE
	leave
LCFI974:
	ret
LFE6048:
	.globl __ZSt34__uninitialized_move_if_noexcept_aIPNSt7__cxx1112basic_stringIcSt11char_traitsIcESaIcEEES6_SaIS5_EET0_T_S9_S8_RT1_
	.weak_definition __ZSt34__uninitialized_move_if_noexcept_aIPNSt7__cxx1112basic_stringIcSt11char_traitsIcESaIcEEES6_SaIS5_EET0_T_S9_S8_RT1_
__ZSt34__uninitialized_move_if_noexcept_aIPNSt7__cxx1112basic_stringIcSt11char_traitsIcESaIcEEES6_SaIS5_EET0_T_S9_S8_RT1_:
LFB6049:
	pushq	%rbp
LCFI975:
	movq	%rsp, %rbp
LCFI976:
	pushq	%rbx
	subq	$40, %rsp
LCFI977:
	movq	%rdi, -24(%rbp)
	movq	%rsi, -32(%rbp)
	movq	%rdx, -40(%rbp)
	movq	%rcx, -48(%rbp)
	movq	-32(%rbp), %rax
	movq	%rax, %rdi
	call	__ZSt32__make_move_if_noexcept_iteratorINSt7__cxx1112basic_stringIcSt11char_traitsIcESaIcEEESt13move_iteratorIPS5_EET0_PT_
	movq	%rax, %rbx
	movq	-24(%rbp), %rax
	movq	%rax, %rdi
	call	__ZSt32__make_move_if_noexcept_iteratorINSt7__cxx1112basic_stringIcSt11char_traitsIcESaIcEEESt13move_iteratorIPS5_EET0_PT_
	movq	%rax, %rdi
	movq	-48(%rbp), %rdx
	movq	-40(%rbp), %rax
	movq	%rdx, %rcx
	movq	%rax, %rdx
	movq	%rbx, %rsi
	call	__ZSt22__uninitialized_copy_aISt13move_iteratorIPNSt7__cxx1112basic_stringIcSt11char_traitsIcESaIcEEEES7_S6_ET0_T_SA_S9_RSaIT1_E
	addq	$40, %rsp
	popq	%rbx
	popq	%rbp
LCFI978:
	ret
LFE6049:
	.globl __ZNSt16allocator_traitsISaINSt7__cxx1112basic_stringIcSt11char_traitsIcESaIcEEEEE7destroyIS5_EEvRS6_PT_
	.weak_definition __ZNSt16allocator_traitsISaINSt7__cxx1112basic_stringIcSt11char_traitsIcESaIcEEEEE7destroyIS5_EEvRS6_PT_
__ZNSt16allocator_traitsISaINSt7__cxx1112basic_stringIcSt11char_traitsIcESaIcEEEEE7destroyIS5_EEvRS6_PT_:
LFB6050:
	pushq	%rbp
LCFI979:
	movq	%rsp, %rbp
LCFI980:
	subq	$16, %rsp
	movq	%rdi, -8(%rbp)
	movq	%rsi, -16(%rbp)
	movq	-16(%rbp), %rdx
	movq	-8(%rbp), %rax
	movq	%rdx, %rsi
	movq	%rax, %rdi
	call	__ZN9__gnu_cxx13new_allocatorINSt7__cxx1112basic_stringIcSt11char_traitsIcESaIcEEEE7destroyIS6_EEvPT_
	nop
	leave
LCFI981:
	ret
LFE6050:
	.globl __ZNSt16allocator_traitsISaINSt7__cxx1112basic_stringIcSt11char_traitsIcESaIcEEEEE9constructIS5_JS5_EEEvRS6_PT_DpOT0_
	.weak_definition __ZNSt16allocator_traitsISaINSt7__cxx1112basic_stringIcSt11char_traitsIcESaIcEEEEE9constructIS5_JS5_EEEvRS6_PT_DpOT0_
__ZNSt16allocator_traitsISaINSt7__cxx1112basic_stringIcSt11char_traitsIcESaIcEEEEE9constructIS5_JS5_EEEvRS6_PT_DpOT0_:
LFB6051:
	pushq	%rbp
LCFI982:
	movq	%rsp, %rbp
LCFI983:
	subq	$32, %rsp
	movq	%rdi, -8(%rbp)
	movq	%rsi, -16(%rbp)
	movq	%rdx, -24(%rbp)
	movq	-24(%rbp), %rax
	movq	%rax, %rdi
	call	__ZSt7forwardINSt7__cxx1112basic_stringIcSt11char_traitsIcESaIcEEEEOT_RNSt16remove_referenceIS6_E4typeE
	movq	%rax, %rdx
	movq	-16(%rbp), %rcx
	movq	-8(%rbp), %rax
	movq	%rcx, %rsi
	movq	%rax, %rdi
	call	__ZN9__gnu_cxx13new_allocatorINSt7__cxx1112basic_stringIcSt11char_traitsIcESaIcEEEE9constructIS6_JS6_EEEvPT_DpOT0_
	nop
	leave
LCFI984:
	ret
LFE6051:
	.align 1
	.globl __ZNSt6vectorINSt7__cxx1112basic_stringIcSt11char_traitsIcESaIcEEESaIS5_EE17_M_realloc_insertIJS5_EEEvN9__gnu_cxx17__normal_iteratorIPS5_S7_EEDpOT_
	.weak_definition __ZNSt6vectorINSt7__cxx1112basic_stringIcSt11char_traitsIcESaIcEEESaIS5_EE17_M_realloc_insertIJS5_EEEvN9__gnu_cxx17__normal_iteratorIPS5_S7_EEDpOT_
__ZNSt6vectorINSt7__cxx1112basic_stringIcSt11char_traitsIcESaIcEEESaIS5_EE17_M_realloc_insertIJS5_EEEvN9__gnu_cxx17__normal_iteratorIPS5_S7_EEDpOT_:
LFB6052:
	pushq	%rbp
LCFI985:
	movq	%rsp, %rbp
LCFI986:
	pushq	%rbx
	subq	$104, %rsp
LCFI987:
	movq	%rdi, -88(%rbp)
	movq	%rsi, -96(%rbp)
	movq	%rdx, -104(%rbp)
	movq	-88(%rbp), %rax
	leaq	lC27(%rip), %rdx
	movl	$1, %esi
	movq	%rax, %rdi
LEHB70:
	call	__ZNKSt6vectorINSt7__cxx1112basic_stringIcSt11char_traitsIcESaIcEEESaIS5_EE12_M_check_lenEmPKc
	movq	%rax, -32(%rbp)
	movq	-88(%rbp), %rax
	movq	(%rax), %rax
	movq	%rax, -40(%rbp)
	movq	-88(%rbp), %rax
	movq	8(%rax), %rax
	movq	%rax, -48(%rbp)
	movq	-88(%rbp), %rax
	movq	%rax, %rdi
	call	__ZNSt6vectorINSt7__cxx1112basic_stringIcSt11char_traitsIcESaIcEEESaIS5_EE5beginEv
	movq	%rax, -72(%rbp)
	leaq	-72(%rbp), %rdx
	leaq	-96(%rbp), %rax
	movq	%rdx, %rsi
	movq	%rax, %rdi
	call	__ZN9__gnu_cxxmiIPNSt7__cxx1112basic_stringIcSt11char_traitsIcESaIcEEESt6vectorIS6_SaIS6_EEEENS_17__normal_iteratorIT_T0_E15difference_typeERKSE_SH_
	movq	%rax, -56(%rbp)
	movq	-88(%rbp), %rax
	movq	-32(%rbp), %rdx
	movq	%rdx, %rsi
	movq	%rax, %rdi
	call	__ZNSt12_Vector_baseINSt7__cxx1112basic_stringIcSt11char_traitsIcESaIcEEESaIS5_EE11_M_allocateEm
LEHE70:
	movq	%rax, -64(%rbp)
	movq	-64(%rbp), %rax
	movq	%rax, -24(%rbp)
	movq	-104(%rbp), %rax
	movq	%rax, %rdi
	call	__ZSt7forwardINSt7__cxx1112basic_stringIcSt11char_traitsIcESaIcEEEEOT_RNSt16remove_referenceIS6_E4typeE
	movq	%rax, %rdx
	movq	-56(%rbp), %rax
	salq	$5, %rax
	movq	%rax, %rcx
	movq	-64(%rbp), %rax
	addq	%rax, %rcx
	movq	-88(%rbp), %rax
	movq	%rcx, %rsi
	movq	%rax, %rdi
	call	__ZNSt16allocator_traitsISaINSt7__cxx1112basic_stringIcSt11char_traitsIcESaIcEEEEE9constructIS5_JS5_EEEvRS6_PT_DpOT0_
	movq	$0, -24(%rbp)
	call	__ZNSt6vectorINSt7__cxx1112basic_stringIcSt11char_traitsIcESaIcEEESaIS5_EE15_S_use_relocateEv
	testb	%al, %al
	je	L670
	movq	-88(%rbp), %rax
	movq	%rax, %rdi
	call	__ZNSt12_Vector_baseINSt7__cxx1112basic_stringIcSt11char_traitsIcESaIcEEESaIS5_EE19_M_get_Tp_allocatorEv
	movq	%rax, %rbx
	leaq	-96(%rbp), %rax
	movq	%rax, %rdi
	call	__ZNK9__gnu_cxx17__normal_iteratorIPNSt7__cxx1112basic_stringIcSt11char_traitsIcESaIcEEESt6vectorIS6_SaIS6_EEE4baseEv
	movq	(%rax), %rsi
	movq	-64(%rbp), %rdx
	movq	-40(%rbp), %rax
	movq	%rbx, %rcx
	movq	%rax, %rdi
	call	__ZNSt6vectorINSt7__cxx1112basic_stringIcSt11char_traitsIcESaIcEEESaIS5_EE11_S_relocateEPS5_S8_S8_RS6_
	movq	%rax, -24(%rbp)
	addq	$32, -24(%rbp)
	movq	-88(%rbp), %rax
	movq	%rax, %rdi
	call	__ZNSt12_Vector_baseINSt7__cxx1112basic_stringIcSt11char_traitsIcESaIcEEESaIS5_EE19_M_get_Tp_allocatorEv
	movq	%rax, %rbx
	leaq	-96(%rbp), %rax
	movq	%rax, %rdi
	call	__ZNK9__gnu_cxx17__normal_iteratorIPNSt7__cxx1112basic_stringIcSt11char_traitsIcESaIcEEESt6vectorIS6_SaIS6_EEE4baseEv
	movq	(%rax), %rax
	movq	-24(%rbp), %rdx
	movq	-48(%rbp), %rsi
	movq	%rbx, %rcx
	movq	%rax, %rdi
	call	__ZNSt6vectorINSt7__cxx1112basic_stringIcSt11char_traitsIcESaIcEEESaIS5_EE11_S_relocateEPS5_S8_S8_RS6_
	movq	%rax, -24(%rbp)
	jmp	L671
L670:
	movq	-88(%rbp), %rax
	movq	%rax, %rdi
	call	__ZNSt12_Vector_baseINSt7__cxx1112basic_stringIcSt11char_traitsIcESaIcEEESaIS5_EE19_M_get_Tp_allocatorEv
	movq	%rax, %rbx
	leaq	-96(%rbp), %rax
	movq	%rax, %rdi
	call	__ZNK9__gnu_cxx17__normal_iteratorIPNSt7__cxx1112basic_stringIcSt11char_traitsIcESaIcEEESt6vectorIS6_SaIS6_EEE4baseEv
	movq	(%rax), %rsi
	movq	-64(%rbp), %rdx
	movq	-40(%rbp), %rax
	movq	%rbx, %rcx
	movq	%rax, %rdi
LEHB71:
	call	__ZSt34__uninitialized_move_if_noexcept_aIPNSt7__cxx1112basic_stringIcSt11char_traitsIcESaIcEEES6_SaIS5_EET0_T_S9_S8_RT1_
	movq	%rax, -24(%rbp)
	addq	$32, -24(%rbp)
	movq	-88(%rbp), %rax
	movq	%rax, %rdi
	call	__ZNSt12_Vector_baseINSt7__cxx1112basic_stringIcSt11char_traitsIcESaIcEEESaIS5_EE19_M_get_Tp_allocatorEv
	movq	%rax, %rbx
	leaq	-96(%rbp), %rax
	movq	%rax, %rdi
	call	__ZNK9__gnu_cxx17__normal_iteratorIPNSt7__cxx1112basic_stringIcSt11char_traitsIcESaIcEEESt6vectorIS6_SaIS6_EEE4baseEv
	movq	(%rax), %rax
	movq	-24(%rbp), %rdx
	movq	-48(%rbp), %rsi
	movq	%rbx, %rcx
	movq	%rax, %rdi
	call	__ZSt34__uninitialized_move_if_noexcept_aIPNSt7__cxx1112basic_stringIcSt11char_traitsIcESaIcEEES6_SaIS5_EET0_T_S9_S8_RT1_
LEHE71:
	movq	%rax, -24(%rbp)
L671:
	call	__ZNSt6vectorINSt7__cxx1112basic_stringIcSt11char_traitsIcESaIcEEESaIS5_EE15_S_use_relocateEv
	xorl	$1, %eax
	testb	%al, %al
	je	L672
	movq	-88(%rbp), %rax
	movq	%rax, %rdi
	call	__ZNSt12_Vector_baseINSt7__cxx1112basic_stringIcSt11char_traitsIcESaIcEEESaIS5_EE19_M_get_Tp_allocatorEv
	movq	%rax, %rdx
	movq	-48(%rbp), %rcx
	movq	-40(%rbp), %rax
	movq	%rcx, %rsi
	movq	%rax, %rdi
LEHB72:
	call	__ZSt8_DestroyIPNSt7__cxx1112basic_stringIcSt11char_traitsIcESaIcEEES5_EvT_S7_RSaIT0_E
L672:
	movq	-88(%rbp), %rax
	movq	-88(%rbp), %rdx
	movq	16(%rdx), %rdx
	subq	-40(%rbp), %rdx
	sarq	$5, %rdx
	movq	-40(%rbp), %rcx
	movq	%rcx, %rsi
	movq	%rax, %rdi
	call	__ZNSt12_Vector_baseINSt7__cxx1112basic_stringIcSt11char_traitsIcESaIcEEESaIS5_EE13_M_deallocateEPS5_m
LEHE72:
	movq	-88(%rbp), %rax
	movq	-64(%rbp), %rdx
	movq	%rdx, (%rax)
	movq	-88(%rbp), %rax
	movq	-24(%rbp), %rdx
	movq	%rdx, 8(%rax)
	movq	-32(%rbp), %rax
	salq	$5, %rax
	movq	%rax, %rdx
	movq	-64(%rbp), %rax
	addq	%rax, %rdx
	movq	-88(%rbp), %rax
	movq	%rdx, 16(%rax)
	jmp	L679
L677:
	movq	%rax, %rdi
	call	___cxa_begin_catch
	cmpq	$0, -24(%rbp)
	jne	L674
	movq	-56(%rbp), %rax
	salq	$5, %rax
	movq	%rax, %rdx
	movq	-64(%rbp), %rax
	addq	%rax, %rdx
	movq	-88(%rbp), %rax
	movq	%rdx, %rsi
	movq	%rax, %rdi
	call	__ZNSt16allocator_traitsISaINSt7__cxx1112basic_stringIcSt11char_traitsIcESaIcEEEEE7destroyIS5_EEvRS6_PT_
	jmp	L675
L674:
	movq	-88(%rbp), %rax
	movq	%rax, %rdi
	call	__ZNSt12_Vector_baseINSt7__cxx1112basic_stringIcSt11char_traitsIcESaIcEEESaIS5_EE19_M_get_Tp_allocatorEv
	movq	%rax, %rdx
	movq	-24(%rbp), %rcx
	movq	-64(%rbp), %rax
	movq	%rcx, %rsi
	movq	%rax, %rdi
LEHB73:
	call	__ZSt8_DestroyIPNSt7__cxx1112basic_stringIcSt11char_traitsIcESaIcEEES5_EvT_S7_RSaIT0_E
L675:
	movq	-88(%rbp), %rax
	movq	-32(%rbp), %rdx
	movq	-64(%rbp), %rcx
	movq	%rcx, %rsi
	movq	%rax, %rdi
	call	__ZNSt12_Vector_baseINSt7__cxx1112basic_stringIcSt11char_traitsIcESaIcEEESaIS5_EE13_M_deallocateEPS5_m
	call	___cxa_rethrow
LEHE73:
L678:
	movq	%rax, %rbx
	call	___cxa_end_catch
	movq	%rbx, %rax
	movq	%rax, %rdi
LEHB74:
	call	__Unwind_Resume
LEHE74:
L679:
	addq	$104, %rsp
	popq	%rbx
	popq	%rbp
LCFI988:
	ret
LFE6052:
	.section __DATA,__gcc_except_tab
GCC_except_table29:
	.align 3
LLSDA6052:
	.byte	0xff
	.byte	0
	.byte	0x4d
	.byte	0x3
	.byte	0x41
	.set L$set$185,LEHB70-LFB6052
	.long L$set$185
	.set L$set$186,LEHE70-LEHB70
	.long L$set$186
	.long	0
	.byte	0
	.set L$set$187,LEHB71-LFB6052
	.long L$set$187
	.set L$set$188,LEHE71-LEHB71
	.long L$set$188
	.set L$set$189,L677-LFB6052
	.long L$set$189
	.byte	0x1
	.set L$set$190,LEHB72-LFB6052
	.long L$set$190
	.set L$set$191,LEHE72-LEHB72
	.long L$set$191
	.long	0
	.byte	0
	.set L$set$192,LEHB73-LFB6052
	.long L$set$192
	.set L$set$193,LEHE73-LEHB73
	.long L$set$193
	.set L$set$194,L678-LFB6052
	.long L$set$194
	.byte	0
	.set L$set$195,LEHB74-LFB6052
	.long L$set$195
	.set L$set$196,LEHE74-LEHB74
	.long L$set$196
	.long	0
	.byte	0
	.byte	0x1
	.byte	0
	.align 3
	.quad	0
	.section __TEXT,__textcoal_nt,coalesced,pure_instructions
	.align 1
	.globl __ZN9__gnu_cxx13new_allocatorISt13_Rb_tree_nodeISt4pairIKNSt7__cxx1112basic_stringIcSt11char_traitsIcESaIcEEES2_IibEEEEC2Ev
	.weak_definition __ZN9__gnu_cxx13new_allocatorISt13_Rb_tree_nodeISt4pairIKNSt7__cxx1112basic_stringIcSt11char_traitsIcESaIcEEES2_IibEEEEC2Ev
__ZN9__gnu_cxx13new_allocatorISt13_Rb_tree_nodeISt4pairIKNSt7__cxx1112basic_stringIcSt11char_traitsIcESaIcEEES2_IibEEEEC2Ev:
LFB6065:
	pushq	%rbp
LCFI989:
	movq	%rsp, %rbp
LCFI990:
	movq	%rdi, -8(%rbp)
	nop
	popq	%rbp
LCFI991:
	ret
LFE6065:
	.globl __ZNSt8_Rb_treeINSt7__cxx1112basic_stringIcSt11char_traitsIcESaIcEEESt4pairIKS5_S6_IibEESt10_Select1stIS9_ESt4lessIS5_ESaIS9_EE8_S_rightEPSt18_Rb_tree_node_base
	.weak_definition __ZNSt8_Rb_treeINSt7__cxx1112basic_stringIcSt11char_traitsIcESaIcEEESt4pairIKS5_S6_IibEESt10_Select1stIS9_ESt4lessIS5_ESaIS9_EE8_S_rightEPSt18_Rb_tree_node_base
__ZNSt8_Rb_treeINSt7__cxx1112basic_stringIcSt11char_traitsIcESaIcEEESt4pairIKS5_S6_IibEESt10_Select1stIS9_ESt4lessIS5_ESaIS9_EE8_S_rightEPSt18_Rb_tree_node_base:
LFB6067:
	pushq	%rbp
LCFI992:
	movq	%rsp, %rbp
LCFI993:
	movq	%rdi, -8(%rbp)
	movq	-8(%rbp), %rax
	movq	24(%rax), %rax
	popq	%rbp
LCFI994:
	ret
LFE6067:
	.globl __ZNSt8_Rb_treeINSt7__cxx1112basic_stringIcSt11char_traitsIcESaIcEEESt4pairIKS5_S6_IibEESt10_Select1stIS9_ESt4lessIS5_ESaIS9_EE7_S_leftEPSt18_Rb_tree_node_base
	.weak_definition __ZNSt8_Rb_treeINSt7__cxx1112basic_stringIcSt11char_traitsIcESaIcEEESt4pairIKS5_S6_IibEESt10_Select1stIS9_ESt4lessIS5_ESaIS9_EE7_S_leftEPSt18_Rb_tree_node_base
__ZNSt8_Rb_treeINSt7__cxx1112basic_stringIcSt11char_traitsIcESaIcEEESt4pairIKS5_S6_IibEESt10_Select1stIS9_ESt4lessIS5_ESaIS9_EE7_S_leftEPSt18_Rb_tree_node_base:
LFB6068:
	pushq	%rbp
LCFI995:
	movq	%rsp, %rbp
LCFI996:
	movq	%rdi, -8(%rbp)
	movq	-8(%rbp), %rax
	movq	16(%rax), %rax
	popq	%rbp
LCFI997:
	ret
LFE6068:
	.align 1
	.globl __ZNSt8_Rb_treeINSt7__cxx1112basic_stringIcSt11char_traitsIcESaIcEEESt4pairIKS5_S6_IibEESt10_Select1stIS9_ESt4lessIS5_ESaIS9_EE12_M_drop_nodeEPSt13_Rb_tree_nodeIS9_E
	.weak_definition __ZNSt8_Rb_treeINSt7__cxx1112basic_stringIcSt11char_traitsIcESaIcEEESt4pairIKS5_S6_IibEESt10_Select1stIS9_ESt4lessIS5_ESaIS9_EE12_M_drop_nodeEPSt13_Rb_tree_nodeIS9_E
__ZNSt8_Rb_treeINSt7__cxx1112basic_stringIcSt11char_traitsIcESaIcEEESt4pairIKS5_S6_IibEESt10_Select1stIS9_ESt4lessIS5_ESaIS9_EE12_M_drop_nodeEPSt13_Rb_tree_nodeIS9_E:
LFB6069:
	pushq	%rbp
LCFI998:
	movq	%rsp, %rbp
LCFI999:
	subq	$16, %rsp
	movq	%rdi, -8(%rbp)
	movq	%rsi, -16(%rbp)
	movq	-16(%rbp), %rdx
	movq	-8(%rbp), %rax
	movq	%rdx, %rsi
	movq	%rax, %rdi
	call	__ZNSt8_Rb_treeINSt7__cxx1112basic_stringIcSt11char_traitsIcESaIcEEESt4pairIKS5_S6_IibEESt10_Select1stIS9_ESt4lessIS5_ESaIS9_EE15_M_destroy_nodeEPSt13_Rb_tree_nodeIS9_E
	movq	-16(%rbp), %rdx
	movq	-8(%rbp), %rax
	movq	%rdx, %rsi
	movq	%rax, %rdi
	call	__ZNSt8_Rb_treeINSt7__cxx1112basic_stringIcSt11char_traitsIcESaIcEEESt4pairIKS5_S6_IibEESt10_Select1stIS9_ESt4lessIS5_ESaIS9_EE11_M_put_nodeEPSt13_Rb_tree_nodeIS9_E
	nop
	leave
LCFI1000:
	ret
LFE6069:
	.align 1
	.globl __ZNSt8_Rb_treeINSt7__cxx1112basic_stringIcSt11char_traitsIcESaIcEEESt4pairIKS5_S6_IibEESt10_Select1stIS9_ESt4lessIS5_ESaIS9_EE14_M_create_nodeIJS6_IS5_S8_EEEEPSt13_Rb_tree_nodeIS9_EDpOT_
	.weak_definition __ZNSt8_Rb_treeINSt7__cxx1112basic_stringIcSt11char_traitsIcESaIcEEESt4pairIKS5_S6_IibEESt10_Select1stIS9_ESt4lessIS5_ESaIS9_EE14_M_create_nodeIJS6_IS5_S8_EEEEPSt13_Rb_tree_nodeIS9_EDpOT_
__ZNSt8_Rb_treeINSt7__cxx1112basic_stringIcSt11char_traitsIcESaIcEEESt4pairIKS5_S6_IibEESt10_Select1stIS9_ESt4lessIS5_ESaIS9_EE14_M_create_nodeIJS6_IS5_S8_EEEEPSt13_Rb_tree_nodeIS9_EDpOT_:
LFB6070:
	pushq	%rbp
LCFI1001:
	movq	%rsp, %rbp
LCFI1002:
	subq	$32, %rsp
	movq	%rdi, -24(%rbp)
	movq	%rsi, -32(%rbp)
	movq	-24(%rbp), %rax
	movq	%rax, %rdi
	call	__ZNSt8_Rb_treeINSt7__cxx1112basic_stringIcSt11char_traitsIcESaIcEEESt4pairIKS5_S6_IibEESt10_Select1stIS9_ESt4lessIS5_ESaIS9_EE11_M_get_nodeEv
	movq	%rax, -8(%rbp)
	movq	-32(%rbp), %rax
	movq	%rax, %rdi
	call	__ZSt7forwardISt4pairINSt7__cxx1112basic_stringIcSt11char_traitsIcESaIcEEES0_IibEEEOT_RNSt16remove_referenceIS9_E4typeE
	movq	%rax, %rdx
	movq	-8(%rbp), %rcx
	movq	-24(%rbp), %rax
	movq	%rcx, %rsi
	movq	%rax, %rdi
	call	__ZNSt8_Rb_treeINSt7__cxx1112basic_stringIcSt11char_traitsIcESaIcEEESt4pairIKS5_S6_IibEESt10_Select1stIS9_ESt4lessIS5_ESaIS9_EE17_M_construct_nodeIJS6_IS5_S8_EEEEvPSt13_Rb_tree_nodeIS9_EDpOT_
	movq	-8(%rbp), %rax
	leave
LCFI1003:
	ret
LFE6070:
	.align 1
	.globl __ZNSt8_Rb_treeINSt7__cxx1112basic_stringIcSt11char_traitsIcESaIcEEESt4pairIKS5_S6_IibEESt10_Select1stIS9_ESt4lessIS5_ESaIS9_EE24_M_get_insert_unique_posERS7_
	.weak_definition __ZNSt8_Rb_treeINSt7__cxx1112basic_stringIcSt11char_traitsIcESaIcEEESt4pairIKS5_S6_IibEESt10_Select1stIS9_ESt4lessIS5_ESaIS9_EE24_M_get_insert_unique_posERS7_
__ZNSt8_Rb_treeINSt7__cxx1112basic_stringIcSt11char_traitsIcESaIcEEESt4pairIKS5_S6_IibEESt10_Select1stIS9_ESt4lessIS5_ESaIS9_EE24_M_get_insert_unique_posERS7_:
LFB6071:
	pushq	%rbp
LCFI1004:
	movq	%rsp, %rbp
LCFI1005:
	pushq	%rbx
	subq	$120, %rsp
LCFI1006:
	movq	%rdi, -120(%rbp)
	movq	%rsi, -128(%rbp)
	movq	-120(%rbp), %rax
	movq	%rax, %rdi
	call	__ZNSt8_Rb_treeINSt7__cxx1112basic_stringIcSt11char_traitsIcESaIcEEESt4pairIKS5_S6_IibEESt10_Select1stIS9_ESt4lessIS5_ESaIS9_EE8_M_beginEv
	movq	%rax, -96(%rbp)
	movq	-120(%rbp), %rax
	movq	%rax, %rdi
	call	__ZNSt8_Rb_treeINSt7__cxx1112basic_stringIcSt11char_traitsIcESaIcEEESt4pairIKS5_S6_IibEESt10_Select1stIS9_ESt4lessIS5_ESaIS9_EE6_M_endEv
	movq	%rax, -104(%rbp)
	movb	$1, -17(%rbp)
L692:
	movq	-96(%rbp), %rax
	testq	%rax, %rax
	je	L689
	movq	-96(%rbp), %rax
	movq	%rax, -104(%rbp)
	movq	-120(%rbp), %rbx
	movq	-96(%rbp), %rax
	movq	%rax, %rdi
	call	__ZNSt8_Rb_treeINSt7__cxx1112basic_stringIcSt11char_traitsIcESaIcEEESt4pairIKS5_S6_IibEESt10_Select1stIS9_ESt4lessIS5_ESaIS9_EE6_S_keyEPKSt13_Rb_tree_nodeIS9_E
	movq	%rax, %rdx
	movq	-128(%rbp), %rax
	movq	%rax, %rsi
	movq	%rbx, %rdi
	call	__ZNKSt4lessINSt7__cxx1112basic_stringIcSt11char_traitsIcESaIcEEEEclERKS5_S8_
	movb	%al, -17(%rbp)
	cmpb	$0, -17(%rbp)
	je	L690
	movq	-96(%rbp), %rax
	movq	%rax, %rdi
	call	__ZNSt8_Rb_treeINSt7__cxx1112basic_stringIcSt11char_traitsIcESaIcEEESt4pairIKS5_S6_IibEESt10_Select1stIS9_ESt4lessIS5_ESaIS9_EE7_S_leftEPSt18_Rb_tree_node_base
	jmp	L691
L690:
	movq	-96(%rbp), %rax
	movq	%rax, %rdi
	call	__ZNSt8_Rb_treeINSt7__cxx1112basic_stringIcSt11char_traitsIcESaIcEEESt4pairIKS5_S6_IibEESt10_Select1stIS9_ESt4lessIS5_ESaIS9_EE8_S_rightEPSt18_Rb_tree_node_base
L691:
	movq	%rax, -96(%rbp)
	jmp	L692
L689:
	movq	-104(%rbp), %rdx
	leaq	-112(%rbp), %rax
	movq	%rdx, %rsi
	movq	%rax, %rdi
	call	__ZNSt17_Rb_tree_iteratorISt4pairIKNSt7__cxx1112basic_stringIcSt11char_traitsIcESaIcEEES0_IibEEEC1EPSt18_Rb_tree_node_base
	cmpb	$0, -17(%rbp)
	je	L693
	movq	-120(%rbp), %rax
	movq	%rax, %rdi
	call	__ZNSt8_Rb_treeINSt7__cxx1112basic_stringIcSt11char_traitsIcESaIcEEESt4pairIKS5_S6_IibEESt10_Select1stIS9_ESt4lessIS5_ESaIS9_EE5beginEv
	movq	%rax, -88(%rbp)
	leaq	-88(%rbp), %rdx
	leaq	-112(%rbp), %rax
	movq	%rdx, %rsi
	movq	%rax, %rdi
	call	__ZSteqRKSt17_Rb_tree_iteratorISt4pairIKNSt7__cxx1112basic_stringIcSt11char_traitsIcESaIcEEES0_IibEEESC_
	testb	%al, %al
	je	L694
	leaq	-104(%rbp), %rdx
	leaq	-96(%rbp), %rcx
	leaq	-80(%rbp), %rax
	movq	%rcx, %rsi
	movq	%rax, %rdi
	call	__ZNSt4pairIPSt18_Rb_tree_node_baseS1_EC1IRPSt13_Rb_tree_nodeIS_IKNSt7__cxx1112basic_stringIcSt11char_traitsIcESaIcEEES_IibEEERS1_Lb1EEEOT_OT0_
	movq	-80(%rbp), %rax
	movq	-72(%rbp), %rdx
	jmp	L697
L694:
	leaq	-112(%rbp), %rax
	movq	%rax, %rdi
	call	__ZNSt17_Rb_tree_iteratorISt4pairIKNSt7__cxx1112basic_stringIcSt11char_traitsIcESaIcEEES0_IibEEEmmEv
L693:
	movq	-120(%rbp), %rbx
	movq	-112(%rbp), %rax
	movq	%rax, %rdi
	call	__ZNSt8_Rb_treeINSt7__cxx1112basic_stringIcSt11char_traitsIcESaIcEEESt4pairIKS5_S6_IibEESt10_Select1stIS9_ESt4lessIS5_ESaIS9_EE6_S_keyEPKSt18_Rb_tree_node_base
	movq	%rax, %rcx
	movq	-128(%rbp), %rax
	movq	%rax, %rdx
	movq	%rcx, %rsi
	movq	%rbx, %rdi
	call	__ZNKSt4lessINSt7__cxx1112basic_stringIcSt11char_traitsIcESaIcEEEEclERKS5_S8_
	testb	%al, %al
	je	L696
	leaq	-104(%rbp), %rdx
	leaq	-96(%rbp), %rcx
	leaq	-64(%rbp), %rax
	movq	%rcx, %rsi
	movq	%rax, %rdi
	call	__ZNSt4pairIPSt18_Rb_tree_node_baseS1_EC1IRPSt13_Rb_tree_nodeIS_IKNSt7__cxx1112basic_stringIcSt11char_traitsIcESaIcEEES_IibEEERS1_Lb1EEEOT_OT0_
	movq	-64(%rbp), %rax
	movq	-56(%rbp), %rdx
	jmp	L697
L696:
	movq	$0, -32(%rbp)
	leaq	-32(%rbp), %rdx
	leaq	-112(%rbp), %rcx
	leaq	-48(%rbp), %rax
	movq	%rcx, %rsi
	movq	%rax, %rdi
	call	__ZNSt4pairIPSt18_Rb_tree_node_baseS1_EC1IRS1_Lb1EEEOT_RKS1_
	movq	-48(%rbp), %rax
	movq	-40(%rbp), %rdx
L697:
	addq	$120, %rsp
	popq	%rbx
	popq	%rbp
LCFI1007:
	ret
LFE6071:
	.globl __ZNSt8_Rb_treeINSt7__cxx1112basic_stringIcSt11char_traitsIcESaIcEEESt4pairIKS5_S6_IibEESt10_Select1stIS9_ESt4lessIS5_ESaIS9_EE6_S_keyEPKSt13_Rb_tree_nodeIS9_E
	.weak_definition __ZNSt8_Rb_treeINSt7__cxx1112basic_stringIcSt11char_traitsIcESaIcEEESt4pairIKS5_S6_IibEESt10_Select1stIS9_ESt4lessIS5_ESaIS9_EE6_S_keyEPKSt13_Rb_tree_nodeIS9_E
__ZNSt8_Rb_treeINSt7__cxx1112basic_stringIcSt11char_traitsIcESaIcEEESt4pairIKS5_S6_IibEESt10_Select1stIS9_ESt4lessIS5_ESaIS9_EE6_S_keyEPKSt13_Rb_tree_nodeIS9_E:
LFB6086:
	pushq	%rbp
LCFI1008:
	movq	%rsp, %rbp
LCFI1009:
	subq	$32, %rsp
	movq	%rdi, -24(%rbp)
	movq	-24(%rbp), %rax
	movq	%rax, %rdi
	call	__ZNSt8_Rb_treeINSt7__cxx1112basic_stringIcSt11char_traitsIcESaIcEEESt4pairIKS5_S6_IibEESt10_Select1stIS9_ESt4lessIS5_ESaIS9_EE8_S_valueEPKSt13_Rb_tree_nodeIS9_E
	movq	%rax, %rdx
	leaq	-1(%rbp), %rax
	movq	%rdx, %rsi
	movq	%rax, %rdi
	call	__ZNKSt10_Select1stISt4pairIKNSt7__cxx1112basic_stringIcSt11char_traitsIcESaIcEEES0_IibEEEclERKS9_
	leave
LCFI1010:
	ret
LFE6086:
	.align 1
	.globl __ZNSt8_Rb_treeINSt7__cxx1112basic_stringIcSt11char_traitsIcESaIcEEESt4pairIKS5_S6_IibEESt10_Select1stIS9_ESt4lessIS5_ESaIS9_EE14_M_insert_nodeEPSt18_Rb_tree_node_baseSH_PSt13_Rb_tree_nodeIS9_E
	.weak_definition __ZNSt8_Rb_treeINSt7__cxx1112basic_stringIcSt11char_traitsIcESaIcEEESt4pairIKS5_S6_IibEESt10_Select1stIS9_ESt4lessIS5_ESaIS9_EE14_M_insert_nodeEPSt18_Rb_tree_node_baseSH_PSt13_Rb_tree_nodeIS9_E
__ZNSt8_Rb_treeINSt7__cxx1112basic_stringIcSt11char_traitsIcESaIcEEESt4pairIKS5_S6_IibEESt10_Select1stIS9_ESt4lessIS5_ESaIS9_EE14_M_insert_nodeEPSt18_Rb_tree_node_baseSH_PSt13_Rb_tree_nodeIS9_E:
LFB6087:
	pushq	%rbp
LCFI1011:
	movq	%rsp, %rbp
LCFI1012:
	pushq	%r12
	pushq	%rbx
	subq	$48, %rsp
LCFI1013:
	movq	%rdi, -40(%rbp)
	movq	%rsi, -48(%rbp)
	movq	%rdx, -56(%rbp)
	movq	%rcx, -64(%rbp)
	cmpq	$0, -48(%rbp)
	jne	L701
	movq	-40(%rbp), %rax
	movq	%rax, %rdi
	call	__ZNSt8_Rb_treeINSt7__cxx1112basic_stringIcSt11char_traitsIcESaIcEEESt4pairIKS5_S6_IibEESt10_Select1stIS9_ESt4lessIS5_ESaIS9_EE6_M_endEv
	cmpq	%rax, -56(%rbp)
	je	L701
	movq	-40(%rbp), %rbx
	movq	-56(%rbp), %rax
	movq	%rax, %rdi
	call	__ZNSt8_Rb_treeINSt7__cxx1112basic_stringIcSt11char_traitsIcESaIcEEESt4pairIKS5_S6_IibEESt10_Select1stIS9_ESt4lessIS5_ESaIS9_EE6_S_keyEPKSt18_Rb_tree_node_base
	movq	%rax, %r12
	movq	-64(%rbp), %rax
	movq	%rax, %rdi
	call	__ZNSt8_Rb_treeINSt7__cxx1112basic_stringIcSt11char_traitsIcESaIcEEESt4pairIKS5_S6_IibEESt10_Select1stIS9_ESt4lessIS5_ESaIS9_EE6_S_keyEPKSt13_Rb_tree_nodeIS9_E
	movq	%r12, %rdx
	movq	%rax, %rsi
	movq	%rbx, %rdi
	call	__ZNKSt4lessINSt7__cxx1112basic_stringIcSt11char_traitsIcESaIcEEEEclERKS5_S8_
	testb	%al, %al
	je	L702
L701:
	movl	$1, %eax
	jmp	L703
L702:
	movl	$0, %eax
L703:
	movb	%al, -17(%rbp)
	movq	-40(%rbp), %rax
	leaq	8(%rax), %rcx
	movzbl	-17(%rbp), %eax
	movq	-56(%rbp), %rdx
	movq	-64(%rbp), %rsi
	movl	%eax, %edi
	call	__ZSt29_Rb_tree_insert_and_rebalancebPSt18_Rb_tree_node_baseS0_RS_
	movq	-40(%rbp), %rax
	movq	40(%rax), %rax
	leaq	1(%rax), %rdx
	movq	-40(%rbp), %rax
	movq	%rdx, 40(%rax)
	movq	-64(%rbp), %rdx
	leaq	-32(%rbp), %rax
	movq	%rdx, %rsi
	movq	%rax, %rdi
	call	__ZNSt17_Rb_tree_iteratorISt4pairIKNSt7__cxx1112basic_stringIcSt11char_traitsIcESaIcEEES0_IibEEEC1EPSt18_Rb_tree_node_base
	movq	-32(%rbp), %rax
	addq	$48, %rsp
	popq	%rbx
	popq	%r12
	popq	%rbp
LCFI1014:
	ret
LFE6087:
	.align 1
	.globl __ZNSt4pairISt17_Rb_tree_iteratorIS_IKNSt7__cxx1112basic_stringIcSt11char_traitsIcESaIcEEES_IibEEEbEC1ISA_bLb1EEEOT_OT0_
	.weak_definition __ZNSt4pairISt17_Rb_tree_iteratorIS_IKNSt7__cxx1112basic_stringIcSt11char_traitsIcESaIcEEES_IibEEEbEC1ISA_bLb1EEEOT_OT0_
__ZNSt4pairISt17_Rb_tree_iteratorIS_IKNSt7__cxx1112basic_stringIcSt11char_traitsIcESaIcEEES_IibEEEbEC1ISA_bLb1EEEOT_OT0_:
LFB6090:
	pushq	%rbp
LCFI1015:
	movq	%rsp, %rbp
LCFI1016:
	subq	$32, %rsp
	movq	%rdi, -8(%rbp)
	movq	%rsi, -16(%rbp)
	movq	%rdx, -24(%rbp)
	movq	-16(%rbp), %rax
	movq	%rax, %rdi
	call	__ZSt7forwardISt17_Rb_tree_iteratorISt4pairIKNSt7__cxx1112basic_stringIcSt11char_traitsIcESaIcEEES1_IibEEEEOT_RNSt16remove_referenceISC_E4typeE
	movq	-8(%rbp), %rdx
	movq	(%rax), %rax
	movq	%rax, (%rdx)
	movq	-24(%rbp), %rax
	movq	%rax, %rdi
	call	__ZSt7forwardIbEOT_RNSt16remove_referenceIS0_E4typeE
	movzbl	(%rax), %eax
	movq	-8(%rbp), %rdx
	movb	%al, 8(%rdx)
	nop
	leave
LCFI1017:
	ret
LFE6090:
	.align 1
	.globl __ZNSt17_Rb_tree_iteratorISt4pairIKNSt7__cxx1112basic_stringIcSt11char_traitsIcESaIcEEES0_IibEEEC1EPSt18_Rb_tree_node_base
	.weak_definition __ZNSt17_Rb_tree_iteratorISt4pairIKNSt7__cxx1112basic_stringIcSt11char_traitsIcESaIcEEES0_IibEEEC1EPSt18_Rb_tree_node_base
__ZNSt17_Rb_tree_iteratorISt4pairIKNSt7__cxx1112basic_stringIcSt11char_traitsIcESaIcEEES0_IibEEEC1EPSt18_Rb_tree_node_base:
LFB6093:
	pushq	%rbp
LCFI1018:
	movq	%rsp, %rbp
LCFI1019:
	movq	%rdi, -8(%rbp)
	movq	%rsi, -16(%rbp)
	movq	-8(%rbp), %rax
	movq	-16(%rbp), %rdx
	movq	%rdx, (%rax)
	nop
	popq	%rbp
LCFI1020:
	ret
LFE6093:
	.align 1
	.globl __ZNSaISt13_Rb_tree_nodeIiEEC2Ev
	.weak_definition __ZNSaISt13_Rb_tree_nodeIiEEC2Ev
__ZNSaISt13_Rb_tree_nodeIiEEC2Ev:
LFB6095:
	pushq	%rbp
LCFI1021:
	movq	%rsp, %rbp
LCFI1022:
	subq	$16, %rsp
	movq	%rdi, -8(%rbp)
	movq	-8(%rbp), %rax
	movq	%rax, %rdi
	call	__ZN9__gnu_cxx13new_allocatorISt13_Rb_tree_nodeIiEEC2Ev
	nop
	leave
LCFI1023:
	ret
LFE6095:
	.align 1
	.globl __ZNSt20_Rb_tree_key_compareISt4lessIiEEC2Ev
	.weak_definition __ZNSt20_Rb_tree_key_compareISt4lessIiEEC2Ev
__ZNSt20_Rb_tree_key_compareISt4lessIiEEC2Ev:
LFB6098:
	pushq	%rbp
LCFI1024:
	movq	%rsp, %rbp
LCFI1025:
	movq	%rdi, -8(%rbp)
	nop
	popq	%rbp
LCFI1026:
	ret
LFE6098:
	.align 1
	.globl __ZN9__gnu_cxx13new_allocatorISt13_Rb_tree_nodeIiEED2Ev
	.weak_definition __ZN9__gnu_cxx13new_allocatorISt13_Rb_tree_nodeIiEED2Ev
__ZN9__gnu_cxx13new_allocatorISt13_Rb_tree_nodeIiEED2Ev:
LFB6101:
	pushq	%rbp
LCFI1027:
	movq	%rsp, %rbp
LCFI1028:
	movq	%rdi, -8(%rbp)
	nop
	popq	%rbp
LCFI1029:
	ret
LFE6101:
	.align 1
	.globl __ZNSt8_Rb_treeIiiSt9_IdentityIiESt4lessIiESaIiEE11_Alloc_nodeC1ERS5_
	.weak_definition __ZNSt8_Rb_treeIiiSt9_IdentityIiESt4lessIiESaIiEE11_Alloc_nodeC1ERS5_
__ZNSt8_Rb_treeIiiSt9_IdentityIiESt4lessIiESaIiEE11_Alloc_nodeC1ERS5_:
LFB6105:
	pushq	%rbp
LCFI1030:
	movq	%rsp, %rbp
LCFI1031:
	movq	%rdi, -8(%rbp)
	movq	%rsi, -16(%rbp)
	movq	-8(%rbp), %rax
	movq	-16(%rbp), %rdx
	movq	%rdx, (%rax)
	nop
	popq	%rbp
LCFI1032:
	ret
LFE6105:
	.align 1
	.globl __ZNSt8_Rb_treeIiiSt9_IdentityIiESt4lessIiESaIiEE3endEv
	.weak_definition __ZNSt8_Rb_treeIiiSt9_IdentityIiESt4lessIiESaIiEE3endEv
__ZNSt8_Rb_treeIiiSt9_IdentityIiESt4lessIiESaIiEE3endEv:
LFB6106:
	pushq	%rbp
LCFI1033:
	movq	%rsp, %rbp
LCFI1034:
	subq	$32, %rsp
	movq	%rdi, -24(%rbp)
	movq	-24(%rbp), %rax
	leaq	8(%rax), %rdx
	leaq	-8(%rbp), %rax
	movq	%rdx, %rsi
	movq	%rax, %rdi
	call	__ZNSt17_Rb_tree_iteratorIiEC1EPSt18_Rb_tree_node_base
	movq	-8(%rbp), %rax
	leave
LCFI1035:
	ret
LFE6106:
	.align 1
	.globl __ZNSt23_Rb_tree_const_iteratorIiEC1ERKSt17_Rb_tree_iteratorIiE
	.weak_definition __ZNSt23_Rb_tree_const_iteratorIiEC1ERKSt17_Rb_tree_iteratorIiE
__ZNSt23_Rb_tree_const_iteratorIiEC1ERKSt17_Rb_tree_iteratorIiE:
LFB6109:
	pushq	%rbp
LCFI1036:
	movq	%rsp, %rbp
LCFI1037:
	movq	%rdi, -8(%rbp)
	movq	%rsi, -16(%rbp)
	movq	-16(%rbp), %rax
	movq	(%rax), %rdx
	movq	-8(%rbp), %rax
	movq	%rdx, (%rax)
	nop
	popq	%rbp
LCFI1038:
	ret
LFE6109:
	.align 1
	.globl __ZNSt8_Rb_treeIiiSt9_IdentityIiESt4lessIiESaIiEE17_M_insert_unique_IRiNS5_11_Alloc_nodeEEESt17_Rb_tree_iteratorIiESt23_Rb_tree_const_iteratorIiEOT_RT0_
	.weak_definition __ZNSt8_Rb_treeIiiSt9_IdentityIiESt4lessIiESaIiEE17_M_insert_unique_IRiNS5_11_Alloc_nodeEEESt17_Rb_tree_iteratorIiESt23_Rb_tree_const_iteratorIiEOT_RT0_
__ZNSt8_Rb_treeIiiSt9_IdentityIiESt4lessIiESaIiEE17_M_insert_unique_IRiNS5_11_Alloc_nodeEEESt17_Rb_tree_iteratorIiESt23_Rb_tree_const_iteratorIiEOT_RT0_:
LFB6110:
	pushq	%rbp
LCFI1039:
	movq	%rsp, %rbp
LCFI1040:
	subq	$64, %rsp
	movq	%rdi, -40(%rbp)
	movq	%rsi, -48(%rbp)
	movq	%rdx, -56(%rbp)
	movq	%rcx, -64(%rbp)
	movq	-56(%rbp), %rdx
	leaq	-9(%rbp), %rax
	movq	%rdx, %rsi
	movq	%rax, %rdi
	call	__ZNKSt9_IdentityIiEclERi
	movq	%rax, %rdx
	movq	-48(%rbp), %rcx
	movq	-40(%rbp), %rax
	movq	%rcx, %rsi
	movq	%rax, %rdi
	call	__ZNSt8_Rb_treeIiiSt9_IdentityIiESt4lessIiESaIiEE29_M_get_insert_hint_unique_posESt23_Rb_tree_const_iteratorIiERKi
	movq	%rax, -32(%rbp)
	movq	%rdx, -24(%rbp)
	movq	-24(%rbp), %rax
	testq	%rax, %rax
	je	L715
	movq	-56(%rbp), %rax
	movq	%rax, %rdi
	call	__ZSt7forwardIRiEOT_RNSt16remove_referenceIS1_E4typeE
	movq	%rax, %rcx
	movq	-24(%rbp), %rdx
	movq	-32(%rbp), %rsi
	movq	-64(%rbp), %rdi
	movq	-40(%rbp), %rax
	movq	%rdi, %r8
	movq	%rax, %rdi
	call	__ZNSt8_Rb_treeIiiSt9_IdentityIiESt4lessIiESaIiEE10_M_insert_IRiNS5_11_Alloc_nodeEEESt17_Rb_tree_iteratorIiEPSt18_Rb_tree_node_baseSC_OT_RT0_
	jmp	L717
L715:
	movq	-32(%rbp), %rdx
	leaq	-8(%rbp), %rax
	movq	%rdx, %rsi
	movq	%rax, %rdi
	call	__ZNSt17_Rb_tree_iteratorIiEC1EPSt18_Rb_tree_node_base
	movq	-8(%rbp), %rax
L717:
	leave
LCFI1041:
	ret
LFE6110:
	.globl __ZNSt8_Rb_treeIiiSt9_IdentityIiESt4lessIiESaIiEE8_S_rightEPSt18_Rb_tree_node_base
	.weak_definition __ZNSt8_Rb_treeIiiSt9_IdentityIiESt4lessIiESaIiEE8_S_rightEPSt18_Rb_tree_node_base
__ZNSt8_Rb_treeIiiSt9_IdentityIiESt4lessIiESaIiEE8_S_rightEPSt18_Rb_tree_node_base:
LFB6111:
	pushq	%rbp
LCFI1042:
	movq	%rsp, %rbp
LCFI1043:
	movq	%rdi, -8(%rbp)
	movq	-8(%rbp), %rax
	movq	24(%rax), %rax
	popq	%rbp
LCFI1044:
	ret
LFE6111:
	.globl __ZNSt8_Rb_treeIiiSt9_IdentityIiESt4lessIiESaIiEE7_S_leftEPSt18_Rb_tree_node_base
	.weak_definition __ZNSt8_Rb_treeIiiSt9_IdentityIiESt4lessIiESaIiEE7_S_leftEPSt18_Rb_tree_node_base
__ZNSt8_Rb_treeIiiSt9_IdentityIiESt4lessIiESaIiEE7_S_leftEPSt18_Rb_tree_node_base:
LFB6112:
	pushq	%rbp
LCFI1045:
	movq	%rsp, %rbp
LCFI1046:
	movq	%rdi, -8(%rbp)
	movq	-8(%rbp), %rax
	movq	16(%rax), %rax
	popq	%rbp
LCFI1047:
	ret
LFE6112:
	.align 1
	.globl __ZNSt8_Rb_treeIiiSt9_IdentityIiESt4lessIiESaIiEE12_M_drop_nodeEPSt13_Rb_tree_nodeIiE
	.weak_definition __ZNSt8_Rb_treeIiiSt9_IdentityIiESt4lessIiESaIiEE12_M_drop_nodeEPSt13_Rb_tree_nodeIiE
__ZNSt8_Rb_treeIiiSt9_IdentityIiESt4lessIiESaIiEE12_M_drop_nodeEPSt13_Rb_tree_nodeIiE:
LFB6113:
	pushq	%rbp
LCFI1048:
	movq	%rsp, %rbp
LCFI1049:
	subq	$16, %rsp
	movq	%rdi, -8(%rbp)
	movq	%rsi, -16(%rbp)
	movq	-16(%rbp), %rdx
	movq	-8(%rbp), %rax
	movq	%rdx, %rsi
	movq	%rax, %rdi
	call	__ZNSt8_Rb_treeIiiSt9_IdentityIiESt4lessIiESaIiEE15_M_destroy_nodeEPSt13_Rb_tree_nodeIiE
	movq	-16(%rbp), %rdx
	movq	-8(%rbp), %rax
	movq	%rdx, %rsi
	movq	%rax, %rdi
	call	__ZNSt8_Rb_treeIiiSt9_IdentityIiESt4lessIiESaIiEE11_M_put_nodeEPSt13_Rb_tree_nodeIiE
	nop
	leave
LCFI1050:
	ret
LFE6113:
	.align 1
	.globl __ZNSt23_Rb_tree_const_iteratorIiEC1EPKSt18_Rb_tree_node_base
	.weak_definition __ZNSt23_Rb_tree_const_iteratorIiEC1EPKSt18_Rb_tree_node_base
__ZNSt23_Rb_tree_const_iteratorIiEC1EPKSt18_Rb_tree_node_base:
LFB6116:
	pushq	%rbp
LCFI1051:
	movq	%rsp, %rbp
LCFI1052:
	movq	%rdi, -8(%rbp)
	movq	%rsi, -16(%rbp)
	movq	-8(%rbp), %rax
	movq	-16(%rbp), %rdx
	movq	%rdx, (%rax)
	nop
	popq	%rbp
LCFI1053:
	ret
LFE6116:
	.align 1
	.globl __ZN9__gnu_cxx13new_allocatorISt10_List_nodeIiEEC2Ev
	.weak_definition __ZN9__gnu_cxx13new_allocatorISt10_List_nodeIiEEC2Ev
__ZN9__gnu_cxx13new_allocatorISt10_List_nodeIiEEC2Ev:
LFB6118:
	pushq	%rbp
LCFI1054:
	movq	%rsp, %rbp
LCFI1055:
	movq	%rdi, -8(%rbp)
	nop
	popq	%rbp
LCFI1056:
	ret
LFE6118:
	.align 1
	.globl __ZN9__gnu_cxx13new_allocatorISt10_List_nodeIiEED2Ev
	.weak_definition __ZN9__gnu_cxx13new_allocatorISt10_List_nodeIiEED2Ev
__ZN9__gnu_cxx13new_allocatorISt10_List_nodeIiEED2Ev:
LFB6121:
	pushq	%rbp
LCFI1057:
	movq	%rsp, %rbp
LCFI1058:
	movq	%rdi, -8(%rbp)
	nop
	popq	%rbp
LCFI1059:
	ret
LFE6121:
	.globl __ZSt4moveIRSaISt10_List_nodeIiEEEONSt16remove_referenceIT_E4typeEOS5_
	.weak_definition __ZSt4moveIRSaISt10_List_nodeIiEEEONSt16remove_referenceIT_E4typeEOS5_
__ZSt4moveIRSaISt10_List_nodeIiEEEONSt16remove_referenceIT_E4typeEOS5_:
LFB6123:
	pushq	%rbp
LCFI1060:
	movq	%rsp, %rbp
LCFI1061:
	movq	%rdi, -8(%rbp)
	movq	-8(%rbp), %rax
	popq	%rbp
LCFI1062:
	ret
LFE6123:
	.align 1
	.globl __ZNSt7__cxx1110_List_baseIiSaIiEE10_List_implC1EOSaISt10_List_nodeIiEE
	.weak_definition __ZNSt7__cxx1110_List_baseIiSaIiEE10_List_implC1EOSaISt10_List_nodeIiEE
__ZNSt7__cxx1110_List_baseIiSaIiEE10_List_implC1EOSaISt10_List_nodeIiEE:
LFB6126:
	pushq	%rbp
LCFI1063:
	movq	%rsp, %rbp
LCFI1064:
	subq	$16, %rsp
	movq	%rdi, -8(%rbp)
	movq	%rsi, -16(%rbp)
	movq	-16(%rbp), %rax
	movq	%rax, %rdi
	call	__ZSt4moveIRSaISt10_List_nodeIiEEEONSt16remove_referenceIT_E4typeEOS5_
	movq	%rax, %rdx
	movq	-8(%rbp), %rax
	movq	%rdx, %rsi
	movq	%rax, %rdi
	call	__ZNSaISt10_List_nodeIiEEC2ERKS1_
	movq	-8(%rbp), %rax
	movq	%rax, %rdi
	call	__ZNSt8__detail17_List_node_headerC1Ev
	nop
	leave
LCFI1065:
	ret
LFE6126:
	.globl __ZStneRKSt23_Rb_tree_const_iteratorIiES2_
	.weak_definition __ZStneRKSt23_Rb_tree_const_iteratorIiES2_
__ZStneRKSt23_Rb_tree_const_iteratorIiES2_:
LFB6127:
	pushq	%rbp
LCFI1066:
	movq	%rsp, %rbp
LCFI1067:
	movq	%rdi, -8(%rbp)
	movq	%rsi, -16(%rbp)
	movq	-8(%rbp), %rax
	movq	(%rax), %rdx
	movq	-16(%rbp), %rax
	movq	(%rax), %rax
	cmpq	%rax, %rdx
	setne	%al
	popq	%rbp
LCFI1068:
	ret
LFE6127:
	.align 1
	.globl __ZNSt23_Rb_tree_const_iteratorIiEppEv
	.weak_definition __ZNSt23_Rb_tree_const_iteratorIiEppEv
__ZNSt23_Rb_tree_const_iteratorIiEppEv:
LFB6128:
	pushq	%rbp
LCFI1069:
	movq	%rsp, %rbp
LCFI1070:
	subq	$16, %rsp
	movq	%rdi, -8(%rbp)
	movq	-8(%rbp), %rax
	movq	(%rax), %rax
	movq	%rax, %rdi
	call	__ZSt18_Rb_tree_incrementPKSt18_Rb_tree_node_base
	movq	-8(%rbp), %rdx
	movq	%rax, (%rdx)
	movq	-8(%rbp), %rax
	leave
LCFI1071:
	ret
LFE6128:
	.align 1
	.globl __ZNKSt23_Rb_tree_const_iteratorIiEdeEv
	.weak_definition __ZNKSt23_Rb_tree_const_iteratorIiEdeEv
__ZNKSt23_Rb_tree_const_iteratorIiEdeEv:
LFB6129:
	pushq	%rbp
LCFI1072:
	movq	%rsp, %rbp
LCFI1073:
	subq	$16, %rsp
	movq	%rdi, -8(%rbp)
	movq	-8(%rbp), %rax
	movq	(%rax), %rax
	movq	%rax, %rdi
	call	__ZNKSt13_Rb_tree_nodeIiE9_M_valptrEv
	leave
LCFI1074:
	ret
LFE6129:
	.align 1
	.globl __ZNSt7__cxx114listIiSaIiEE12emplace_backIJRKiEEEvDpOT_
	.weak_definition __ZNSt7__cxx114listIiSaIiEE12emplace_backIJRKiEEEvDpOT_
__ZNSt7__cxx114listIiSaIiEE12emplace_backIJRKiEEEvDpOT_:
LFB6130:
	pushq	%rbp
LCFI1075:
	movq	%rsp, %rbp
LCFI1076:
	pushq	%rbx
	subq	$24, %rsp
LCFI1077:
	movq	%rdi, -24(%rbp)
	movq	%rsi, -32(%rbp)
	movq	-32(%rbp), %rax
	movq	%rax, %rdi
	call	__ZSt7forwardIRKiEOT_RNSt16remove_referenceIS2_E4typeE
	movq	%rax, %rbx
	movq	-24(%rbp), %rax
	movq	%rax, %rdi
	call	__ZNSt7__cxx114listIiSaIiEE3endEv
	movq	%rax, %rcx
	movq	-24(%rbp), %rax
	movq	%rbx, %rdx
	movq	%rcx, %rsi
	movq	%rax, %rdi
	call	__ZNSt7__cxx114listIiSaIiEE9_M_insertIJRKiEEEvSt14_List_iteratorIiEDpOT_
	nop
	addq	$24, %rsp
	popq	%rbx
	popq	%rbp
LCFI1078:
	ret
LFE6130:
	.align 1
	.globl __ZNSt10_List_nodeIiE9_M_valptrEv
	.weak_definition __ZNSt10_List_nodeIiE9_M_valptrEv
__ZNSt10_List_nodeIiE9_M_valptrEv:
LFB6131:
	pushq	%rbp
LCFI1079:
	movq	%rsp, %rbp
LCFI1080:
	subq	$16, %rsp
	movq	%rdi, -8(%rbp)
	movq	-8(%rbp), %rax
	addq	$16, %rax
	movq	%rax, %rdi
	call	__ZN9__gnu_cxx16__aligned_membufIiE6_M_ptrEv
	leave
LCFI1081:
	ret
LFE6131:
	.align 1
	.globl __ZNSt7__cxx1110_List_baseIiSaIiEE21_M_get_Node_allocatorEv
	.weak_definition __ZNSt7__cxx1110_List_baseIiSaIiEE21_M_get_Node_allocatorEv
__ZNSt7__cxx1110_List_baseIiSaIiEE21_M_get_Node_allocatorEv:
LFB6132:
	pushq	%rbp
LCFI1082:
	movq	%rsp, %rbp
LCFI1083:
	movq	%rdi, -8(%rbp)
	movq	-8(%rbp), %rax
	popq	%rbp
LCFI1084:
	ret
LFE6132:
	.globl __ZNSt16allocator_traitsISaISt10_List_nodeIiEEE7destroyIiEEvRS2_PT_
	.weak_definition __ZNSt16allocator_traitsISaISt10_List_nodeIiEEE7destroyIiEEvRS2_PT_
__ZNSt16allocator_traitsISaISt10_List_nodeIiEEE7destroyIiEEvRS2_PT_:
LFB6133:
	pushq	%rbp
LCFI1085:
	movq	%rsp, %rbp
LCFI1086:
	subq	$16, %rsp
	movq	%rdi, -8(%rbp)
	movq	%rsi, -16(%rbp)
	movq	-16(%rbp), %rdx
	movq	-8(%rbp), %rax
	movq	%rdx, %rsi
	movq	%rax, %rdi
	call	__ZN9__gnu_cxx13new_allocatorISt10_List_nodeIiEE7destroyIiEEvPT_
	nop
	leave
LCFI1087:
	ret
LFE6133:
	.align 1
	.globl __ZNSt7__cxx1110_List_baseIiSaIiEE11_M_put_nodeEPSt10_List_nodeIiE
	.weak_definition __ZNSt7__cxx1110_List_baseIiSaIiEE11_M_put_nodeEPSt10_List_nodeIiE
__ZNSt7__cxx1110_List_baseIiSaIiEE11_M_put_nodeEPSt10_List_nodeIiE:
LFB6134:
	pushq	%rbp
LCFI1088:
	movq	%rsp, %rbp
LCFI1089:
	subq	$16, %rsp
	movq	%rdi, -8(%rbp)
	movq	%rsi, -16(%rbp)
	movq	-8(%rbp), %rax
	movq	-16(%rbp), %rcx
	movl	$1, %edx
	movq	%rcx, %rsi
	movq	%rax, %rdi
	call	__ZNSt16allocator_traitsISaISt10_List_nodeIiEEE10deallocateERS2_PS1_m
	nop
	leave
LCFI1090:
	ret
LFE6134:
	.section __DATA,__gcc_except_tab
GCC_except_table30:
LLSDA6134:
	.byte	0xff
	.byte	0x3
	.byte	0
	.section __TEXT,__textcoal_nt,coalesced,pure_instructions
	.globl __ZSt11__addressofINSt7__cxx114listIiSaIiEEEEPT_RS4_
	.weak_definition __ZSt11__addressofINSt7__cxx114listIiSaIiEEEEPT_RS4_
__ZSt11__addressofINSt7__cxx114listIiSaIiEEEEPT_RS4_:
LFB6135:
	pushq	%rbp
LCFI1091:
	movq	%rsp, %rbp
LCFI1092:
	movq	%rdi, -8(%rbp)
	movq	-8(%rbp), %rax
	popq	%rbp
LCFI1093:
	ret
LFE6135:
	.globl __ZSt12__niter_baseISt23_Rb_tree_const_iteratorIiEET_S2_
	.weak_definition __ZSt12__niter_baseISt23_Rb_tree_const_iteratorIiEET_S2_
__ZSt12__niter_baseISt23_Rb_tree_const_iteratorIiEET_S2_:
LFB6136:
	pushq	%rbp
LCFI1094:
	movq	%rsp, %rbp
LCFI1095:
	movq	%rdi, -8(%rbp)
	movq	-8(%rbp), %rax
	popq	%rbp
LCFI1096:
	ret
LFE6136:
	.globl __ZSt12__niter_baseISt20back_insert_iteratorINSt7__cxx114listIiSaIiEEEEET_S6_
	.weak_definition __ZSt12__niter_baseISt20back_insert_iteratorINSt7__cxx114listIiSaIiEEEEET_S6_
__ZSt12__niter_baseISt20back_insert_iteratorINSt7__cxx114listIiSaIiEEEEET_S6_:
LFB6137:
	pushq	%rbp
LCFI1097:
	movq	%rsp, %rbp
LCFI1098:
	movq	%rdi, -8(%rbp)
	movq	-8(%rbp), %rax
	popq	%rbp
LCFI1099:
	ret
LFE6137:
	.globl __ZSt13__copy_move_aILb0ESt23_Rb_tree_const_iteratorIiESt20back_insert_iteratorINSt7__cxx114listIiSaIiEEEEET1_T0_S9_S8_
	.weak_definition __ZSt13__copy_move_aILb0ESt23_Rb_tree_const_iteratorIiESt20back_insert_iteratorINSt7__cxx114listIiSaIiEEEEET1_T0_S9_S8_
__ZSt13__copy_move_aILb0ESt23_Rb_tree_const_iteratorIiESt20back_insert_iteratorINSt7__cxx114listIiSaIiEEEEET1_T0_S9_S8_:
LFB6138:
	pushq	%rbp
LCFI1100:
	movq	%rsp, %rbp
LCFI1101:
	subq	$48, %rsp
	movq	%rdi, -24(%rbp)
	movq	%rsi, -32(%rbp)
	movq	%rdx, -40(%rbp)
	movb	$0, -1(%rbp)
	movq	-40(%rbp), %rdx
	movq	-32(%rbp), %rcx
	movq	-24(%rbp), %rax
	movq	%rcx, %rsi
	movq	%rax, %rdi
	call	__ZNSt11__copy_moveILb0ELb0ESt26bidirectional_iterator_tagE8__copy_mISt23_Rb_tree_const_iteratorIiESt20back_insert_iteratorINSt7__cxx114listIiSaIiEEEEEET0_T_SC_SB_
	leave
LCFI1102:
	ret
LFE6138:
	.globl __ZSt12__niter_wrapISt20back_insert_iteratorINSt7__cxx114listIiSaIiEEEEET_RKS6_S6_
	.weak_definition __ZSt12__niter_wrapISt20back_insert_iteratorINSt7__cxx114listIiSaIiEEEEET_RKS6_S6_
__ZSt12__niter_wrapISt20back_insert_iteratorINSt7__cxx114listIiSaIiEEEEET_RKS6_S6_:
LFB6139:
	pushq	%rbp
LCFI1103:
	movq	%rsp, %rbp
LCFI1104:
	movq	%rdi, -8(%rbp)
	movq	%rsi, -16(%rbp)
	movq	-16(%rbp), %rax
	popq	%rbp
LCFI1105:
	ret
LFE6139:
	.align 1
	.globl __ZNSt7__cxx1112basic_stringIcSt11char_traitsIcESaIcEE16_M_construct_auxIPcEEvT_S7_St12__false_type
	.weak_definition __ZNSt7__cxx1112basic_stringIcSt11char_traitsIcESaIcEE16_M_construct_auxIPcEEvT_S7_St12__false_type
__ZNSt7__cxx1112basic_stringIcSt11char_traitsIcESaIcEE16_M_construct_auxIPcEEvT_S7_St12__false_type:
LFB6142:
	pushq	%rbp
LCFI1106:
	movq	%rsp, %rbp
LCFI1107:
	subq	$48, %rsp
	movq	%rdi, -24(%rbp)
	movq	%rsi, -32(%rbp)
	movq	%rdx, -40(%rbp)
	movq	-40(%rbp), %rdx
	movq	-32(%rbp), %rcx
	movq	-24(%rbp), %rax
	movq	%rcx, %rsi
	movq	%rax, %rdi
	call	__ZNSt7__cxx1112basic_stringIcSt11char_traitsIcESaIcEE12_M_constructIPcEEvT_S7_St20forward_iterator_tag
	nop
	leave
LCFI1108:
	ret
LFE6142:
	.globl __ZNSt16allocator_traitsISaIcEE10deallocateERS0_Pcm
	.weak_definition __ZNSt16allocator_traitsISaIcEE10deallocateERS0_Pcm
__ZNSt16allocator_traitsISaIcEE10deallocateERS0_Pcm:
LFB6143:
	pushq	%rbp
LCFI1109:
	movq	%rsp, %rbp
LCFI1110:
	subq	$32, %rsp
	movq	%rdi, -8(%rbp)
	movq	%rsi, -16(%rbp)
	movq	%rdx, -24(%rbp)
	movq	-24(%rbp), %rdx
	movq	-16(%rbp), %rcx
	movq	-8(%rbp), %rax
	movq	%rcx, %rsi
	movq	%rax, %rdi
	call	__ZN9__gnu_cxx13new_allocatorIcE10deallocateEPcm
	nop
	leave
LCFI1111:
	ret
LFE6143:
	.globl __ZNSt16allocator_traitsISaIcEE37select_on_container_copy_constructionERKS0_
	.weak_definition __ZNSt16allocator_traitsISaIcEE37select_on_container_copy_constructionERKS0_
__ZNSt16allocator_traitsISaIcEE37select_on_container_copy_constructionERKS0_:
LFB6172:
	pushq	%rbp
LCFI1112:
	movq	%rsp, %rbp
LCFI1113:
	subq	$16, %rsp
	movq	%rdi, -8(%rbp)
	movq	%rsi, -16(%rbp)
	movq	-16(%rbp), %rdx
	movq	-8(%rbp), %rax
	movq	%rdx, %rsi
	movq	%rax, %rdi
	call	__ZNSaIcEC1ERKS_
	movq	-8(%rbp), %rax
	leave
LCFI1114:
	ret
LFE6172:
	.align 1
	.globl __ZN9__gnu_cxx13new_allocatorImE10deallocateEPmm
	.weak_definition __ZN9__gnu_cxx13new_allocatorImE10deallocateEPmm
__ZN9__gnu_cxx13new_allocatorImE10deallocateEPmm:
LFB6176:
	pushq	%rbp
LCFI1115:
	movq	%rsp, %rbp
LCFI1116:
	subq	$32, %rsp
	movq	%rdi, -8(%rbp)
	movq	%rsi, -16(%rbp)
	movq	%rdx, -24(%rbp)
	movq	-16(%rbp), %rax
	movq	%rax, %rdi
	call	__ZdlPv
	nop
	leave
LCFI1117:
	ret
LFE6176:
	.globl __ZNSt12_Destroy_auxILb1EE9__destroyIPmEEvT_S3_
	.weak_definition __ZNSt12_Destroy_auxILb1EE9__destroyIPmEEvT_S3_
__ZNSt12_Destroy_auxILb1EE9__destroyIPmEEvT_S3_:
LFB6177:
	pushq	%rbp
LCFI1118:
	movq	%rsp, %rbp
LCFI1119:
	movq	%rdi, -8(%rbp)
	movq	%rsi, -16(%rbp)
	nop
	popq	%rbp
LCFI1120:
	ret
LFE6177:
	.align 1
	.globl __ZNSt15_Deque_iteratorIiRiPiEC1Ev
	.weak_definition __ZNSt15_Deque_iteratorIiRiPiEC1Ev
__ZNSt15_Deque_iteratorIiRiPiEC1Ev:
LFB6180:
	pushq	%rbp
LCFI1121:
	movq	%rsp, %rbp
LCFI1122:
	movq	%rdi, -8(%rbp)
	movq	-8(%rbp), %rax
	movq	$0, (%rax)
	movq	-8(%rbp), %rax
	movq	$0, 8(%rax)
	movq	-8(%rbp), %rax
	movq	$0, 16(%rax)
	movq	-8(%rbp), %rax
	movq	$0, 24(%rax)
	nop
	popq	%rbp
LCFI1123:
	ret
LFE6180:
	.globl __ZSt3maxImERKT_S2_S2_
	.weak_definition __ZSt3maxImERKT_S2_S2_
__ZSt3maxImERKT_S2_S2_:
LFB6181:
	pushq	%rbp
LCFI1124:
	movq	%rsp, %rbp
LCFI1125:
	movq	%rdi, -8(%rbp)
	movq	%rsi, -16(%rbp)
	movq	-8(%rbp), %rax
	movq	(%rax), %rdx
	movq	-16(%rbp), %rax
	movq	(%rax), %rax
	cmpq	%rax, %rdx
	jnb	L760
	movq	-16(%rbp), %rax
	jmp	L761
L760:
	movq	-8(%rbp), %rax
L761:
	popq	%rbp
LCFI1126:
	ret
LFE6181:
	.align 1
	.globl __ZNSt11_Deque_baseIiSaIiEE15_M_allocate_mapEm
	.weak_definition __ZNSt11_Deque_baseIiSaIiEE15_M_allocate_mapEm
__ZNSt11_Deque_baseIiSaIiEE15_M_allocate_mapEm:
LFB6182:
	pushq	%rbp
LCFI1127:
	movq	%rsp, %rbp
LCFI1128:
	pushq	%rbx
	subq	$40, %rsp
LCFI1129:
	movq	%rdi, -40(%rbp)
	movq	%rsi, -48(%rbp)
	leaq	-17(%rbp), %rax
	movq	-40(%rbp), %rdx
	movq	%rdx, %rsi
	movq	%rax, %rdi
	call	__ZNKSt11_Deque_baseIiSaIiEE20_M_get_map_allocatorEv
	movq	-48(%rbp), %rdx
	leaq	-17(%rbp), %rax
	movq	%rdx, %rsi
	movq	%rax, %rdi
LEHB75:
	call	__ZNSt16allocator_traitsISaIPiEE8allocateERS1_m
LEHE75:
	movq	%rax, %rbx
	nop
	leaq	-17(%rbp), %rax
	movq	%rax, %rdi
	call	__ZNSaIPiED1Ev
	movq	%rbx, %rax
	jmp	L766
L765:
	movq	%rax, %rbx
	leaq	-17(%rbp), %rax
	movq	%rax, %rdi
	call	__ZNSaIPiED1Ev
	movq	%rbx, %rax
	movq	%rax, %rdi
LEHB76:
	call	__Unwind_Resume
LEHE76:
L766:
	addq	$40, %rsp
	popq	%rbx
	popq	%rbp
LCFI1130:
	ret
LFE6182:
	.section __DATA,__gcc_except_tab
GCC_except_table31:
LLSDA6182:
	.byte	0xff
	.byte	0x3
	.byte	0x1a
	.set L$set$197,LEHB75-LFB6182
	.long L$set$197
	.set L$set$198,LEHE75-LEHB75
	.long L$set$198
	.set L$set$199,L765-LFB6182
	.long L$set$199
	.byte	0
	.set L$set$200,LEHB76-LFB6182
	.long L$set$200
	.set L$set$201,LEHE76-LEHB76
	.long L$set$201
	.long	0
	.byte	0
	.section __TEXT,__textcoal_nt,coalesced,pure_instructions
	.align 1
	.globl __ZNSt11_Deque_baseIiSaIiEE15_M_create_nodesEPPiS3_
	.weak_definition __ZNSt11_Deque_baseIiSaIiEE15_M_create_nodesEPPiS3_
__ZNSt11_Deque_baseIiSaIiEE15_M_create_nodesEPPiS3_:
LFB6183:
	pushq	%rbp
LCFI1131:
	movq	%rsp, %rbp
LCFI1132:
	pushq	%rbx
	subq	$56, %rsp
LCFI1133:
	movq	%rdi, -40(%rbp)
	movq	%rsi, -48(%rbp)
	movq	%rdx, -56(%rbp)
	movq	-48(%rbp), %rax
	movq	%rax, -24(%rbp)
L769:
	movq	-24(%rbp), %rax
	cmpq	-56(%rbp), %rax
	jnb	L774
	movq	-40(%rbp), %rax
	movq	%rax, %rdi
LEHB77:
	call	__ZNSt11_Deque_baseIiSaIiEE16_M_allocate_nodeEv
LEHE77:
	movq	-24(%rbp), %rdx
	movq	%rax, (%rdx)
	addq	$8, -24(%rbp)
	jmp	L769
L772:
	movq	%rax, %rdi
	call	___cxa_begin_catch
	movq	-24(%rbp), %rdx
	movq	-48(%rbp), %rcx
	movq	-40(%rbp), %rax
	movq	%rcx, %rsi
	movq	%rax, %rdi
	call	__ZNSt11_Deque_baseIiSaIiEE16_M_destroy_nodesEPPiS3_
LEHB78:
	call	___cxa_rethrow
LEHE78:
L773:
	movq	%rax, %rbx
	call	___cxa_end_catch
	movq	%rbx, %rax
	movq	%rax, %rdi
LEHB79:
	call	__Unwind_Resume
LEHE79:
L774:
	nop
	addq	$56, %rsp
	popq	%rbx
	popq	%rbp
LCFI1134:
	ret
LFE6183:
	.section __DATA,__gcc_except_tab
GCC_except_table32:
	.align 3
LLSDA6183:
	.byte	0xff
	.byte	0
	.byte	0x35
	.byte	0x3
	.byte	0x27
	.set L$set$202,LEHB77-LFB6183
	.long L$set$202
	.set L$set$203,LEHE77-LEHB77
	.long L$set$203
	.set L$set$204,L772-LFB6183
	.long L$set$204
	.byte	0x1
	.set L$set$205,LEHB78-LFB6183
	.long L$set$205
	.set L$set$206,LEHE78-LEHB78
	.long L$set$206
	.set L$set$207,L773-LFB6183
	.long L$set$207
	.byte	0
	.set L$set$208,LEHB79-LFB6183
	.long L$set$208
	.set L$set$209,LEHE79-LEHB79
	.long L$set$209
	.long	0
	.byte	0
	.byte	0x1
	.byte	0
	.align 3
	.quad	0
	.section __TEXT,__textcoal_nt,coalesced,pure_instructions
	.align 1
	.globl __ZNSt11_Deque_baseIiSaIiEE18_M_deallocate_nodeEPi
	.weak_definition __ZNSt11_Deque_baseIiSaIiEE18_M_deallocate_nodeEPi
__ZNSt11_Deque_baseIiSaIiEE18_M_deallocate_nodeEPi:
LFB6184:
	pushq	%rbp
LCFI1135:
	movq	%rsp, %rbp
LCFI1136:
	subq	$16, %rsp
	movq	%rdi, -8(%rbp)
	movq	%rsi, -16(%rbp)
	movl	$4, %edi
	call	__ZSt16__deque_buf_sizem
	movq	%rax, %rdx
	movq	-8(%rbp), %rax
	movq	-16(%rbp), %rcx
	movq	%rcx, %rsi
	movq	%rax, %rdi
	call	__ZNSt16allocator_traitsISaIiEE10deallocateERS0_Pim
	nop
	leave
LCFI1137:
	ret
LFE6184:
	.section __DATA,__gcc_except_tab
GCC_except_table33:
LLSDA6184:
	.byte	0xff
	.byte	0x3
	.byte	0
	.section __TEXT,__textcoal_nt,coalesced,pure_instructions
	.align 1
	.globl __ZNKSt11_Deque_baseIiSaIiEE20_M_get_map_allocatorEv
	.weak_definition __ZNKSt11_Deque_baseIiSaIiEE20_M_get_map_allocatorEv
__ZNKSt11_Deque_baseIiSaIiEE20_M_get_map_allocatorEv:
LFB6185:
	pushq	%rbp
LCFI1138:
	movq	%rsp, %rbp
LCFI1139:
	subq	$16, %rsp
	movq	%rdi, -8(%rbp)
	movq	%rsi, -16(%rbp)
	movq	-16(%rbp), %rax
	movq	%rax, %rdi
	call	__ZNKSt11_Deque_baseIiSaIiEE19_M_get_Tp_allocatorEv
	movq	%rax, %rdx
	movq	-8(%rbp), %rax
	movq	%rdx, %rsi
	movq	%rax, %rdi
	call	__ZNSaIPiEC1IiEERKSaIT_E
	movq	-8(%rbp), %rax
	leave
LCFI1140:
	ret
LFE6185:
	.align 1
	.globl __ZNSaIPiED1Ev
	.weak_definition __ZNSaIPiED1Ev
__ZNSaIPiED1Ev:
LFB6188:
	pushq	%rbp
LCFI1141:
	movq	%rsp, %rbp
LCFI1142:
	subq	$16, %rsp
	movq	%rdi, -8(%rbp)
	movq	-8(%rbp), %rax
	movq	%rax, %rdi
	call	__ZN9__gnu_cxx13new_allocatorIPiED2Ev
	nop
	leave
LCFI1143:
	ret
LFE6188:
	.globl __ZNSt16allocator_traitsISaIPiEE10deallocateERS1_PS0_m
	.weak_definition __ZNSt16allocator_traitsISaIPiEE10deallocateERS1_PS0_m
__ZNSt16allocator_traitsISaIPiEE10deallocateERS1_PS0_m:
LFB6192:
	pushq	%rbp
LCFI1144:
	movq	%rsp, %rbp
LCFI1145:
	subq	$32, %rsp
	movq	%rdi, -8(%rbp)
	movq	%rsi, -16(%rbp)
	movq	%rdx, -24(%rbp)
	movq	-24(%rbp), %rdx
	movq	-16(%rbp), %rcx
	movq	-8(%rbp), %rax
	movq	%rcx, %rsi
	movq	%rax, %rdi
	call	__ZN9__gnu_cxx13new_allocatorIPiE10deallocateEPS1_m
	nop
	leave
LCFI1146:
	ret
LFE6192:
	.align 1
	.globl __ZN9__gnu_cxx13new_allocatorIiE9constructIiJiEEEvPT_DpOT0_
	.weak_definition __ZN9__gnu_cxx13new_allocatorIiE9constructIiJiEEEvPT_DpOT0_
__ZN9__gnu_cxx13new_allocatorIiE9constructIiJiEEEvPT_DpOT0_:
LFB6195:
	pushq	%rbp
LCFI1147:
	movq	%rsp, %rbp
LCFI1148:
	pushq	%rbx
	subq	$40, %rsp
LCFI1149:
	movq	%rdi, -24(%rbp)
	movq	%rsi, -32(%rbp)
	movq	%rdx, -40(%rbp)
	movq	-40(%rbp), %rax
	movq	%rax, %rdi
	call	__ZSt7forwardIiEOT_RNSt16remove_referenceIS0_E4typeE
	movl	(%rax), %ebx
	movq	-32(%rbp), %rax
	movq	%rax, %rsi
	movl	$4, %edi
	call	__ZnwmPv
	movl	%ebx, (%rax)
	nop
	addq	$40, %rsp
	popq	%rbx
	popq	%rbp
LCFI1150:
	ret
LFE6195:
	.align 1
	.globl __ZNKSt5dequeIiSaIiEE4sizeEv
	.weak_definition __ZNKSt5dequeIiSaIiEE4sizeEv
__ZNKSt5dequeIiSaIiEE4sizeEv:
LFB6196:
	pushq	%rbp
LCFI1151:
	movq	%rsp, %rbp
LCFI1152:
	subq	$16, %rsp
	movq	%rdi, -8(%rbp)
	movq	-8(%rbp), %rax
	leaq	16(%rax), %rdx
	movq	-8(%rbp), %rax
	addq	$48, %rax
	movq	%rdx, %rsi
	movq	%rax, %rdi
	call	__ZStmiIiRiPiENSt15_Deque_iteratorIT_T0_T1_E15difference_typeERKS6_S9_
	leave
LCFI1153:
	ret
LFE6196:
	.align 1
	.globl __ZNKSt5dequeIiSaIiEE8max_sizeEv
	.weak_definition __ZNKSt5dequeIiSaIiEE8max_sizeEv
__ZNKSt5dequeIiSaIiEE8max_sizeEv:
LFB6197:
	pushq	%rbp
LCFI1154:
	movq	%rsp, %rbp
LCFI1155:
	subq	$16, %rsp
	movq	%rdi, -8(%rbp)
	movq	-8(%rbp), %rax
	movq	%rax, %rdi
	call	__ZNKSt11_Deque_baseIiSaIiEE19_M_get_Tp_allocatorEv
	movq	%rax, %rdi
	call	__ZNSt5dequeIiSaIiEE11_S_max_sizeERKS0_
	leave
LCFI1156:
	ret
LFE6197:
	.align 1
	.globl __ZNSt5dequeIiSaIiEE23_M_reserve_map_at_frontEm
	.weak_definition __ZNSt5dequeIiSaIiEE23_M_reserve_map_at_frontEm
__ZNSt5dequeIiSaIiEE23_M_reserve_map_at_frontEm:
LFB6198:
	pushq	%rbp
LCFI1157:
	movq	%rsp, %rbp
LCFI1158:
	subq	$16, %rsp
	movq	%rdi, -8(%rbp)
	movq	%rsi, -16(%rbp)
	movq	-8(%rbp), %rax
	movq	40(%rax), %rdx
	movq	-8(%rbp), %rax
	movq	(%rax), %rax
	subq	%rax, %rdx
	movq	%rdx, %rax
	sarq	$3, %rax
	cmpq	%rax, -16(%rbp)
	jbe	L787
	movq	-16(%rbp), %rcx
	movq	-8(%rbp), %rax
	movl	$1, %edx
	movq	%rcx, %rsi
	movq	%rax, %rdi
	call	__ZNSt5dequeIiSaIiEE17_M_reallocate_mapEmb
L787:
	nop
	leave
LCFI1159:
	ret
LFE6198:
	.align 1
	.globl __ZNSt11_Deque_baseIiSaIiEE16_M_allocate_nodeEv
	.weak_definition __ZNSt11_Deque_baseIiSaIiEE16_M_allocate_nodeEv
__ZNSt11_Deque_baseIiSaIiEE16_M_allocate_nodeEv:
LFB6199:
	pushq	%rbp
LCFI1160:
	movq	%rsp, %rbp
LCFI1161:
	subq	$16, %rsp
	movq	%rdi, -8(%rbp)
	movl	$4, %edi
	call	__ZSt16__deque_buf_sizem
	movq	%rax, %rdx
	movq	-8(%rbp), %rax
	movq	%rdx, %rsi
	movq	%rax, %rdi
	call	__ZNSt16allocator_traitsISaIiEE8allocateERS0_m
	leave
LCFI1162:
	ret
LFE6199:
	.align 1
	.globl __ZNSt14__shared_countILN9__gnu_cxx12_Lock_policyE2EEC1IPNSt7__cxx1112basic_stringIcSt11char_traitsIcESaIcEEEEET_
	.weak_definition __ZNSt14__shared_countILN9__gnu_cxx12_Lock_policyE2EEC1IPNSt7__cxx1112basic_stringIcSt11char_traitsIcESaIcEEEEET_
__ZNSt14__shared_countILN9__gnu_cxx12_Lock_policyE2EEC1IPNSt7__cxx1112basic_stringIcSt11char_traitsIcESaIcEEEEET_:
LFB6202:
	pushq	%rbp
LCFI1163:
	movq	%rsp, %rbp
LCFI1164:
	pushq	%rbx
	subq	$24, %rsp
LCFI1165:
	movq	%rdi, -24(%rbp)
	movq	%rsi, -32(%rbp)
	movq	-24(%rbp), %rax
	movq	$0, (%rax)
	movl	$24, %edi
LEHB80:
	call	__Znwm
LEHE80:
	movq	%rax, %rbx
	movq	-32(%rbp), %rax
	movq	%rax, %rsi
	movq	%rbx, %rdi
	call	__ZNSt15_Sp_counted_ptrIPNSt7__cxx1112basic_stringIcSt11char_traitsIcESaIcEEELN9__gnu_cxx12_Lock_policyE2EEC1ES6_
	movq	-24(%rbp), %rax
	movq	%rbx, (%rax)
	jmp	L796
L794:
	movq	%rax, %rdi
	call	___cxa_begin_catch
	movq	-32(%rbp), %rbx
	testq	%rbx, %rbx
	je	L792
	movq	%rbx, %rdi
	call	__ZNSt7__cxx1112basic_stringIcSt11char_traitsIcESaIcEED1Ev
	movl	$32, %esi
	movq	%rbx, %rdi
	call	__ZdlPvm
L792:
LEHB81:
	call	___cxa_rethrow
LEHE81:
L795:
	movq	%rax, %rbx
	call	___cxa_end_catch
	movq	%rbx, %rax
	movq	%rax, %rdi
LEHB82:
	call	__Unwind_Resume
LEHE82:
L796:
	addq	$24, %rsp
	popq	%rbx
	popq	%rbp
LCFI1166:
	ret
LFE6202:
	.section __DATA,__gcc_except_tab
GCC_except_table34:
	.align 3
LLSDA6202:
	.byte	0xff
	.byte	0
	.byte	0x35
	.byte	0x3
	.byte	0x27
	.set L$set$210,LEHB80-LFB6202
	.long L$set$210
	.set L$set$211,LEHE80-LEHB80
	.long L$set$211
	.set L$set$212,L794-LFB6202
	.long L$set$212
	.byte	0x1
	.set L$set$213,LEHB81-LFB6202
	.long L$set$213
	.set L$set$214,LEHE81-LEHB81
	.long L$set$214
	.set L$set$215,L795-LFB6202
	.long L$set$215
	.byte	0
	.set L$set$216,LEHB82-LFB6202
	.long L$set$216
	.set L$set$217,LEHE82-LEHB82
	.long L$set$217
	.long	0
	.byte	0
	.byte	0x1
	.byte	0
	.align 3
	.quad	0
	.section __TEXT,__textcoal_nt,coalesced,pure_instructions
	.align 1
	.globl __ZNSt16_Sp_counted_baseILN9__gnu_cxx12_Lock_policyE2EED2Ev
	.weak_definition __ZNSt16_Sp_counted_baseILN9__gnu_cxx12_Lock_policyE2EED2Ev
__ZNSt16_Sp_counted_baseILN9__gnu_cxx12_Lock_policyE2EED2Ev:
LFB6204:
	pushq	%rbp
LCFI1167:
	movq	%rsp, %rbp
LCFI1168:
	movq	%rdi, -8(%rbp)
	movq	__ZTVSt16_Sp_counted_baseILN9__gnu_cxx12_Lock_policyE2EE@GOTPCREL(%rip), %rax
	leaq	16(%rax), %rax
	movq	-8(%rbp), %rdx
	movq	%rax, (%rdx)
	nop
	popq	%rbp
LCFI1169:
	ret
LFE6204:
	.align 1
	.globl __ZNSt16_Sp_counted_baseILN9__gnu_cxx12_Lock_policyE2EE15_M_weak_add_refEv
	.weak_definition __ZNSt16_Sp_counted_baseILN9__gnu_cxx12_Lock_policyE2EE15_M_weak_add_refEv
__ZNSt16_Sp_counted_baseILN9__gnu_cxx12_Lock_policyE2EE15_M_weak_add_refEv:
LFB6207:
	pushq	%rbp
LCFI1170:
	movq	%rsp, %rbp
LCFI1171:
	subq	$16, %rsp
	movq	%rdi, -8(%rbp)
	movq	-8(%rbp), %rax
	addq	$12, %rax
	movl	$1, %esi
	movq	%rax, %rdi
	call	__ZN9__gnu_cxxL21__atomic_add_dispatchEPii
	nop
	leave
LCFI1172:
	ret
LFE6207:
	.align 1
	.globl __ZNSt11_Tuple_implILm1EJRiRdEEC2ES0_S1_
	.weak_definition __ZNSt11_Tuple_implILm1EJRiRdEEC2ES0_S1_
__ZNSt11_Tuple_implILm1EJRiRdEEC2ES0_S1_:
LFB6209:
	pushq	%rbp
LCFI1173:
	movq	%rsp, %rbp
LCFI1174:
	subq	$32, %rsp
	movq	%rdi, -8(%rbp)
	movq	%rsi, -16(%rbp)
	movq	%rdx, -24(%rbp)
	movq	-8(%rbp), %rax
	movq	-24(%rbp), %rdx
	movq	%rdx, %rsi
	movq	%rax, %rdi
	call	__ZNSt11_Tuple_implILm2EJRdEEC2ES0_
	movq	-8(%rbp), %rax
	addq	$8, %rax
	movq	-16(%rbp), %rdx
	movq	%rdx, %rsi
	movq	%rax, %rdi
	call	__ZNSt10_Head_baseILm1ERiLb0EEC2ES0_
	nop
	leave
LCFI1175:
	ret
LFE6209:
	.globl __ZNSt10_Head_baseILm0ERNSt7__cxx1112basic_stringIcSt11char_traitsIcESaIcEEELb0EE7_M_headERS7_
	.weak_definition __ZNSt10_Head_baseILm0ERNSt7__cxx1112basic_stringIcSt11char_traitsIcESaIcEEELb0EE7_M_headERS7_
__ZNSt10_Head_baseILm0ERNSt7__cxx1112basic_stringIcSt11char_traitsIcESaIcEEELb0EE7_M_headERS7_:
LFB6211:
	pushq	%rbp
LCFI1176:
	movq	%rsp, %rbp
LCFI1177:
	movq	%rdi, -8(%rbp)
	movq	-8(%rbp), %rax
	movq	(%rax), %rax
	popq	%rbp
LCFI1178:
	ret
LFE6211:
	.globl __ZNSt11_Tuple_implILm1EJRiRdEE7_M_tailERS2_
	.weak_definition __ZNSt11_Tuple_implILm1EJRiRdEE7_M_tailERS2_
__ZNSt11_Tuple_implILm1EJRiRdEE7_M_tailERS2_:
LFB6212:
	pushq	%rbp
LCFI1179:
	movq	%rsp, %rbp
LCFI1180:
	movq	%rdi, -8(%rbp)
	movq	-8(%rbp), %rax
	popq	%rbp
LCFI1181:
	ret
LFE6212:
	.globl __ZNSt11_Tuple_implILm1EJRiRdEE7_M_headERS2_
	.weak_definition __ZNSt11_Tuple_implILm1EJRiRdEE7_M_headERS2_
__ZNSt11_Tuple_implILm1EJRiRdEE7_M_headERS2_:
LFB6214:
	pushq	%rbp
LCFI1182:
	movq	%rsp, %rbp
LCFI1183:
	subq	$16, %rsp
	movq	%rdi, -8(%rbp)
	movq	-8(%rbp), %rax
	addq	$8, %rax
	movq	%rax, %rdi
	call	__ZNSt10_Head_baseILm1ERiLb0EE7_M_headERS1_
	leave
LCFI1184:
	ret
LFE6214:
	.globl __ZSt7forwardIRiEOT_RNSt16remove_referenceIS1_E4typeE
	.weak_definition __ZSt7forwardIRiEOT_RNSt16remove_referenceIS1_E4typeE
__ZSt7forwardIRiEOT_RNSt16remove_referenceIS1_E4typeE:
LFB6215:
	pushq	%rbp
LCFI1185:
	movq	%rsp, %rbp
LCFI1186:
	movq	%rdi, -8(%rbp)
	movq	-8(%rbp), %rax
	popq	%rbp
LCFI1187:
	ret
LFE6215:
	.align 1
	.globl __ZNSt10_Head_baseILm1ERiLb0EEC2ES0_
	.weak_definition __ZNSt10_Head_baseILm1ERiLb0EEC2ES0_
__ZNSt10_Head_baseILm1ERiLb0EEC2ES0_:
LFB6220:
	pushq	%rbp
LCFI1188:
	movq	%rsp, %rbp
LCFI1189:
	movq	%rdi, -8(%rbp)
	movq	%rsi, -16(%rbp)
	movq	-8(%rbp), %rax
	movq	-16(%rbp), %rdx
	movq	%rdx, (%rax)
	nop
	popq	%rbp
LCFI1190:
	ret
LFE6220:
	.globl __ZNSt10_Head_baseILm0ENSt7__cxx1112basic_stringIcSt11char_traitsIcESaIcEEELb0EE7_M_headERKS6_
	.weak_definition __ZNSt10_Head_baseILm0ENSt7__cxx1112basic_stringIcSt11char_traitsIcESaIcEEELb0EE7_M_headERKS6_
__ZNSt10_Head_baseILm0ENSt7__cxx1112basic_stringIcSt11char_traitsIcESaIcEEELb0EE7_M_headERKS6_:
LFB6222:
	pushq	%rbp
LCFI1191:
	movq	%rsp, %rbp
LCFI1192:
	movq	%rdi, -8(%rbp)
	movq	-8(%rbp), %rax
	popq	%rbp
LCFI1193:
	ret
LFE6222:
	.globl __ZNSt16allocator_traitsISaIcEE8allocateERS0_m
	.weak_definition __ZNSt16allocator_traitsISaIcEE8allocateERS0_m
__ZNSt16allocator_traitsISaIcEE8allocateERS0_m:
LFB6224:
	pushq	%rbp
LCFI1194:
	movq	%rsp, %rbp
LCFI1195:
	subq	$16, %rsp
	movq	%rdi, -8(%rbp)
	movq	%rsi, -16(%rbp)
	movq	-16(%rbp), %rcx
	movq	-8(%rbp), %rax
	movl	$0, %edx
	movq	%rcx, %rsi
	movq	%rax, %rdi
	call	__ZN9__gnu_cxx13new_allocatorIcE8allocateEmPKv
	leave
LCFI1196:
	ret
LFE6224:
	.globl __ZNSt11_Tuple_implILm1EJidEE7_M_headERKS0_
	.weak_definition __ZNSt11_Tuple_implILm1EJidEE7_M_headERKS0_
__ZNSt11_Tuple_implILm1EJidEE7_M_headERKS0_:
LFB6227:
	pushq	%rbp
LCFI1197:
	movq	%rsp, %rbp
LCFI1198:
	subq	$16, %rsp
	movq	%rdi, -8(%rbp)
	movq	-8(%rbp), %rax
	addq	$8, %rax
	movq	%rax, %rdi
	call	__ZNSt10_Head_baseILm1EiLb0EE7_M_headERKS0_
	leave
LCFI1199:
	ret
LFE6227:
	.globl __ZNSt11_Tuple_implILm1EJidEE7_M_tailERKS0_
	.weak_definition __ZNSt11_Tuple_implILm1EJidEE7_M_tailERKS0_
__ZNSt11_Tuple_implILm1EJidEE7_M_tailERKS0_:
LFB6228:
	pushq	%rbp
LCFI1200:
	movq	%rsp, %rbp
LCFI1201:
	movq	%rdi, -8(%rbp)
	movq	-8(%rbp), %rax
	popq	%rbp
LCFI1202:
	ret
LFE6228:
	.align 1
	.globl __ZNSt11_Tuple_implILm2EJRdEE9_M_assignIdEEvRKS_ILm2EJT_EE
	.weak_definition __ZNSt11_Tuple_implILm2EJRdEE9_M_assignIdEEvRKS_ILm2EJT_EE
__ZNSt11_Tuple_implILm2EJRdEE9_M_assignIdEEvRKS_ILm2EJT_EE:
LFB6229:
	pushq	%rbp
LCFI1203:
	movq	%rsp, %rbp
LCFI1204:
	pushq	%rbx
	subq	$24, %rsp
LCFI1205:
	movq	%rdi, -24(%rbp)
	movq	%rsi, -32(%rbp)
	movq	-32(%rbp), %rax
	movq	%rax, %rdi
	call	__ZNSt11_Tuple_implILm2EJdEE7_M_headERKS0_
	movq	%rax, %rbx
	movq	-24(%rbp), %rax
	movq	%rax, %rdi
	call	__ZNSt11_Tuple_implILm2EJRdEE7_M_headERS1_
	movsd	(%rbx), %xmm0
	movsd	%xmm0, (%rax)
	nop
	addq	$24, %rsp
	popq	%rbx
	popq	%rbp
LCFI1206:
	ret
LFE6229:
	.globl __ZSt4moveIRSt6localeEONSt16remove_referenceIT_E4typeEOS3_
	.weak_definition __ZSt4moveIRSt6localeEONSt16remove_referenceIT_E4typeEOS3_
__ZSt4moveIRSt6localeEONSt16remove_referenceIT_E4typeEOS3_:
LFB6230:
	pushq	%rbp
LCFI1207:
	movq	%rsp, %rbp
LCFI1208:
	movq	%rdi, -8(%rbp)
	movq	-8(%rbp), %rax
	popq	%rbp
LCFI1209:
	ret
LFE6230:
	.align 1
	.globl __ZNSt8__detail8_ScannerIcED1Ev
	.weak_definition __ZNSt8__detail8_ScannerIcED1Ev
__ZNSt8__detail8_ScannerIcED1Ev:
LFB6239:
	pushq	%rbp
LCFI1210:
	movq	%rsp, %rbp
LCFI1211:
	subq	$16, %rsp
	movq	%rdi, -8(%rbp)
	movq	-8(%rbp), %rax
	addq	$200, %rax
	movq	%rax, %rdi
	call	__ZNSt7__cxx1112basic_stringIcSt11char_traitsIcESaIcEED1Ev
	nop
	leave
LCFI1212:
	ret
LFE6239:
	.align 1
	.globl __ZNSt12__shared_ptrINSt8__detail4_NFAINSt7__cxx1112regex_traitsIcEEEELN9__gnu_cxx12_Lock_policyE2EED2Ev
	.weak_definition __ZNSt12__shared_ptrINSt8__detail4_NFAINSt7__cxx1112regex_traitsIcEEEELN9__gnu_cxx12_Lock_policyE2EED2Ev
__ZNSt12__shared_ptrINSt8__detail4_NFAINSt7__cxx1112regex_traitsIcEEEELN9__gnu_cxx12_Lock_policyE2EED2Ev:
LFB6242:
	pushq	%rbp
LCFI1213:
	movq	%rsp, %rbp
LCFI1214:
	subq	$16, %rsp
	movq	%rdi, -8(%rbp)
	movq	-8(%rbp), %rax
	addq	$8, %rax
	movq	%rax, %rdi
	call	__ZNSt14__shared_countILN9__gnu_cxx12_Lock_policyE2EED1Ev
	nop
	leave
LCFI1215:
	ret
LFE6242:
	.align 1
	.globl __ZNSt10shared_ptrINSt8__detail4_NFAINSt7__cxx1112regex_traitsIcEEEEED1Ev
	.weak_definition __ZNSt10shared_ptrINSt8__detail4_NFAINSt7__cxx1112regex_traitsIcEEEEED1Ev
__ZNSt10shared_ptrINSt8__detail4_NFAINSt7__cxx1112regex_traitsIcEEEEED1Ev:
LFB6245:
	pushq	%rbp
LCFI1216:
	movq	%rsp, %rbp
LCFI1217:
	subq	$16, %rsp
	movq	%rdi, -8(%rbp)
	movq	-8(%rbp), %rax
	movq	%rax, %rdi
	call	__ZNSt12__shared_ptrINSt8__detail4_NFAINSt7__cxx1112regex_traitsIcEEEELN9__gnu_cxx12_Lock_policyE2EED2Ev
	nop
	leave
LCFI1218:
	ret
LFE6245:
	.align 1
	.globl __ZNSt5stackINSt8__detail9_StateSeqINSt7__cxx1112regex_traitsIcEEEESt5dequeIS5_SaIS5_EEED1Ev
	.weak_definition __ZNSt5stackINSt8__detail9_StateSeqINSt7__cxx1112regex_traitsIcEEEESt5dequeIS5_SaIS5_EEED1Ev
__ZNSt5stackINSt8__detail9_StateSeqINSt7__cxx1112regex_traitsIcEEEESt5dequeIS5_SaIS5_EEED1Ev:
LFB6248:
	pushq	%rbp
LCFI1219:
	movq	%rsp, %rbp
LCFI1220:
	subq	$16, %rsp
	movq	%rdi, -8(%rbp)
	movq	-8(%rbp), %rax
	movq	%rax, %rdi
	call	__ZNSt5dequeINSt8__detail9_StateSeqINSt7__cxx1112regex_traitsIcEEEESaIS5_EED1Ev
	nop
	leave
LCFI1221:
	ret
LFE6248:
	.align 1
	.globl __ZNSt8__detail9_CompilerINSt7__cxx1112regex_traitsIcEEED1Ev
	.weak_definition __ZNSt8__detail9_CompilerINSt7__cxx1112regex_traitsIcEEED1Ev
__ZNSt8__detail9_CompilerINSt7__cxx1112regex_traitsIcEEED1Ev:
LFB6250:
	pushq	%rbp
LCFI1222:
	movq	%rsp, %rbp
LCFI1223:
	subq	$16, %rsp
	movq	%rdi, -8(%rbp)
	movq	-8(%rbp), %rax
	addq	$304, %rax
	movq	%rax, %rdi
	call	__ZNSt5stackINSt8__detail9_StateSeqINSt7__cxx1112regex_traitsIcEEEESt5dequeIS5_SaIS5_EEED1Ev
	movq	-8(%rbp), %rax
	addq	$272, %rax
	movq	%rax, %rdi
	call	__ZNSt7__cxx1112basic_stringIcSt11char_traitsIcESaIcEED1Ev
	movq	-8(%rbp), %rax
	addq	$256, %rax
	movq	%rax, %rdi
	call	__ZNSt10shared_ptrINSt8__detail4_NFAINSt7__cxx1112regex_traitsIcEEEEED1Ev
	movq	-8(%rbp), %rax
	addq	$8, %rax
	movq	%rax, %rdi
	call	__ZNSt8__detail8_ScannerIcED1Ev
	nop
	leave
LCFI1224:
	ret
LFE6250:
	.globl __ZNSt8__detail13__compile_nfaINSt7__cxx1112regex_traitsIcEEPKcEENSt9enable_ifIXsrNS_20__is_contiguous_iterIT0_EE5valueESt10shared_ptrIKNS_4_NFAIT_EEEE4typeES8_S8_RKNSC_11locale_typeENSt15regex_constants18syntax_option_typeE
	.weak_definition __ZNSt8__detail13__compile_nfaINSt7__cxx1112regex_traitsIcEEPKcEENSt9enable_ifIXsrNS_20__is_contiguous_iterIT0_EE5valueESt10shared_ptrIKNS_4_NFAIT_EEEE4typeES8_S8_RKNSC_11locale_typeENSt15regex_constants18syntax_option_typeE
__ZNSt8__detail13__compile_nfaINSt7__cxx1112regex_traitsIcEEPKcEENSt9enable_ifIXsrNS_20__is_contiguous_iterIT0_EE5valueESt10shared_ptrIKNS_4_NFAIT_EEEE4typeES8_S8_RKNSC_11locale_typeENSt15regex_constants18syntax_option_typeE:
LFB6231:
	pushq	%rbp
LCFI1225:
	movq	%rsp, %rbp
LCFI1226:
	subq	$464, %rsp
	movq	%rdi, -424(%rbp)
	movq	%rsi, -432(%rbp)
	movq	%rdx, -440(%rbp)
	movq	%rcx, -448(%rbp)
	movl	%r8d, -452(%rbp)
	movq	-440(%rbp), %rax
	subq	-432(%rbp), %rax
	movq	%rax, -8(%rbp)
	cmpq	$0, -8(%rbp)
	je	L826
	movq	-432(%rbp), %rax
	movq	%rax, %rdi
	call	__ZSt11__addressofIKcEPT_RS1_
	jmp	L827
L826:
	movl	$0, %eax
L827:
	movq	%rax, -16(%rbp)
	movq	-16(%rbp), %rdx
	movq	-8(%rbp), %rax
	addq	%rax, %rdx
	movl	-452(%rbp), %edi
	movq	-448(%rbp), %rcx
	movq	-16(%rbp), %rsi
	leaq	-416(%rbp), %rax
	movl	%edi, %r8d
	movq	%rax, %rdi
	call	__ZNSt8__detail9_CompilerINSt7__cxx1112regex_traitsIcEEEC1EPKcS6_RKSt6localeNSt15regex_constants18syntax_option_typeE
	movq	-424(%rbp), %rdx
	leaq	-416(%rbp), %rax
	movq	%rax, %rsi
	movq	%rdx, %rdi
	call	__ZNSt8__detail9_CompilerINSt7__cxx1112regex_traitsIcEEE10_M_get_nfaEv
	leaq	-416(%rbp), %rax
	movq	%rax, %rdi
	call	__ZNSt8__detail9_CompilerINSt7__cxx1112regex_traitsIcEEED1Ev
	movq	-424(%rbp), %rax
	leave
LCFI1227:
	ret
LFE6231:
	.align 1
	.globl __ZNSaINSt7__cxx119sub_matchIN9__gnu_cxx17__normal_iteratorIPKcNS_12basic_stringIcSt11char_traitsIcESaIcEEEEEEEEC2Ev
	.weak_definition __ZNSaINSt7__cxx119sub_matchIN9__gnu_cxx17__normal_iteratorIPKcNS_12basic_stringIcSt11char_traitsIcESaIcEEEEEEEEC2Ev
__ZNSaINSt7__cxx119sub_matchIN9__gnu_cxx17__normal_iteratorIPKcNS_12basic_stringIcSt11char_traitsIcESaIcEEEEEEEEC2Ev:
LFB6255:
	pushq	%rbp
LCFI1228:
	movq	%rsp, %rbp
LCFI1229:
	subq	$16, %rsp
	movq	%rdi, -8(%rbp)
	movq	-8(%rbp), %rax
	movq	%rax, %rdi
	call	__ZN9__gnu_cxx13new_allocatorINSt7__cxx119sub_matchINS_17__normal_iteratorIPKcNS1_12basic_stringIcSt11char_traitsIcESaIcEEEEEEEEC2Ev
	nop
	leave
LCFI1230:
	ret
LFE6255:
	.align 1
	.globl __ZNSaINSt7__cxx119sub_matchIN9__gnu_cxx17__normal_iteratorIPKcNS_12basic_stringIcSt11char_traitsIcESaIcEEEEEEEEC1Ev
	.weak_definition __ZNSaINSt7__cxx119sub_matchIN9__gnu_cxx17__normal_iteratorIPKcNS_12basic_stringIcSt11char_traitsIcESaIcEEEEEEEEC1Ev
__ZNSaINSt7__cxx119sub_matchIN9__gnu_cxx17__normal_iteratorIPKcNS_12basic_stringIcSt11char_traitsIcESaIcEEEEEEEEC1Ev:
LFB6256:
	pushq	%rbp
LCFI1231:
	movq	%rsp, %rbp
LCFI1232:
	subq	$16, %rsp
	movq	%rdi, -8(%rbp)
	movq	-8(%rbp), %rax
	movq	%rax, %rdi
	call	__ZN9__gnu_cxx13new_allocatorINSt7__cxx119sub_matchINS_17__normal_iteratorIPKcNS1_12basic_stringIcSt11char_traitsIcESaIcEEEEEEEEC2Ev
	nop
	leave
LCFI1233:
	ret
LFE6256:
	.align 1
	.globl __ZNSaINSt7__cxx119sub_matchIN9__gnu_cxx17__normal_iteratorIPKcNS_12basic_stringIcSt11char_traitsIcESaIcEEEEEEEED2Ev
	.weak_definition __ZNSaINSt7__cxx119sub_matchIN9__gnu_cxx17__normal_iteratorIPKcNS_12basic_stringIcSt11char_traitsIcESaIcEEEEEEEED2Ev
__ZNSaINSt7__cxx119sub_matchIN9__gnu_cxx17__normal_iteratorIPKcNS_12basic_stringIcSt11char_traitsIcESaIcEEEEEEEED2Ev:
LFB6258:
	pushq	%rbp
LCFI1234:
	movq	%rsp, %rbp
LCFI1235:
	subq	$16, %rsp
	movq	%rdi, -8(%rbp)
	movq	-8(%rbp), %rax
	movq	%rax, %rdi
	call	__ZN9__gnu_cxx13new_allocatorINSt7__cxx119sub_matchINS_17__normal_iteratorIPKcNS1_12basic_stringIcSt11char_traitsIcESaIcEEEEEEEED2Ev
	nop
	leave
LCFI1236:
	ret
LFE6258:
	.align 1
	.globl __ZNSaINSt7__cxx119sub_matchIN9__gnu_cxx17__normal_iteratorIPKcNS_12basic_stringIcSt11char_traitsIcESaIcEEEEEEEED1Ev
	.weak_definition __ZNSaINSt7__cxx119sub_matchIN9__gnu_cxx17__normal_iteratorIPKcNS_12basic_stringIcSt11char_traitsIcESaIcEEEEEEEED1Ev
__ZNSaINSt7__cxx119sub_matchIN9__gnu_cxx17__normal_iteratorIPKcNS_12basic_stringIcSt11char_traitsIcESaIcEEEEEEEED1Ev:
LFB6259:
	pushq	%rbp
LCFI1237:
	movq	%rsp, %rbp
LCFI1238:
	subq	$16, %rsp
	movq	%rdi, -8(%rbp)
	movq	-8(%rbp), %rax
	movq	%rax, %rdi
	call	__ZN9__gnu_cxx13new_allocatorINSt7__cxx119sub_matchINS_17__normal_iteratorIPKcNS1_12basic_stringIcSt11char_traitsIcESaIcEEEEEEEED2Ev
	nop
	leave
LCFI1239:
	ret
LFE6259:
	.align 1
	.globl __ZNSt7__cxx1113match_resultsIN9__gnu_cxx17__normal_iteratorIPKcNS_12basic_stringIcSt11char_traitsIcESaIcEEEEESaINS_9sub_matchISA_EEEEC1ERKSD_
	.weak_definition __ZNSt7__cxx1113match_resultsIN9__gnu_cxx17__normal_iteratorIPKcNS_12basic_stringIcSt11char_traitsIcESaIcEEEEESaINS_9sub_matchISA_EEEEC1ERKSD_
__ZNSt7__cxx1113match_resultsIN9__gnu_cxx17__normal_iteratorIPKcNS_12basic_stringIcSt11char_traitsIcESaIcEEEEESaINS_9sub_matchISA_EEEEC1ERKSD_:
LFB6262:
	pushq	%rbp
LCFI1240:
	movq	%rsp, %rbp
LCFI1241:
	subq	$16, %rsp
	movq	%rdi, -8(%rbp)
	movq	%rsi, -16(%rbp)
	movq	-8(%rbp), %rax
	movq	-16(%rbp), %rdx
	movq	%rdx, %rsi
	movq	%rax, %rdi
	call	__ZNSt6vectorINSt7__cxx119sub_matchIN9__gnu_cxx17__normal_iteratorIPKcNS0_12basic_stringIcSt11char_traitsIcESaIcEEEEEEESaISC_EEC2ERKSD_
	movq	-8(%rbp), %rax
	addq	$24, %rax
	movq	%rax, %rdi
	call	__ZN9__gnu_cxx17__normal_iteratorIPKcNSt7__cxx1112basic_stringIcSt11char_traitsIcESaIcEEEEC1Ev
	nop
	leave
LCFI1242:
	ret
LFE6262:
	.align 1
	.globl __ZNSt12_Vector_baseINSt7__cxx119sub_matchIN9__gnu_cxx17__normal_iteratorIPKcNS0_12basic_stringIcSt11char_traitsIcESaIcEEEEEEESaISC_EE12_Vector_implD1Ev
	.weak_definition __ZNSt12_Vector_baseINSt7__cxx119sub_matchIN9__gnu_cxx17__normal_iteratorIPKcNS0_12basic_stringIcSt11char_traitsIcESaIcEEEEEEESaISC_EE12_Vector_implD1Ev
__ZNSt12_Vector_baseINSt7__cxx119sub_matchIN9__gnu_cxx17__normal_iteratorIPKcNS0_12basic_stringIcSt11char_traitsIcESaIcEEEEEEESaISC_EE12_Vector_implD1Ev:
LFB6266:
	pushq	%rbp
LCFI1243:
	movq	%rsp, %rbp
LCFI1244:
	subq	$16, %rsp
	movq	%rdi, -8(%rbp)
	movq	-8(%rbp), %rax
	movq	%rax, %rdi
	call	__ZNSaINSt7__cxx119sub_matchIN9__gnu_cxx17__normal_iteratorIPKcNS_12basic_stringIcSt11char_traitsIcESaIcEEEEEEEED2Ev
	nop
	leave
LCFI1245:
	ret
LFE6266:
	.align 1
	.globl __ZNSt12_Vector_baseINSt7__cxx119sub_matchIN9__gnu_cxx17__normal_iteratorIPKcNS0_12basic_stringIcSt11char_traitsIcESaIcEEEEEEESaISC_EED2Ev
	.weak_definition __ZNSt12_Vector_baseINSt7__cxx119sub_matchIN9__gnu_cxx17__normal_iteratorIPKcNS0_12basic_stringIcSt11char_traitsIcESaIcEEEEEEESaISC_EED2Ev
__ZNSt12_Vector_baseINSt7__cxx119sub_matchIN9__gnu_cxx17__normal_iteratorIPKcNS0_12basic_stringIcSt11char_traitsIcESaIcEEEEEEESaISC_EED2Ev:
LFB6267:
	pushq	%rbp
LCFI1246:
	movq	%rsp, %rbp
LCFI1247:
	subq	$16, %rsp
	movq	%rdi, -8(%rbp)
	movq	-8(%rbp), %rax
	movq	16(%rax), %rdx
	movq	-8(%rbp), %rax
	movq	(%rax), %rax
	subq	%rax, %rdx
	movq	%rdx, %rax
	sarq	$3, %rax
	movq	%rax, %rdx
	movabsq	$-6148914691236517205, %rax
	imulq	%rdx, %rax
	movq	%rax, %rdx
	movq	-8(%rbp), %rax
	movq	(%rax), %rcx
	movq	-8(%rbp), %rax
	movq	%rcx, %rsi
	movq	%rax, %rdi
	call	__ZNSt12_Vector_baseINSt7__cxx119sub_matchIN9__gnu_cxx17__normal_iteratorIPKcNS0_12basic_stringIcSt11char_traitsIcESaIcEEEEEEESaISC_EE13_M_deallocateEPSC_m
	movq	-8(%rbp), %rax
	movq	%rax, %rdi
	call	__ZNSt12_Vector_baseINSt7__cxx119sub_matchIN9__gnu_cxx17__normal_iteratorIPKcNS0_12basic_stringIcSt11char_traitsIcESaIcEEEEEEESaISC_EE12_Vector_implD1Ev
	nop
	leave
LCFI1248:
	ret
LFE6267:
	.section __DATA,__gcc_except_tab
GCC_except_table35:
LLSDA6267:
	.byte	0xff
	.byte	0x3
	.byte	0
	.section __TEXT,__textcoal_nt,coalesced,pure_instructions
	.align 1
	.globl __ZNSt12_Vector_baseINSt7__cxx119sub_matchIN9__gnu_cxx17__normal_iteratorIPKcNS0_12basic_stringIcSt11char_traitsIcESaIcEEEEEEESaISC_EE19_M_get_Tp_allocatorEv
	.weak_definition __ZNSt12_Vector_baseINSt7__cxx119sub_matchIN9__gnu_cxx17__normal_iteratorIPKcNS0_12basic_stringIcSt11char_traitsIcESaIcEEEEEEESaISC_EE19_M_get_Tp_allocatorEv
__ZNSt12_Vector_baseINSt7__cxx119sub_matchIN9__gnu_cxx17__normal_iteratorIPKcNS0_12basic_stringIcSt11char_traitsIcESaIcEEEEEEESaISC_EE19_M_get_Tp_allocatorEv:
LFB6269:
	pushq	%rbp
LCFI1249:
	movq	%rsp, %rbp
LCFI1250:
	movq	%rdi, -8(%rbp)
	movq	-8(%rbp), %rax
	popq	%rbp
LCFI1251:
	ret
LFE6269:
	.globl __ZSt8_DestroyIPNSt7__cxx119sub_matchIN9__gnu_cxx17__normal_iteratorIPKcNS0_12basic_stringIcSt11char_traitsIcESaIcEEEEEEESC_EvT_SE_RSaIT0_E
	.weak_definition __ZSt8_DestroyIPNSt7__cxx119sub_matchIN9__gnu_cxx17__normal_iteratorIPKcNS0_12basic_stringIcSt11char_traitsIcESaIcEEEEEEESC_EvT_SE_RSaIT0_E
__ZSt8_DestroyIPNSt7__cxx119sub_matchIN9__gnu_cxx17__normal_iteratorIPKcNS0_12basic_stringIcSt11char_traitsIcESaIcEEEEEEESC_EvT_SE_RSaIT0_E:
LFB6270:
	pushq	%rbp
LCFI1252:
	movq	%rsp, %rbp
LCFI1253:
	subq	$32, %rsp
	movq	%rdi, -8(%rbp)
	movq	%rsi, -16(%rbp)
	movq	%rdx, -24(%rbp)
	movq	-16(%rbp), %rdx
	movq	-8(%rbp), %rax
	movq	%rdx, %rsi
	movq	%rax, %rdi
	call	__ZSt8_DestroyIPNSt7__cxx119sub_matchIN9__gnu_cxx17__normal_iteratorIPKcNS0_12basic_stringIcSt11char_traitsIcESaIcEEEEEEEEvT_SE_
	nop
	leave
LCFI1254:
	ret
LFE6270:
	.align 1
	.globl __ZNSt8__detail9_ExecutorIN9__gnu_cxx17__normal_iteratorIPKcNSt7__cxx1112basic_stringIcSt11char_traitsIcESaIcEEEEESaINS5_9sub_matchISB_EEENS5_12regex_traitsIcEELb0EE11_State_infoISt17integral_constantIbLb0EESt6vectorISD_SE_EED1Ev
	.weak_definition __ZNSt8__detail9_ExecutorIN9__gnu_cxx17__normal_iteratorIPKcNSt7__cxx1112basic_stringIcSt11char_traitsIcESaIcEEEEESaINS5_9sub_matchISB_EEENS5_12regex_traitsIcEELb0EE11_State_infoISt17integral_constantIbLb0EESt6vectorISD_SE_EED1Ev
__ZNSt8__detail9_ExecutorIN9__gnu_cxx17__normal_iteratorIPKcNSt7__cxx1112basic_stringIcSt11char_traitsIcESaIcEEEEESaINS5_9sub_matchISB_EEENS5_12regex_traitsIcEELb0EE11_State_infoISt17integral_constantIbLb0EESt6vectorISD_SE_EED1Ev:
LFB6275:
	pushq	%rbp
LCFI1255:
	movq	%rsp, %rbp
LCFI1256:
	subq	$16, %rsp
	movq	%rdi, -8(%rbp)
	movq	-8(%rbp), %rax
	addq	$24, %rax
	movq	%rax, %rdi
	call	__ZNSt10unique_ptrIA_bSt14default_deleteIS0_EED1Ev
	movq	-8(%rbp), %rax
	movq	%rax, %rdi
	call	__ZNSt6vectorISt4pairIlS_INSt7__cxx119sub_matchIN9__gnu_cxx17__normal_iteratorIPKcNS1_12basic_stringIcSt11char_traitsIcESaIcEEEEEEESaISD_EEESaISG_EED1Ev
	nop
	leave
LCFI1257:
	ret
LFE6275:
	.align 1
	.globl __ZNSt8__detail9_ExecutorIN9__gnu_cxx17__normal_iteratorIPKcNSt7__cxx1112basic_stringIcSt11char_traitsIcESaIcEEEEESaINS5_9sub_matchISB_EEENS5_12regex_traitsIcEELb0EED1Ev
	.weak_definition __ZNSt8__detail9_ExecutorIN9__gnu_cxx17__normal_iteratorIPKcNSt7__cxx1112basic_stringIcSt11char_traitsIcESaIcEEEEESaINS5_9sub_matchISB_EEENS5_12regex_traitsIcEELb0EED1Ev
__ZNSt8__detail9_ExecutorIN9__gnu_cxx17__normal_iteratorIPKcNSt7__cxx1112basic_stringIcSt11char_traitsIcESaIcEEEEESaINS5_9sub_matchISB_EEENS5_12regex_traitsIcEELb0EED1Ev:
LFB6277:
	pushq	%rbp
LCFI1258:
	movq	%rsp, %rbp
LCFI1259:
	subq	$16, %rsp
	movq	%rdi, -8(%rbp)
	movq	-8(%rbp), %rax
	addq	$96, %rax
	movq	%rax, %rdi
	call	__ZNSt8__detail9_ExecutorIN9__gnu_cxx17__normal_iteratorIPKcNSt7__cxx1112basic_stringIcSt11char_traitsIcESaIcEEEEESaINS5_9sub_matchISB_EEENS5_12regex_traitsIcEELb0EE11_State_infoISt17integral_constantIbLb0EESt6vectorISD_SE_EED1Ev
	movq	-8(%rbp), %rax
	addq	$72, %rax
	movq	%rax, %rdi
	call	__ZNSt6vectorISt4pairIN9__gnu_cxx17__normal_iteratorIPKcNSt7__cxx1112basic_stringIcSt11char_traitsIcESaIcEEEEEiESaISC_EED1Ev
	movq	-8(%rbp), %rax
	movq	%rax, %rdi
	call	__ZNSt6vectorINSt7__cxx119sub_matchIN9__gnu_cxx17__normal_iteratorIPKcNS0_12basic_stringIcSt11char_traitsIcESaIcEEEEEEESaISC_EED1Ev
	nop
	leave
LCFI1260:
	ret
LFE6277:
	.align 1
	.globl __ZNSt8__detail9_ExecutorIN9__gnu_cxx17__normal_iteratorIPKcNSt7__cxx1112basic_stringIcSt11char_traitsIcESaIcEEEEESaINS5_9sub_matchISB_EEENS5_12regex_traitsIcEELb1EED1Ev
	.weak_definition __ZNSt8__detail9_ExecutorIN9__gnu_cxx17__normal_iteratorIPKcNSt7__cxx1112basic_stringIcSt11char_traitsIcESaIcEEEEESaINS5_9sub_matchISB_EEENS5_12regex_traitsIcEELb1EED1Ev
__ZNSt8__detail9_ExecutorIN9__gnu_cxx17__normal_iteratorIPKcNSt7__cxx1112basic_stringIcSt11char_traitsIcESaIcEEEEESaINS5_9sub_matchISB_EEENS5_12regex_traitsIcEELb1EED1Ev:
LFB6280:
	pushq	%rbp
LCFI1261:
	movq	%rsp, %rbp
LCFI1262:
	subq	$16, %rsp
	movq	%rdi, -8(%rbp)
	movq	-8(%rbp), %rax
	addq	$72, %rax
	movq	%rax, %rdi
	call	__ZNSt6vectorISt4pairIN9__gnu_cxx17__normal_iteratorIPKcNSt7__cxx1112basic_stringIcSt11char_traitsIcESaIcEEEEEiESaISC_EED1Ev
	movq	-8(%rbp), %rax
	movq	%rax, %rdi
	call	__ZNSt6vectorINSt7__cxx119sub_matchIN9__gnu_cxx17__normal_iteratorIPKcNS0_12basic_stringIcSt11char_traitsIcESaIcEEEEEEESaISC_EED1Ev
	nop
	leave
LCFI1263:
	ret
LFE6280:
	.globl __ZNSt8__detail17__regex_algo_implIN9__gnu_cxx17__normal_iteratorIPKcNSt7__cxx1112basic_stringIcSt11char_traitsIcESaIcEEEEESaINS5_9sub_matchISB_EEEcNS5_12regex_traitsIcEELNS_20_RegexExecutorPolicyE0ELb0EEEbT_SI_RNS5_13match_resultsISI_T0_EERKNS5_11basic_regexIT1_T2_EENSt15regex_constants15match_flag_typeE
	.weak_definition __ZNSt8__detail17__regex_algo_implIN9__gnu_cxx17__normal_iteratorIPKcNSt7__cxx1112basic_stringIcSt11char_traitsIcESaIcEEEEESaINS5_9sub_matchISB_EEEcNS5_12regex_traitsIcEELNS_20_RegexExecutorPolicyE0ELb0EEEbT_SI_RNS5_13match_resultsISI_T0_EERKNS5_11basic_regexIT1_T2_EENSt15regex_constants15match_flag_typeE
__ZNSt8__detail17__regex_algo_implIN9__gnu_cxx17__normal_iteratorIPKcNSt7__cxx1112basic_stringIcSt11char_traitsIcESaIcEEEEESaINS5_9sub_matchISB_EEEcNS5_12regex_traitsIcEELNS_20_RegexExecutorPolicyE0ELb0EEEbT_SI_RNS5_13match_resultsISI_T0_EERKNS5_11basic_regexIT1_T2_EENSt15regex_constants15match_flag_typeE:
LFB6271:
	pushq	%rbp
LCFI1264:
	movq	%rsp, %rbp
LCFI1265:
	pushq	%rbx
	subq	$328, %rsp
LCFI1266:
	movq	%rdi, -296(%rbp)
	movq	%rsi, -304(%rbp)
	movq	%rdx, -312(%rbp)
	movq	%rcx, -320(%rbp)
	movl	%r8d, -324(%rbp)
	movq	-320(%rbp), %rax
	addq	$16, %rax
	movl	$0, %esi
	movq	%rax, %rdi
	call	__ZSteqIKNSt8__detail4_NFAINSt7__cxx1112regex_traitsIcEEEEEbRKSt10shared_ptrIT_EDn
	testb	%al, %al
	je	L843
	movl	$0, %eax
	jmp	L862
L843:
	movq	-312(%rbp), %rax
	movq	%rax, -32(%rbp)
	movq	-312(%rbp), %rax
	movq	-296(%rbp), %rdx
	movq	%rdx, 24(%rax)
	movq	-320(%rbp), %rax
	addq	$16, %rax
	movq	%rax, %rdi
	call	__ZNKSt19__shared_ptr_accessIKNSt8__detail4_NFAINSt7__cxx1112regex_traitsIcEEEELN9__gnu_cxx12_Lock_policyE2ELb0ELb0EEptEv
	movq	%rax, %rdi
	call	__ZNKSt8__detail9_NFA_base12_M_sub_countEv
	movl	%eax, %edx
	movq	-312(%rbp), %rax
	movl	%edx, %esi
	movq	%rax, %rdi
LEHB83:
	call	__ZNSt7__cxx1113match_resultsIN9__gnu_cxx17__normal_iteratorIPKcNS_12basic_stringIcSt11char_traitsIcESaIcEEEEESaINS_9sub_matchISA_EEEE9_M_resizeEj
	movq	-32(%rbp), %rax
	movq	%rax, -40(%rbp)
	movq	-40(%rbp), %rax
	movq	%rax, %rdi
	call	__ZNSt6vectorINSt7__cxx119sub_matchIN9__gnu_cxx17__normal_iteratorIPKcNS0_12basic_stringIcSt11char_traitsIcESaIcEEEEEEESaISC_EE5beginEv
	movq	%rax, -104(%rbp)
	movq	-40(%rbp), %rax
	movq	%rax, %rdi
	call	__ZNSt6vectorINSt7__cxx119sub_matchIN9__gnu_cxx17__normal_iteratorIPKcNS0_12basic_stringIcSt11char_traitsIcESaIcEEEEEEESaISC_EE3endEv
	movq	%rax, -112(%rbp)
L846:
	leaq	-112(%rbp), %rdx
	leaq	-104(%rbp), %rax
	movq	%rdx, %rsi
	movq	%rax, %rdi
	call	__ZN9__gnu_cxxneIPNSt7__cxx119sub_matchINS_17__normal_iteratorIPKcNS1_12basic_stringIcSt11char_traitsIcESaIcEEEEEEESt6vectorISC_SaISC_EEEEbRKNS3_IT_T0_EESL_
	testb	%al, %al
	je	L845
	leaq	-104(%rbp), %rax
	movq	%rax, %rdi
	call	__ZNK9__gnu_cxx17__normal_iteratorIPNSt7__cxx119sub_matchINS0_IPKcNS1_12basic_stringIcSt11char_traitsIcESaIcEEEEEEESt6vectorISB_SaISB_EEEdeEv
	movq	%rax, -96(%rbp)
	movq	-96(%rbp), %rax
	movb	$0, 16(%rax)
	leaq	-104(%rbp), %rax
	movq	%rax, %rdi
	call	__ZN9__gnu_cxx17__normal_iteratorIPNSt7__cxx119sub_matchINS0_IPKcNS1_12basic_stringIcSt11char_traitsIcESaIcEEEEEEESt6vectorISB_SaISB_EEEppEv
	jmp	L846
L845:
	movq	-320(%rbp), %rax
	movq	%rax, %rdi
	call	__ZNKSt7__cxx1111basic_regexIcNS_12regex_traitsIcEEE5flagsEv
	movl	$1024, %esi
	movl	%eax, %edi
	call	__ZNSt15regex_constantsanENS_18syntax_option_typeES0_
	testl	%eax, %eax
	je	L847
	movl	$1, %eax
	jmp	L848
L847:
	movl	$0, %eax
L848:
	testb	%al, %al
	je	L849
	movq	-312(%rbp), %rcx
	movl	-324(%rbp), %r8d
	movq	-320(%rbp), %rdi
	movq	-304(%rbp), %rdx
	movq	-296(%rbp), %rsi
	leaq	-288(%rbp), %rax
	movl	%r8d, %r9d
	movq	%rdi, %r8
	movq	%rax, %rdi
	call	__ZNSt8__detail9_ExecutorIN9__gnu_cxx17__normal_iteratorIPKcNSt7__cxx1112basic_stringIcSt11char_traitsIcESaIcEEEEESaINS5_9sub_matchISB_EEENS5_12regex_traitsIcEELb0EEC1ESB_SB_RSt6vectorISD_SE_ERKNS5_11basic_regexIcSG_EENSt15regex_constants15match_flag_typeE
LEHE83:
	leaq	-288(%rbp), %rax
	movq	%rax, %rdi
LEHB84:
	call	__ZNSt8__detail9_ExecutorIN9__gnu_cxx17__normal_iteratorIPKcNSt7__cxx1112basic_stringIcSt11char_traitsIcESaIcEEEEESaINS5_9sub_matchISB_EEENS5_12regex_traitsIcEELb0EE9_M_searchEv
LEHE84:
	movb	%al, -17(%rbp)
	leaq	-288(%rbp), %rax
	movq	%rax, %rdi
	call	__ZNSt8__detail9_ExecutorIN9__gnu_cxx17__normal_iteratorIPKcNSt7__cxx1112basic_stringIcSt11char_traitsIcESaIcEEEEESaINS5_9sub_matchISB_EEENS5_12regex_traitsIcEELb0EED1Ev
	jmp	L850
L849:
	movq	-312(%rbp), %rcx
	movl	-324(%rbp), %r8d
	movq	-320(%rbp), %rdi
	movq	-304(%rbp), %rdx
	movq	-296(%rbp), %rsi
	leaq	-288(%rbp), %rax
	movl	%r8d, %r9d
	movq	%rdi, %r8
	movq	%rax, %rdi
LEHB85:
	call	__ZNSt8__detail9_ExecutorIN9__gnu_cxx17__normal_iteratorIPKcNSt7__cxx1112basic_stringIcSt11char_traitsIcESaIcEEEEESaINS5_9sub_matchISB_EEENS5_12regex_traitsIcEELb1EEC1ESB_SB_RSt6vectorISD_SE_ERKNS5_11basic_regexIcSG_EENSt15regex_constants15match_flag_typeE
LEHE85:
	leaq	-288(%rbp), %rax
	movq	%rax, %rdi
LEHB86:
	call	__ZNSt8__detail9_ExecutorIN9__gnu_cxx17__normal_iteratorIPKcNSt7__cxx1112basic_stringIcSt11char_traitsIcESaIcEEEEESaINS5_9sub_matchISB_EEENS5_12regex_traitsIcEELb1EE9_M_searchEv
LEHE86:
	movb	%al, -17(%rbp)
	leaq	-288(%rbp), %rax
	movq	%rax, %rdi
	call	__ZNSt8__detail9_ExecutorIN9__gnu_cxx17__normal_iteratorIPKcNSt7__cxx1112basic_stringIcSt11char_traitsIcESaIcEEEEESaINS5_9sub_matchISB_EEENS5_12regex_traitsIcEELb1EED1Ev
L850:
	cmpb	$0, -17(%rbp)
	je	L851
	movq	-32(%rbp), %rax
	movq	%rax, -64(%rbp)
	movq	-64(%rbp), %rax
	movq	%rax, %rdi
	call	__ZNSt6vectorINSt7__cxx119sub_matchIN9__gnu_cxx17__normal_iteratorIPKcNS0_12basic_stringIcSt11char_traitsIcESaIcEEEEEEESaISC_EE5beginEv
	movq	%rax, -120(%rbp)
	movq	-64(%rbp), %rax
	movq	%rax, %rdi
	call	__ZNSt6vectorINSt7__cxx119sub_matchIN9__gnu_cxx17__normal_iteratorIPKcNS0_12basic_stringIcSt11char_traitsIcESaIcEEEEEEESaISC_EE3endEv
	movq	%rax, -128(%rbp)
L854:
	leaq	-128(%rbp), %rdx
	leaq	-120(%rbp), %rax
	movq	%rdx, %rsi
	movq	%rax, %rdi
	call	__ZN9__gnu_cxxneIPNSt7__cxx119sub_matchINS_17__normal_iteratorIPKcNS1_12basic_stringIcSt11char_traitsIcESaIcEEEEEEESt6vectorISC_SaISC_EEEEbRKNS3_IT_T0_EESL_
	testb	%al, %al
	je	L852
	leaq	-120(%rbp), %rax
	movq	%rax, %rdi
	call	__ZNK9__gnu_cxx17__normal_iteratorIPNSt7__cxx119sub_matchINS0_IPKcNS1_12basic_stringIcSt11char_traitsIcESaIcEEEEEEESt6vectorISB_SaISB_EEEdeEv
	movq	%rax, -88(%rbp)
	movq	-88(%rbp), %rax
	movzbl	16(%rax), %eax
	xorl	$1, %eax
	testb	%al, %al
	je	L853
	movq	-88(%rbp), %rax
	movq	-304(%rbp), %rdx
	movq	%rdx, 8(%rax)
	movq	-88(%rbp), %rax
	leaq	8(%rax), %rdx
	movq	-88(%rbp), %rax
	movq	(%rdx), %rdx
	movq	%rdx, (%rax)
L853:
	leaq	-120(%rbp), %rax
	movq	%rax, %rdi
	call	__ZN9__gnu_cxx17__normal_iteratorIPNSt7__cxx119sub_matchINS0_IPKcNS1_12basic_stringIcSt11char_traitsIcESaIcEEEEEEESt6vectorISB_SaISB_EEEppEv
	jmp	L854
L852:
	movq	-312(%rbp), %rax
	movq	%rax, %rdi
	call	__ZNSt7__cxx1113match_resultsIN9__gnu_cxx17__normal_iteratorIPKcNS_12basic_stringIcSt11char_traitsIcESaIcEEEEESaINS_9sub_matchISA_EEEE9_M_prefixEv
	movq	%rax, -72(%rbp)
	movq	-312(%rbp), %rax
	movq	%rax, %rdi
	call	__ZNSt7__cxx1113match_resultsIN9__gnu_cxx17__normal_iteratorIPKcNS_12basic_stringIcSt11char_traitsIcESaIcEEEEESaINS_9sub_matchISA_EEEE9_M_suffixEv
	movq	%rax, -80(%rbp)
	movq	-72(%rbp), %rax
	movq	-296(%rbp), %rdx
	movq	%rdx, (%rax)
	movq	-32(%rbp), %rax
	movl	$0, %esi
	movq	%rax, %rdi
	call	__ZNSt6vectorINSt7__cxx119sub_matchIN9__gnu_cxx17__normal_iteratorIPKcNS0_12basic_stringIcSt11char_traitsIcESaIcEEEEEEESaISC_EEixEm
	movq	-72(%rbp), %rdx
	movq	(%rax), %rax
	movq	%rax, 8(%rdx)
	movq	-72(%rbp), %rax
	leaq	8(%rax), %rdx
	movq	-72(%rbp), %rax
	movq	%rdx, %rsi
	movq	%rax, %rdi
	call	__ZN9__gnu_cxxneIPKcNSt7__cxx1112basic_stringIcSt11char_traitsIcESaIcEEEEEbRKNS_17__normal_iteratorIT_T0_EESE_
	movq	-72(%rbp), %rdx
	movb	%al, 16(%rdx)
	movq	-32(%rbp), %rax
	movl	$0, %esi
	movq	%rax, %rdi
	call	__ZNSt6vectorINSt7__cxx119sub_matchIN9__gnu_cxx17__normal_iteratorIPKcNS0_12basic_stringIcSt11char_traitsIcESaIcEEEEEEESaISC_EEixEm
	movq	-80(%rbp), %rdx
	movq	8(%rax), %rax
	movq	%rax, (%rdx)
	movq	-80(%rbp), %rax
	movq	-304(%rbp), %rdx
	movq	%rdx, 8(%rax)
	movq	-80(%rbp), %rax
	leaq	8(%rax), %rdx
	movq	-80(%rbp), %rax
	movq	%rdx, %rsi
	movq	%rax, %rdi
	call	__ZN9__gnu_cxxneIPKcNSt7__cxx1112basic_stringIcSt11char_traitsIcESaIcEEEEEbRKNS_17__normal_iteratorIT_T0_EESE_
	movq	-80(%rbp), %rdx
	movb	%al, 16(%rdx)
	jmp	L855
L851:
	movq	-312(%rbp), %rax
	movl	$0, %esi
	movq	%rax, %rdi
LEHB87:
	call	__ZNSt7__cxx1113match_resultsIN9__gnu_cxx17__normal_iteratorIPKcNS_12basic_stringIcSt11char_traitsIcESaIcEEEEESaINS_9sub_matchISA_EEEE9_M_resizeEj
	movq	-32(%rbp), %rax
	movq	%rax, -48(%rbp)
	movq	-48(%rbp), %rax
	movq	%rax, %rdi
	call	__ZNSt6vectorINSt7__cxx119sub_matchIN9__gnu_cxx17__normal_iteratorIPKcNS0_12basic_stringIcSt11char_traitsIcESaIcEEEEEEESaISC_EE5beginEv
	movq	%rax, -136(%rbp)
	movq	-48(%rbp), %rax
	movq	%rax, %rdi
	call	__ZNSt6vectorINSt7__cxx119sub_matchIN9__gnu_cxx17__normal_iteratorIPKcNS0_12basic_stringIcSt11char_traitsIcESaIcEEEEEEESaISC_EE3endEv
	movq	%rax, -144(%rbp)
L857:
	leaq	-144(%rbp), %rdx
	leaq	-136(%rbp), %rax
	movq	%rdx, %rsi
	movq	%rax, %rdi
	call	__ZN9__gnu_cxxneIPNSt7__cxx119sub_matchINS_17__normal_iteratorIPKcNS1_12basic_stringIcSt11char_traitsIcESaIcEEEEEEESt6vectorISC_SaISC_EEEEbRKNS3_IT_T0_EESL_
	testb	%al, %al
	je	L855
	leaq	-136(%rbp), %rax
	movq	%rax, %rdi
	call	__ZNK9__gnu_cxx17__normal_iteratorIPNSt7__cxx119sub_matchINS0_IPKcNS1_12basic_stringIcSt11char_traitsIcESaIcEEEEEEESt6vectorISB_SaISB_EEEdeEv
	movq	%rax, -56(%rbp)
	movq	-56(%rbp), %rax
	movb	$0, 16(%rax)
	movq	-56(%rbp), %rax
	movq	-304(%rbp), %rdx
	movq	%rdx, 8(%rax)
	movq	-56(%rbp), %rax
	leaq	8(%rax), %rdx
	movq	-56(%rbp), %rax
	movq	(%rdx), %rdx
	movq	%rdx, (%rax)
	leaq	-136(%rbp), %rax
	movq	%rax, %rdi
	call	__ZN9__gnu_cxx17__normal_iteratorIPNSt7__cxx119sub_matchINS0_IPKcNS1_12basic_stringIcSt11char_traitsIcESaIcEEEEEEESt6vectorISB_SaISB_EEEppEv
	jmp	L857
L855:
	movzbl	-17(%rbp), %eax
	jmp	L862
L860:
	movq	%rax, %rbx
	leaq	-288(%rbp), %rax
	movq	%rax, %rdi
	call	__ZNSt8__detail9_ExecutorIN9__gnu_cxx17__normal_iteratorIPKcNSt7__cxx1112basic_stringIcSt11char_traitsIcESaIcEEEEESaINS5_9sub_matchISB_EEENS5_12regex_traitsIcEELb0EED1Ev
	movq	%rbx, %rax
	movq	%rax, %rdi
	call	__Unwind_Resume
L861:
	movq	%rax, %rbx
	leaq	-288(%rbp), %rax
	movq	%rax, %rdi
	call	__ZNSt8__detail9_ExecutorIN9__gnu_cxx17__normal_iteratorIPKcNSt7__cxx1112basic_stringIcSt11char_traitsIcESaIcEEEEESaINS5_9sub_matchISB_EEENS5_12regex_traitsIcEELb1EED1Ev
	movq	%rbx, %rax
	movq	%rax, %rdi
	call	__Unwind_Resume
LEHE87:
L862:
	addq	$328, %rsp
	popq	%rbx
	popq	%rbp
LCFI1267:
	ret
LFE6271:
	.section __DATA,__gcc_except_tab
GCC_except_table36:
LLSDA6271:
	.byte	0xff
	.byte	0x3
	.byte	0x41
	.set L$set$218,LEHB83-LFB6271
	.long L$set$218
	.set L$set$219,LEHE83-LEHB83
	.long L$set$219
	.long	0
	.byte	0
	.set L$set$220,LEHB84-LFB6271
	.long L$set$220
	.set L$set$221,LEHE84-LEHB84
	.long L$set$221
	.set L$set$222,L860-LFB6271
	.long L$set$222
	.byte	0
	.set L$set$223,LEHB85-LFB6271
	.long L$set$223
	.set L$set$224,LEHE85-LEHB85
	.long L$set$224
	.long	0
	.byte	0
	.set L$set$225,LEHB86-LFB6271
	.long L$set$225
	.set L$set$226,LEHE86-LEHB86
	.long L$set$226
	.set L$set$227,L861-LFB6271
	.long L$set$227
	.byte	0
	.set L$set$228,LEHB87-LFB6271
	.long L$set$228
	.set L$set$229,LEHE87-LEHB87
	.long L$set$229
	.long	0
	.byte	0
	.section __TEXT,__textcoal_nt,coalesced,pure_instructions
	.align 1
	.globl __ZN9__gnu_cxx13new_allocatorISt4pairIiPcEE10deallocateEPS3_m
	.weak_definition __ZN9__gnu_cxx13new_allocatorISt4pairIiPcEE10deallocateEPS3_m
__ZN9__gnu_cxx13new_allocatorISt4pairIiPcEE10deallocateEPS3_m:
LFB6281:
	pushq	%rbp
LCFI1268:
	movq	%rsp, %rbp
LCFI1269:
	subq	$32, %rsp
	movq	%rdi, -8(%rbp)
	movq	%rsi, -16(%rbp)
	movq	%rdx, -24(%rbp)
	movq	-16(%rbp), %rax
	movq	%rax, %rdi
	call	__ZdlPv
	nop
	leave
LCFI1270:
	ret
LFE6281:
	.globl __ZNSt12_Destroy_auxILb1EE9__destroyIPSt4pairIiPcEEEvT_S6_
	.weak_definition __ZNSt12_Destroy_auxILb1EE9__destroyIPSt4pairIiPcEEEvT_S6_
__ZNSt12_Destroy_auxILb1EE9__destroyIPSt4pairIiPcEEEvT_S6_:
LFB6282:
	pushq	%rbp
LCFI1271:
	movq	%rsp, %rbp
LCFI1272:
	movq	%rdi, -8(%rbp)
	movq	%rsi, -16(%rbp)
	nop
	popq	%rbp
LCFI1273:
	ret
LFE6282:
	.align 1
	.globl __ZN9__gnu_cxx13new_allocatorINSt7__cxx1112basic_stringIcSt11char_traitsIcESaIcEEEE10deallocateEPS6_m
	.weak_definition __ZN9__gnu_cxx13new_allocatorINSt7__cxx1112basic_stringIcSt11char_traitsIcESaIcEEEE10deallocateEPS6_m
__ZN9__gnu_cxx13new_allocatorINSt7__cxx1112basic_stringIcSt11char_traitsIcESaIcEEEE10deallocateEPS6_m:
LFB6283:
	pushq	%rbp
LCFI1274:
	movq	%rsp, %rbp
LCFI1275:
	subq	$32, %rsp
	movq	%rdi, -8(%rbp)
	movq	%rsi, -16(%rbp)
	movq	%rdx, -24(%rbp)
	movq	-16(%rbp), %rax
	movq	%rax, %rdi
	call	__ZdlPv
	nop
	leave
LCFI1276:
	ret
LFE6283:
	.globl __ZNSt12_Destroy_auxILb0EE9__destroyIPNSt7__cxx1112basic_stringIcSt11char_traitsIcESaIcEEEEEvT_S9_
	.weak_definition __ZNSt12_Destroy_auxILb0EE9__destroyIPNSt7__cxx1112basic_stringIcSt11char_traitsIcESaIcEEEEEvT_S9_
__ZNSt12_Destroy_auxILb0EE9__destroyIPNSt7__cxx1112basic_stringIcSt11char_traitsIcESaIcEEEEEvT_S9_:
LFB6284:
	pushq	%rbp
LCFI1277:
	movq	%rsp, %rbp
LCFI1278:
	subq	$16, %rsp
	movq	%rdi, -8(%rbp)
	movq	%rsi, -16(%rbp)
L868:
	movq	-8(%rbp), %rax
	cmpq	-16(%rbp), %rax
	je	L869
	movq	-8(%rbp), %rax
	movq	%rax, %rdi
	call	__ZSt11__addressofINSt7__cxx1112basic_stringIcSt11char_traitsIcESaIcEEEEPT_RS6_
	movq	%rax, %rdi
	call	__ZSt8_DestroyINSt7__cxx1112basic_stringIcSt11char_traitsIcESaIcEEEEvPT_
	addq	$32, -8(%rbp)
	jmp	L868
L869:
	nop
	leave
LCFI1279:
	ret
LFE6284:
	.align 1
	.globl __ZNKSt6vectorINSt7__cxx1112basic_stringIcSt11char_traitsIcESaIcEEESaIS5_EE8max_sizeEv
	.weak_definition __ZNKSt6vectorINSt7__cxx1112basic_stringIcSt11char_traitsIcESaIcEEESaIS5_EE8max_sizeEv
__ZNKSt6vectorINSt7__cxx1112basic_stringIcSt11char_traitsIcESaIcEEESaIS5_EE8max_sizeEv:
LFB6285:
	pushq	%rbp
LCFI1280:
	movq	%rsp, %rbp
LCFI1281:
	subq	$16, %rsp
	movq	%rdi, -8(%rbp)
	movq	-8(%rbp), %rax
	movq	%rax, %rdi
	call	__ZNKSt12_Vector_baseINSt7__cxx1112basic_stringIcSt11char_traitsIcESaIcEEESaIS5_EE19_M_get_Tp_allocatorEv
	movq	%rax, %rdi
	call	__ZNSt6vectorINSt7__cxx1112basic_stringIcSt11char_traitsIcESaIcEEESaIS5_EE11_S_max_sizeERKS6_
	leave
LCFI1282:
	ret
LFE6285:
	.globl __ZNSt16allocator_traitsISaINSt7__cxx1112basic_stringIcSt11char_traitsIcESaIcEEEEE8allocateERS6_m
	.weak_definition __ZNSt16allocator_traitsISaINSt7__cxx1112basic_stringIcSt11char_traitsIcESaIcEEEEE8allocateERS6_m
__ZNSt16allocator_traitsISaINSt7__cxx1112basic_stringIcSt11char_traitsIcESaIcEEEEE8allocateERS6_m:
LFB6286:
	pushq	%rbp
LCFI1283:
	movq	%rsp, %rbp
LCFI1284:
	subq	$16, %rsp
	movq	%rdi, -8(%rbp)
	movq	%rsi, -16(%rbp)
	movq	-16(%rbp), %rcx
	movq	-8(%rbp), %rax
	movl	$0, %edx
	movq	%rcx, %rsi
	movq	%rax, %rdi
	call	__ZN9__gnu_cxx13new_allocatorINSt7__cxx1112basic_stringIcSt11char_traitsIcESaIcEEEE8allocateEmPKv
	leave
LCFI1285:
	ret
LFE6286:
	.globl __ZNSt6vectorINSt7__cxx1112basic_stringIcSt11char_traitsIcESaIcEEESaIS5_EE14_S_do_relocateEPS5_S8_S8_RS6_St17integral_constantIbLb1EE
	.weak_definition __ZNSt6vectorINSt7__cxx1112basic_stringIcSt11char_traitsIcESaIcEEESaIS5_EE14_S_do_relocateEPS5_S8_S8_RS6_St17integral_constantIbLb1EE
__ZNSt6vectorINSt7__cxx1112basic_stringIcSt11char_traitsIcESaIcEEESaIS5_EE14_S_do_relocateEPS5_S8_S8_RS6_St17integral_constantIbLb1EE:
LFB6287:
	pushq	%rbp
LCFI1286:
	movq	%rsp, %rbp
LCFI1287:
	subq	$32, %rsp
	movq	%rdi, -8(%rbp)
	movq	%rsi, -16(%rbp)
	movq	%rdx, -24(%rbp)
	movq	%rcx, -32(%rbp)
	movq	-32(%rbp), %rcx
	movq	-24(%rbp), %rdx
	movq	-16(%rbp), %rsi
	movq	-8(%rbp), %rax
	movq	%rax, %rdi
	call	__ZSt12__relocate_aIPNSt7__cxx1112basic_stringIcSt11char_traitsIcESaIcEEES6_SaIS5_EET0_T_S9_S8_RT1_
	leave
LCFI1288:
	ret
LFE6287:
	.globl __ZSt32__make_move_if_noexcept_iteratorINSt7__cxx1112basic_stringIcSt11char_traitsIcESaIcEEESt13move_iteratorIPS5_EET0_PT_
	.weak_definition __ZSt32__make_move_if_noexcept_iteratorINSt7__cxx1112basic_stringIcSt11char_traitsIcESaIcEEESt13move_iteratorIPS5_EET0_PT_
__ZSt32__make_move_if_noexcept_iteratorINSt7__cxx1112basic_stringIcSt11char_traitsIcESaIcEEESt13move_iteratorIPS5_EET0_PT_:
LFB6288:
	pushq	%rbp
LCFI1289:
	movq	%rsp, %rbp
LCFI1290:
	subq	$32, %rsp
	movq	%rdi, -24(%rbp)
	movq	-24(%rbp), %rdx
	leaq	-8(%rbp), %rax
	movq	%rdx, %rsi
	movq	%rax, %rdi
	call	__ZNSt13move_iteratorIPNSt7__cxx1112basic_stringIcSt11char_traitsIcESaIcEEEEC1ES6_
	movq	-8(%rbp), %rax
	leave
LCFI1291:
	ret
LFE6288:
	.globl __ZSt22__uninitialized_copy_aISt13move_iteratorIPNSt7__cxx1112basic_stringIcSt11char_traitsIcESaIcEEEES7_S6_ET0_T_SA_S9_RSaIT1_E
	.weak_definition __ZSt22__uninitialized_copy_aISt13move_iteratorIPNSt7__cxx1112basic_stringIcSt11char_traitsIcESaIcEEEES7_S6_ET0_T_SA_S9_RSaIT1_E
__ZSt22__uninitialized_copy_aISt13move_iteratorIPNSt7__cxx1112basic_stringIcSt11char_traitsIcESaIcEEEES7_S6_ET0_T_SA_S9_RSaIT1_E:
LFB6289:
	pushq	%rbp
LCFI1292:
	movq	%rsp, %rbp
LCFI1293:
	subq	$32, %rsp
	movq	%rdi, -8(%rbp)
	movq	%rsi, -16(%rbp)
	movq	%rdx, -24(%rbp)
	movq	%rcx, -32(%rbp)
	movq	-24(%rbp), %rdx
	movq	-16(%rbp), %rcx
	movq	-8(%rbp), %rax
	movq	%rcx, %rsi
	movq	%rax, %rdi
	call	__ZSt18uninitialized_copyISt13move_iteratorIPNSt7__cxx1112basic_stringIcSt11char_traitsIcESaIcEEEES7_ET0_T_SA_S9_
	leave
LCFI1294:
	ret
LFE6289:
	.align 1
	.globl __ZN9__gnu_cxx13new_allocatorINSt7__cxx1112basic_stringIcSt11char_traitsIcESaIcEEEE7destroyIS6_EEvPT_
	.weak_definition __ZN9__gnu_cxx13new_allocatorINSt7__cxx1112basic_stringIcSt11char_traitsIcESaIcEEEE7destroyIS6_EEvPT_
__ZN9__gnu_cxx13new_allocatorINSt7__cxx1112basic_stringIcSt11char_traitsIcESaIcEEEE7destroyIS6_EEvPT_:
LFB6290:
	pushq	%rbp
LCFI1295:
	movq	%rsp, %rbp
LCFI1296:
	subq	$16, %rsp
	movq	%rdi, -8(%rbp)
	movq	%rsi, -16(%rbp)
	movq	-16(%rbp), %rax
	movq	%rax, %rdi
	call	__ZNSt7__cxx1112basic_stringIcSt11char_traitsIcESaIcEED1Ev
	nop
	leave
LCFI1297:
	ret
LFE6290:
	.align 1
	.globl __ZN9__gnu_cxx13new_allocatorINSt7__cxx1112basic_stringIcSt11char_traitsIcESaIcEEEE9constructIS6_JS6_EEEvPT_DpOT0_
	.weak_definition __ZN9__gnu_cxx13new_allocatorINSt7__cxx1112basic_stringIcSt11char_traitsIcESaIcEEEE9constructIS6_JS6_EEEvPT_DpOT0_
__ZN9__gnu_cxx13new_allocatorINSt7__cxx1112basic_stringIcSt11char_traitsIcESaIcEEEE9constructIS6_JS6_EEEvPT_DpOT0_:
LFB6291:
	pushq	%rbp
LCFI1298:
	movq	%rsp, %rbp
LCFI1299:
	pushq	%rbx
	subq	$40, %rsp
LCFI1300:
	movq	%rdi, -24(%rbp)
	movq	%rsi, -32(%rbp)
	movq	%rdx, -40(%rbp)
	movq	-40(%rbp), %rax
	movq	%rax, %rdi
	call	__ZSt7forwardINSt7__cxx1112basic_stringIcSt11char_traitsIcESaIcEEEEOT_RNSt16remove_referenceIS6_E4typeE
	movq	%rax, %rbx
	movq	-32(%rbp), %rax
	movq	%rax, %rsi
	movl	$32, %edi
	call	__ZnwmPv
	movq	%rbx, %rsi
	movq	%rax, %rdi
	call	__ZNSt7__cxx1112basic_stringIcSt11char_traitsIcESaIcEEC1EOS4_
	nop
	addq	$40, %rsp
	popq	%rbx
	popq	%rbp
LCFI1301:
	ret
LFE6291:
	.align 1
	.globl __ZNSt8_Rb_treeINSt7__cxx1112basic_stringIcSt11char_traitsIcESaIcEEESt4pairIKS5_S6_IibEESt10_Select1stIS9_ESt4lessIS5_ESaIS9_EE15_M_destroy_nodeEPSt13_Rb_tree_nodeIS9_E
	.weak_definition __ZNSt8_Rb_treeINSt7__cxx1112basic_stringIcSt11char_traitsIcESaIcEEESt4pairIKS5_S6_IibEESt10_Select1stIS9_ESt4lessIS5_ESaIS9_EE15_M_destroy_nodeEPSt13_Rb_tree_nodeIS9_E
__ZNSt8_Rb_treeINSt7__cxx1112basic_stringIcSt11char_traitsIcESaIcEEESt4pairIKS5_S6_IibEESt10_Select1stIS9_ESt4lessIS5_ESaIS9_EE15_M_destroy_nodeEPSt13_Rb_tree_nodeIS9_E:
LFB6298:
	pushq	%rbp
LCFI1302:
	movq	%rsp, %rbp
LCFI1303:
	pushq	%rbx
	subq	$24, %rsp
LCFI1304:
	movq	%rdi, -24(%rbp)
	movq	%rsi, -32(%rbp)
	movq	-32(%rbp), %rax
	movq	%rax, %rdi
	call	__ZNSt13_Rb_tree_nodeISt4pairIKNSt7__cxx1112basic_stringIcSt11char_traitsIcESaIcEEES0_IibEEE9_M_valptrEv
	movq	%rax, %rbx
	movq	-24(%rbp), %rax
	movq	%rax, %rdi
	call	__ZNSt8_Rb_treeINSt7__cxx1112basic_stringIcSt11char_traitsIcESaIcEEESt4pairIKS5_S6_IibEESt10_Select1stIS9_ESt4lessIS5_ESaIS9_EE21_M_get_Node_allocatorEv
	movq	%rbx, %rsi
	movq	%rax, %rdi
	call	__ZNSt16allocator_traitsISaISt13_Rb_tree_nodeISt4pairIKNSt7__cxx1112basic_stringIcSt11char_traitsIcESaIcEEES1_IibEEEEE7destroyISA_EEvRSC_PT_
	nop
	addq	$24, %rsp
	popq	%rbx
	popq	%rbp
LCFI1305:
	ret
LFE6298:
	.align 1
	.globl __ZNSt8_Rb_treeINSt7__cxx1112basic_stringIcSt11char_traitsIcESaIcEEESt4pairIKS5_S6_IibEESt10_Select1stIS9_ESt4lessIS5_ESaIS9_EE11_M_put_nodeEPSt13_Rb_tree_nodeIS9_E
	.weak_definition __ZNSt8_Rb_treeINSt7__cxx1112basic_stringIcSt11char_traitsIcESaIcEEESt4pairIKS5_S6_IibEESt10_Select1stIS9_ESt4lessIS5_ESaIS9_EE11_M_put_nodeEPSt13_Rb_tree_nodeIS9_E
__ZNSt8_Rb_treeINSt7__cxx1112basic_stringIcSt11char_traitsIcESaIcEEESt4pairIKS5_S6_IibEESt10_Select1stIS9_ESt4lessIS5_ESaIS9_EE11_M_put_nodeEPSt13_Rb_tree_nodeIS9_E:
LFB6299:
	pushq	%rbp
LCFI1306:
	movq	%rsp, %rbp
LCFI1307:
	subq	$16, %rsp
	movq	%rdi, -8(%rbp)
	movq	%rsi, -16(%rbp)
	movq	-8(%rbp), %rax
	movq	%rax, %rdi
	call	__ZNSt8_Rb_treeINSt7__cxx1112basic_stringIcSt11char_traitsIcESaIcEEESt4pairIKS5_S6_IibEESt10_Select1stIS9_ESt4lessIS5_ESaIS9_EE21_M_get_Node_allocatorEv
	movq	%rax, %rcx
	movq	-16(%rbp), %rax
	movl	$1, %edx
	movq	%rax, %rsi
	movq	%rcx, %rdi
	call	__ZNSt16allocator_traitsISaISt13_Rb_tree_nodeISt4pairIKNSt7__cxx1112basic_stringIcSt11char_traitsIcESaIcEEES1_IibEEEEE10deallocateERSC_PSB_m
	nop
	leave
LCFI1308:
	ret
LFE6299:
	.section __DATA,__gcc_except_tab
GCC_except_table37:
LLSDA6299:
	.byte	0xff
	.byte	0x3
	.byte	0
	.section __TEXT,__textcoal_nt,coalesced,pure_instructions
	.align 1
	.globl __ZNSt8_Rb_treeINSt7__cxx1112basic_stringIcSt11char_traitsIcESaIcEEESt4pairIKS5_S6_IibEESt10_Select1stIS9_ESt4lessIS5_ESaIS9_EE11_M_get_nodeEv
	.weak_definition __ZNSt8_Rb_treeINSt7__cxx1112basic_stringIcSt11char_traitsIcESaIcEEESt4pairIKS5_S6_IibEESt10_Select1stIS9_ESt4lessIS5_ESaIS9_EE11_M_get_nodeEv
__ZNSt8_Rb_treeINSt7__cxx1112basic_stringIcSt11char_traitsIcESaIcEEESt4pairIKS5_S6_IibEESt10_Select1stIS9_ESt4lessIS5_ESaIS9_EE11_M_get_nodeEv:
LFB6300:
	pushq	%rbp
LCFI1309:
	movq	%rsp, %rbp
LCFI1310:
	subq	$16, %rsp
	movq	%rdi, -8(%rbp)
	movq	-8(%rbp), %rax
	movq	%rax, %rdi
	call	__ZNSt8_Rb_treeINSt7__cxx1112basic_stringIcSt11char_traitsIcESaIcEEESt4pairIKS5_S6_IibEESt10_Select1stIS9_ESt4lessIS5_ESaIS9_EE21_M_get_Node_allocatorEv
	movl	$1, %esi
	movq	%rax, %rdi
	call	__ZNSt16allocator_traitsISaISt13_Rb_tree_nodeISt4pairIKNSt7__cxx1112basic_stringIcSt11char_traitsIcESaIcEEES1_IibEEEEE8allocateERSC_m
	leave
LCFI1311:
	ret
LFE6300:
	.align 1
	.globl __ZNSt8_Rb_treeINSt7__cxx1112basic_stringIcSt11char_traitsIcESaIcEEESt4pairIKS5_S6_IibEESt10_Select1stIS9_ESt4lessIS5_ESaIS9_EE17_M_construct_nodeIJS6_IS5_S8_EEEEvPSt13_Rb_tree_nodeIS9_EDpOT_
	.weak_definition __ZNSt8_Rb_treeINSt7__cxx1112basic_stringIcSt11char_traitsIcESaIcEEESt4pairIKS5_S6_IibEESt10_Select1stIS9_ESt4lessIS5_ESaIS9_EE17_M_construct_nodeIJS6_IS5_S8_EEEEvPSt13_Rb_tree_nodeIS9_EDpOT_
__ZNSt8_Rb_treeINSt7__cxx1112basic_stringIcSt11char_traitsIcESaIcEEESt4pairIKS5_S6_IibEESt10_Select1stIS9_ESt4lessIS5_ESaIS9_EE17_M_construct_nodeIJS6_IS5_S8_EEEEvPSt13_Rb_tree_nodeIS9_EDpOT_:
LFB6301:
	pushq	%rbp
LCFI1312:
	movq	%rsp, %rbp
LCFI1313:
	pushq	%r12
	pushq	%rbx
	subq	$32, %rsp
LCFI1314:
	movq	%rdi, -24(%rbp)
	movq	%rsi, -32(%rbp)
	movq	%rdx, -40(%rbp)
	movq	-32(%rbp), %rax
	movq	%rax, %rsi
	movl	$72, %edi
	call	__ZnwmPv
	movq	-40(%rbp), %rax
	movq	%rax, %rdi
	call	__ZSt7forwardISt4pairINSt7__cxx1112basic_stringIcSt11char_traitsIcESaIcEEES0_IibEEEOT_RNSt16remove_referenceIS9_E4typeE
	movq	%rax, %r12
	movq	-32(%rbp), %rax
	movq	%rax, %rdi
	call	__ZNSt13_Rb_tree_nodeISt4pairIKNSt7__cxx1112basic_stringIcSt11char_traitsIcESaIcEEES0_IibEEE9_M_valptrEv
	movq	%rax, %rbx
	movq	-24(%rbp), %rax
	movq	%rax, %rdi
	call	__ZNSt8_Rb_treeINSt7__cxx1112basic_stringIcSt11char_traitsIcESaIcEEESt4pairIKS5_S6_IibEESt10_Select1stIS9_ESt4lessIS5_ESaIS9_EE21_M_get_Node_allocatorEv
	movq	%r12, %rdx
	movq	%rbx, %rsi
	movq	%rax, %rdi
LEHB88:
	call	__ZNSt16allocator_traitsISaISt13_Rb_tree_nodeISt4pairIKNSt7__cxx1112basic_stringIcSt11char_traitsIcESaIcEEES1_IibEEEEE9constructISA_JS1_IS7_S9_EEEEvRSC_PT_DpOT0_
LEHE88:
	jmp	L891
L889:
	movq	%rax, %rdi
	call	___cxa_begin_catch
	movq	-32(%rbp), %rdx
	movq	-24(%rbp), %rax
	movq	%rdx, %rsi
	movq	%rax, %rdi
	call	__ZNSt8_Rb_treeINSt7__cxx1112basic_stringIcSt11char_traitsIcESaIcEEESt4pairIKS5_S6_IibEESt10_Select1stIS9_ESt4lessIS5_ESaIS9_EE11_M_put_nodeEPSt13_Rb_tree_nodeIS9_E
LEHB89:
	call	___cxa_rethrow
LEHE89:
L890:
	movq	%rax, %rbx
	call	___cxa_end_catch
	movq	%rbx, %rax
	movq	%rax, %rdi
LEHB90:
	call	__Unwind_Resume
LEHE90:
L891:
	addq	$32, %rsp
	popq	%rbx
	popq	%r12
	popq	%rbp
LCFI1315:
	ret
LFE6301:
	.section __DATA,__gcc_except_tab
GCC_except_table38:
	.align 3
LLSDA6301:
	.byte	0xff
	.byte	0
	.byte	0x35
	.byte	0x3
	.byte	0x27
	.set L$set$230,LEHB88-LFB6301
	.long L$set$230
	.set L$set$231,LEHE88-LEHB88
	.long L$set$231
	.set L$set$232,L889-LFB6301
	.long L$set$232
	.byte	0x1
	.set L$set$233,LEHB89-LFB6301
	.long L$set$233
	.set L$set$234,LEHE89-LEHB89
	.long L$set$234
	.set L$set$235,L890-LFB6301
	.long L$set$235
	.byte	0
	.set L$set$236,LEHB90-LFB6301
	.long L$set$236
	.set L$set$237,LEHE90-LEHB90
	.long L$set$237
	.long	0
	.byte	0
	.byte	0x1
	.byte	0
	.align 3
	.quad	0
	.section __TEXT,__textcoal_nt,coalesced,pure_instructions
	.align 1
	.globl __ZNSt8_Rb_treeINSt7__cxx1112basic_stringIcSt11char_traitsIcESaIcEEESt4pairIKS5_S6_IibEESt10_Select1stIS9_ESt4lessIS5_ESaIS9_EE6_M_endEv
	.weak_definition __ZNSt8_Rb_treeINSt7__cxx1112basic_stringIcSt11char_traitsIcESaIcEEESt4pairIKS5_S6_IibEESt10_Select1stIS9_ESt4lessIS5_ESaIS9_EE6_M_endEv
__ZNSt8_Rb_treeINSt7__cxx1112basic_stringIcSt11char_traitsIcESaIcEEESt4pairIKS5_S6_IibEESt10_Select1stIS9_ESt4lessIS5_ESaIS9_EE6_M_endEv:
LFB6302:
	pushq	%rbp
LCFI1316:
	movq	%rsp, %rbp
LCFI1317:
	movq	%rdi, -8(%rbp)
	movq	-8(%rbp), %rax
	addq	$8, %rax
	popq	%rbp
LCFI1318:
	ret
LFE6302:
	.align 1
	.globl __ZNKSt4lessINSt7__cxx1112basic_stringIcSt11char_traitsIcESaIcEEEEclERKS5_S8_
	.weak_definition __ZNKSt4lessINSt7__cxx1112basic_stringIcSt11char_traitsIcESaIcEEEEclERKS5_S8_
__ZNKSt4lessINSt7__cxx1112basic_stringIcSt11char_traitsIcESaIcEEEEclERKS5_S8_:
LFB6303:
	pushq	%rbp
LCFI1319:
	movq	%rsp, %rbp
LCFI1320:
	subq	$32, %rsp
	movq	%rdi, -8(%rbp)
	movq	%rsi, -16(%rbp)
	movq	%rdx, -24(%rbp)
	movq	-24(%rbp), %rdx
	movq	-16(%rbp), %rax
	movq	%rdx, %rsi
	movq	%rax, %rdi
	call	__ZStltIcSt11char_traitsIcESaIcEEbRKNSt7__cxx1112basic_stringIT_T0_T1_EESA_
	leave
LCFI1321:
	ret
LFE6303:
	.align 1
	.globl __ZNSt8_Rb_treeINSt7__cxx1112basic_stringIcSt11char_traitsIcESaIcEEESt4pairIKS5_S6_IibEESt10_Select1stIS9_ESt4lessIS5_ESaIS9_EE5beginEv
	.weak_definition __ZNSt8_Rb_treeINSt7__cxx1112basic_stringIcSt11char_traitsIcESaIcEEESt4pairIKS5_S6_IibEESt10_Select1stIS9_ESt4lessIS5_ESaIS9_EE5beginEv
__ZNSt8_Rb_treeINSt7__cxx1112basic_stringIcSt11char_traitsIcESaIcEEESt4pairIKS5_S6_IibEESt10_Select1stIS9_ESt4lessIS5_ESaIS9_EE5beginEv:
LFB6304:
	pushq	%rbp
LCFI1322:
	movq	%rsp, %rbp
LCFI1323:
	subq	$32, %rsp
	movq	%rdi, -24(%rbp)
	movq	-24(%rbp), %rax
	movq	24(%rax), %rdx
	leaq	-8(%rbp), %rax
	movq	%rdx, %rsi
	movq	%rax, %rdi
	call	__ZNSt17_Rb_tree_iteratorISt4pairIKNSt7__cxx1112basic_stringIcSt11char_traitsIcESaIcEEES0_IibEEEC1EPSt18_Rb_tree_node_base
	movq	-8(%rbp), %rax
	leave
LCFI1324:
	ret
LFE6304:
	.globl __ZSteqRKSt17_Rb_tree_iteratorISt4pairIKNSt7__cxx1112basic_stringIcSt11char_traitsIcESaIcEEES0_IibEEESC_
	.weak_definition __ZSteqRKSt17_Rb_tree_iteratorISt4pairIKNSt7__cxx1112basic_stringIcSt11char_traitsIcESaIcEEES0_IibEEESC_
__ZSteqRKSt17_Rb_tree_iteratorISt4pairIKNSt7__cxx1112basic_stringIcSt11char_traitsIcESaIcEEES0_IibEEESC_:
LFB6305:
	pushq	%rbp
LCFI1325:
	movq	%rsp, %rbp
LCFI1326:
	movq	%rdi, -8(%rbp)
	movq	%rsi, -16(%rbp)
	movq	-8(%rbp), %rax
	movq	(%rax), %rdx
	movq	-16(%rbp), %rax
	movq	(%rax), %rax
	cmpq	%rax, %rdx
	sete	%al
	popq	%rbp
LCFI1327:
	ret
LFE6305:
	.align 1
	.globl __ZNSt4pairIPSt18_Rb_tree_node_baseS1_EC1IRPSt13_Rb_tree_nodeIS_IKNSt7__cxx1112basic_stringIcSt11char_traitsIcESaIcEEES_IibEEERS1_Lb1EEEOT_OT0_
	.weak_definition __ZNSt4pairIPSt18_Rb_tree_node_baseS1_EC1IRPSt13_Rb_tree_nodeIS_IKNSt7__cxx1112basic_stringIcSt11char_traitsIcESaIcEEES_IibEEERS1_Lb1EEEOT_OT0_
__ZNSt4pairIPSt18_Rb_tree_node_baseS1_EC1IRPSt13_Rb_tree_nodeIS_IKNSt7__cxx1112basic_stringIcSt11char_traitsIcESaIcEEES_IibEEERS1_Lb1EEEOT_OT0_:
LFB6308:
	pushq	%rbp
LCFI1328:
	movq	%rsp, %rbp
LCFI1329:
	subq	$32, %rsp
	movq	%rdi, -8(%rbp)
	movq	%rsi, -16(%rbp)
	movq	%rdx, -24(%rbp)
	movq	-16(%rbp), %rax
	movq	%rax, %rdi
	call	__ZSt7forwardIRPSt13_Rb_tree_nodeISt4pairIKNSt7__cxx1112basic_stringIcSt11char_traitsIcESaIcEEES1_IibEEEEOT_RNSt16remove_referenceISE_E4typeE
	movq	(%rax), %rdx
	movq	-8(%rbp), %rax
	movq	%rdx, (%rax)
	movq	-24(%rbp), %rax
	movq	%rax, %rdi
	call	__ZSt7forwardIRPSt18_Rb_tree_node_baseEOT_RNSt16remove_referenceIS3_E4typeE
	movq	(%rax), %rdx
	movq	-8(%rbp), %rax
	movq	%rdx, 8(%rax)
	nop
	leave
LCFI1330:
	ret
LFE6308:
	.align 1
	.globl __ZNSt17_Rb_tree_iteratorISt4pairIKNSt7__cxx1112basic_stringIcSt11char_traitsIcESaIcEEES0_IibEEEmmEv
	.weak_definition __ZNSt17_Rb_tree_iteratorISt4pairIKNSt7__cxx1112basic_stringIcSt11char_traitsIcESaIcEEES0_IibEEEmmEv
__ZNSt17_Rb_tree_iteratorISt4pairIKNSt7__cxx1112basic_stringIcSt11char_traitsIcESaIcEEES0_IibEEEmmEv:
LFB6309:
	pushq	%rbp
LCFI1331:
	movq	%rsp, %rbp
LCFI1332:
	subq	$16, %rsp
	movq	%rdi, -8(%rbp)
	movq	-8(%rbp), %rax
	movq	(%rax), %rax
	movq	%rax, %rdi
	call	__ZSt18_Rb_tree_decrementPSt18_Rb_tree_node_base
	movq	-8(%rbp), %rdx
	movq	%rax, (%rdx)
	movq	-8(%rbp), %rax
	leave
LCFI1333:
	ret
LFE6309:
	.globl __ZNSt8_Rb_treeINSt7__cxx1112basic_stringIcSt11char_traitsIcESaIcEEESt4pairIKS5_S6_IibEESt10_Select1stIS9_ESt4lessIS5_ESaIS9_EE6_S_keyEPKSt18_Rb_tree_node_base
	.weak_definition __ZNSt8_Rb_treeINSt7__cxx1112basic_stringIcSt11char_traitsIcESaIcEEESt4pairIKS5_S6_IibEESt10_Select1stIS9_ESt4lessIS5_ESaIS9_EE6_S_keyEPKSt18_Rb_tree_node_base
__ZNSt8_Rb_treeINSt7__cxx1112basic_stringIcSt11char_traitsIcESaIcEEESt4pairIKS5_S6_IibEESt10_Select1stIS9_ESt4lessIS5_ESaIS9_EE6_S_keyEPKSt18_Rb_tree_node_base:
LFB6310:
	pushq	%rbp
LCFI1334:
	movq	%rsp, %rbp
LCFI1335:
	subq	$32, %rsp
	movq	%rdi, -24(%rbp)
	movq	-24(%rbp), %rax
	movq	%rax, %rdi
	call	__ZNSt8_Rb_treeINSt7__cxx1112basic_stringIcSt11char_traitsIcESaIcEEESt4pairIKS5_S6_IibEESt10_Select1stIS9_ESt4lessIS5_ESaIS9_EE8_S_valueEPKSt18_Rb_tree_node_base
	movq	%rax, %rdx
	leaq	-1(%rbp), %rax
	movq	%rdx, %rsi
	movq	%rax, %rdi
	call	__ZNKSt10_Select1stISt4pairIKNSt7__cxx1112basic_stringIcSt11char_traitsIcESaIcEEES0_IibEEEclERKS9_
	leave
LCFI1336:
	ret
LFE6310:
	.align 1
	.globl __ZNSt4pairIPSt18_Rb_tree_node_baseS1_EC1IRS1_Lb1EEEOT_RKS1_
	.weak_definition __ZNSt4pairIPSt18_Rb_tree_node_baseS1_EC1IRS1_Lb1EEEOT_RKS1_
__ZNSt4pairIPSt18_Rb_tree_node_baseS1_EC1IRS1_Lb1EEEOT_RKS1_:
LFB6313:
	pushq	%rbp
LCFI1337:
	movq	%rsp, %rbp
LCFI1338:
	subq	$32, %rsp
	movq	%rdi, -8(%rbp)
	movq	%rsi, -16(%rbp)
	movq	%rdx, -24(%rbp)
	movq	-16(%rbp), %rax
	movq	%rax, %rdi
	call	__ZSt7forwardIRPSt18_Rb_tree_node_baseEOT_RNSt16remove_referenceIS3_E4typeE
	movq	(%rax), %rdx
	movq	-8(%rbp), %rax
	movq	%rdx, (%rax)
	movq	-24(%rbp), %rax
	movq	(%rax), %rdx
	movq	-8(%rbp), %rax
	movq	%rdx, 8(%rax)
	nop
	leave
LCFI1339:
	ret
LFE6313:
	.globl __ZNSt8_Rb_treeINSt7__cxx1112basic_stringIcSt11char_traitsIcESaIcEEESt4pairIKS5_S6_IibEESt10_Select1stIS9_ESt4lessIS5_ESaIS9_EE8_S_valueEPKSt13_Rb_tree_nodeIS9_E
	.weak_definition __ZNSt8_Rb_treeINSt7__cxx1112basic_stringIcSt11char_traitsIcESaIcEEESt4pairIKS5_S6_IibEESt10_Select1stIS9_ESt4lessIS5_ESaIS9_EE8_S_valueEPKSt13_Rb_tree_nodeIS9_E
__ZNSt8_Rb_treeINSt7__cxx1112basic_stringIcSt11char_traitsIcESaIcEEESt4pairIKS5_S6_IibEESt10_Select1stIS9_ESt4lessIS5_ESaIS9_EE8_S_valueEPKSt13_Rb_tree_nodeIS9_E:
LFB6314:
	pushq	%rbp
LCFI1340:
	movq	%rsp, %rbp
LCFI1341:
	subq	$16, %rsp
	movq	%rdi, -8(%rbp)
	movq	-8(%rbp), %rax
	movq	%rax, %rdi
	call	__ZNKSt13_Rb_tree_nodeISt4pairIKNSt7__cxx1112basic_stringIcSt11char_traitsIcESaIcEEES0_IibEEE9_M_valptrEv
	leave
LCFI1342:
	ret
LFE6314:
	.align 1
	.globl __ZNKSt10_Select1stISt4pairIKNSt7__cxx1112basic_stringIcSt11char_traitsIcESaIcEEES0_IibEEEclERKS9_
	.weak_definition __ZNKSt10_Select1stISt4pairIKNSt7__cxx1112basic_stringIcSt11char_traitsIcESaIcEEES0_IibEEEclERKS9_
__ZNKSt10_Select1stISt4pairIKNSt7__cxx1112basic_stringIcSt11char_traitsIcESaIcEEES0_IibEEEclERKS9_:
LFB6315:
	pushq	%rbp
LCFI1343:
	movq	%rsp, %rbp
LCFI1344:
	movq	%rdi, -8(%rbp)
	movq	%rsi, -16(%rbp)
	movq	-16(%rbp), %rax
	popq	%rbp
LCFI1345:
	ret
LFE6315:
	.globl __ZSt7forwardISt17_Rb_tree_iteratorISt4pairIKNSt7__cxx1112basic_stringIcSt11char_traitsIcESaIcEEES1_IibEEEEOT_RNSt16remove_referenceISC_E4typeE
	.weak_definition __ZSt7forwardISt17_Rb_tree_iteratorISt4pairIKNSt7__cxx1112basic_stringIcSt11char_traitsIcESaIcEEES1_IibEEEEOT_RNSt16remove_referenceISC_E4typeE
__ZSt7forwardISt17_Rb_tree_iteratorISt4pairIKNSt7__cxx1112basic_stringIcSt11char_traitsIcESaIcEEES1_IibEEEEOT_RNSt16remove_referenceISC_E4typeE:
LFB6316:
	pushq	%rbp
LCFI1346:
	movq	%rsp, %rbp
LCFI1347:
	movq	%rdi, -8(%rbp)
	movq	-8(%rbp), %rax
	popq	%rbp
LCFI1348:
	ret
LFE6316:
	.align 1
	.globl __ZN9__gnu_cxx13new_allocatorISt13_Rb_tree_nodeIiEEC2Ev
	.weak_definition __ZN9__gnu_cxx13new_allocatorISt13_Rb_tree_nodeIiEEC2Ev
__ZN9__gnu_cxx13new_allocatorISt13_Rb_tree_nodeIiEEC2Ev:
LFB6318:
	pushq	%rbp
LCFI1349:
	movq	%rsp, %rbp
LCFI1350:
	movq	%rdi, -8(%rbp)
	nop
	popq	%rbp
LCFI1351:
	ret
LFE6318:
	.align 1
	.globl __ZNSt17_Rb_tree_iteratorIiEC1EPSt18_Rb_tree_node_base
	.weak_definition __ZNSt17_Rb_tree_iteratorIiEC1EPSt18_Rb_tree_node_base
__ZNSt17_Rb_tree_iteratorIiEC1EPSt18_Rb_tree_node_base:
LFB6322:
	pushq	%rbp
LCFI1352:
	movq	%rsp, %rbp
LCFI1353:
	movq	%rdi, -8(%rbp)
	movq	%rsi, -16(%rbp)
	movq	-8(%rbp), %rax
	movq	-16(%rbp), %rdx
	movq	%rdx, (%rax)
	nop
	popq	%rbp
LCFI1354:
	ret
LFE6322:
	.align 1
	.globl __ZNSt8_Rb_treeIiiSt9_IdentityIiESt4lessIiESaIiEE29_M_get_insert_hint_unique_posESt23_Rb_tree_const_iteratorIiERKi
	.weak_definition __ZNSt8_Rb_treeIiiSt9_IdentityIiESt4lessIiESaIiEE29_M_get_insert_hint_unique_posESt23_Rb_tree_const_iteratorIiERKi
__ZNSt8_Rb_treeIiiSt9_IdentityIiESt4lessIiESaIiEE29_M_get_insert_hint_unique_posESt23_Rb_tree_const_iteratorIiERKi:
LFB6323:
	pushq	%rbp
LCFI1355:
	movq	%rsp, %rbp
LCFI1356:
	pushq	%rbx
	subq	$280, %rsp
LCFI1357:
	movq	%rdi, -264(%rbp)
	movq	%rsi, -272(%rbp)
	movq	%rdx, -280(%rbp)
	leaq	-272(%rbp), %rax
	movq	%rax, %rdi
	call	__ZNKSt23_Rb_tree_const_iteratorIiE13_M_const_castEv
	movq	%rax, -232(%rbp)
	movq	-232(%rbp), %rbx
	movq	-264(%rbp), %rax
	movq	%rax, %rdi
	call	__ZNSt8_Rb_treeIiiSt9_IdentityIiESt4lessIiESaIiEE6_M_endEv
	cmpq	%rax, %rbx
	sete	%al
	testb	%al, %al
	je	L915
	movq	-264(%rbp), %rax
	movq	%rax, %rdi
	call	__ZNKSt8_Rb_treeIiiSt9_IdentityIiESt4lessIiESaIiEE4sizeEv
	testq	%rax, %rax
	je	L916
	movq	-264(%rbp), %rbx
	movq	-264(%rbp), %rax
	movq	%rax, %rdi
	call	__ZNSt8_Rb_treeIiiSt9_IdentityIiESt4lessIiESaIiEE12_M_rightmostEv
	movq	(%rax), %rax
	movq	%rax, %rdi
	call	__ZNSt8_Rb_treeIiiSt9_IdentityIiESt4lessIiESaIiEE6_S_keyEPKSt18_Rb_tree_node_base
	movq	%rax, %rcx
	movq	-280(%rbp), %rax
	movq	%rax, %rdx
	movq	%rcx, %rsi
	movq	%rbx, %rdi
	call	__ZNKSt4lessIiEclERKiS2_
	testb	%al, %al
	je	L916
	movl	$1, %eax
	jmp	L917
L916:
	movl	$0, %eax
L917:
	testb	%al, %al
	je	L918
	movq	-264(%rbp), %rax
	movq	%rax, %rdi
	call	__ZNSt8_Rb_treeIiiSt9_IdentityIiESt4lessIiESaIiEE12_M_rightmostEv
	movq	%rax, %rdx
	movq	$0, -200(%rbp)
	leaq	-200(%rbp), %rcx
	leaq	-224(%rbp), %rax
	movq	%rcx, %rsi
	movq	%rax, %rdi
	call	__ZNSt4pairIPSt18_Rb_tree_node_baseS1_EC1IRS1_Lb1EEERKS1_OT_
	movq	-224(%rbp), %rax
	movq	-216(%rbp), %rdx
	jmp	L930
L918:
	movq	-280(%rbp), %rdx
	movq	-264(%rbp), %rax
	movq	%rdx, %rsi
	movq	%rax, %rdi
	call	__ZNSt8_Rb_treeIiiSt9_IdentityIiESt4lessIiESaIiEE24_M_get_insert_unique_posERKi
	jmp	L930
L915:
	movq	-264(%rbp), %rbx
	movq	-232(%rbp), %rax
	movq	%rax, %rdi
	call	__ZNSt8_Rb_treeIiiSt9_IdentityIiESt4lessIiESaIiEE6_S_keyEPKSt18_Rb_tree_node_base
	movq	%rax, %rdx
	movq	-280(%rbp), %rax
	movq	%rax, %rsi
	movq	%rbx, %rdi
	call	__ZNKSt4lessIiEclERKiS2_
	testb	%al, %al
	je	L920
	movq	-232(%rbp), %rax
	movq	%rax, -240(%rbp)
	movq	-232(%rbp), %rbx
	movq	-264(%rbp), %rax
	movq	%rax, %rdi
	call	__ZNSt8_Rb_treeIiiSt9_IdentityIiESt4lessIiESaIiEE11_M_leftmostEv
	movq	(%rax), %rax
	cmpq	%rax, %rbx
	sete	%al
	testb	%al, %al
	je	L921
	movq	-264(%rbp), %rax
	movq	%rax, %rdi
	call	__ZNSt8_Rb_treeIiiSt9_IdentityIiESt4lessIiESaIiEE11_M_leftmostEv
	movq	%rax, %rbx
	movq	-264(%rbp), %rax
	movq	%rax, %rdi
	call	__ZNSt8_Rb_treeIiiSt9_IdentityIiESt4lessIiESaIiEE11_M_leftmostEv
	movq	%rax, %rcx
	leaq	-192(%rbp), %rax
	movq	%rbx, %rdx
	movq	%rcx, %rsi
	movq	%rax, %rdi
	call	__ZNSt4pairIPSt18_Rb_tree_node_baseS1_EC1IRS1_S4_Lb1EEEOT_OT0_
	movq	-192(%rbp), %rax
	movq	-184(%rbp), %rdx
	jmp	L930
L921:
	movq	-264(%rbp), %rbx
	leaq	-240(%rbp), %rax
	movq	%rax, %rdi
	call	__ZNSt17_Rb_tree_iteratorIiEmmEv
	movq	(%rax), %rax
	movq	%rax, %rdi
	call	__ZNSt8_Rb_treeIiiSt9_IdentityIiESt4lessIiESaIiEE6_S_keyEPKSt18_Rb_tree_node_base
	movq	%rax, %rcx
	movq	-280(%rbp), %rax
	movq	%rax, %rdx
	movq	%rcx, %rsi
	movq	%rbx, %rdi
	call	__ZNKSt4lessIiEclERKiS2_
	testb	%al, %al
	je	L923
	movq	-240(%rbp), %rax
	movq	%rax, %rdi
	call	__ZNSt8_Rb_treeIiiSt9_IdentityIiESt4lessIiESaIiEE8_S_rightEPSt18_Rb_tree_node_base
	testq	%rax, %rax
	sete	%al
	testb	%al, %al
	je	L924
	movq	$0, -152(%rbp)
	leaq	-240(%rbp), %rdx
	leaq	-152(%rbp), %rcx
	leaq	-176(%rbp), %rax
	movq	%rcx, %rsi
	movq	%rax, %rdi
	call	__ZNSt4pairIPSt18_Rb_tree_node_baseS1_EC1IRS1_Lb1EEERKS1_OT_
	movq	-176(%rbp), %rax
	movq	-168(%rbp), %rdx
	jmp	L930
L924:
	leaq	-232(%rbp), %rdx
	leaq	-232(%rbp), %rcx
	leaq	-144(%rbp), %rax
	movq	%rcx, %rsi
	movq	%rax, %rdi
	call	__ZNSt4pairIPSt18_Rb_tree_node_baseS1_EC1IRS1_S4_Lb1EEEOT_OT0_
	movq	-144(%rbp), %rax
	movq	-136(%rbp), %rdx
	jmp	L930
L923:
	movq	-280(%rbp), %rdx
	movq	-264(%rbp), %rax
	movq	%rdx, %rsi
	movq	%rax, %rdi
	call	__ZNSt8_Rb_treeIiiSt9_IdentityIiESt4lessIiESaIiEE24_M_get_insert_unique_posERKi
	jmp	L930
L920:
	movq	-264(%rbp), %rbx
	movq	-232(%rbp), %rax
	movq	%rax, %rdi
	call	__ZNSt8_Rb_treeIiiSt9_IdentityIiESt4lessIiESaIiEE6_S_keyEPKSt18_Rb_tree_node_base
	movq	%rax, %rcx
	movq	-280(%rbp), %rax
	movq	%rax, %rdx
	movq	%rcx, %rsi
	movq	%rbx, %rdi
	call	__ZNKSt4lessIiEclERKiS2_
	testb	%al, %al
	je	L925
	movq	-232(%rbp), %rax
	movq	%rax, -248(%rbp)
	movq	-232(%rbp), %rbx
	movq	-264(%rbp), %rax
	movq	%rax, %rdi
	call	__ZNSt8_Rb_treeIiiSt9_IdentityIiESt4lessIiESaIiEE12_M_rightmostEv
	movq	(%rax), %rax
	cmpq	%rax, %rbx
	sete	%al
	testb	%al, %al
	je	L926
	movq	-264(%rbp), %rax
	movq	%rax, %rdi
	call	__ZNSt8_Rb_treeIiiSt9_IdentityIiESt4lessIiESaIiEE12_M_rightmostEv
	movq	%rax, %rdx
	movq	$0, -104(%rbp)
	leaq	-104(%rbp), %rcx
	leaq	-128(%rbp), %rax
	movq	%rcx, %rsi
	movq	%rax, %rdi
	call	__ZNSt4pairIPSt18_Rb_tree_node_baseS1_EC1IRS1_Lb1EEERKS1_OT_
	movq	-128(%rbp), %rax
	movq	-120(%rbp), %rdx
	jmp	L930
L926:
	movq	-264(%rbp), %rbx
	leaq	-248(%rbp), %rax
	movq	%rax, %rdi
	call	__ZNSt17_Rb_tree_iteratorIiEppEv
	movq	(%rax), %rax
	movq	%rax, %rdi
	call	__ZNSt8_Rb_treeIiiSt9_IdentityIiESt4lessIiESaIiEE6_S_keyEPKSt18_Rb_tree_node_base
	movq	%rax, %rdx
	movq	-280(%rbp), %rax
	movq	%rax, %rsi
	movq	%rbx, %rdi
	call	__ZNKSt4lessIiEclERKiS2_
	testb	%al, %al
	je	L928
	movq	-232(%rbp), %rax
	movq	%rax, %rdi
	call	__ZNSt8_Rb_treeIiiSt9_IdentityIiESt4lessIiESaIiEE8_S_rightEPSt18_Rb_tree_node_base
	testq	%rax, %rax
	sete	%al
	testb	%al, %al
	je	L929
	movq	$0, -72(%rbp)
	leaq	-232(%rbp), %rdx
	leaq	-72(%rbp), %rcx
	leaq	-96(%rbp), %rax
	movq	%rcx, %rsi
	movq	%rax, %rdi
	call	__ZNSt4pairIPSt18_Rb_tree_node_baseS1_EC1IRS1_Lb1EEERKS1_OT_
	movq	-96(%rbp), %rax
	movq	-88(%rbp), %rdx
	jmp	L930
L929:
	leaq	-248(%rbp), %rdx
	leaq	-248(%rbp), %rcx
	leaq	-64(%rbp), %rax
	movq	%rcx, %rsi
	movq	%rax, %rdi
	call	__ZNSt4pairIPSt18_Rb_tree_node_baseS1_EC1IRS1_S4_Lb1EEEOT_OT0_
	movq	-64(%rbp), %rax
	movq	-56(%rbp), %rdx
	jmp	L930
L928:
	movq	-280(%rbp), %rdx
	movq	-264(%rbp), %rax
	movq	%rdx, %rsi
	movq	%rax, %rdi
	call	__ZNSt8_Rb_treeIiiSt9_IdentityIiESt4lessIiESaIiEE24_M_get_insert_unique_posERKi
	jmp	L930
L925:
	movq	$0, -24(%rbp)
	leaq	-24(%rbp), %rdx
	leaq	-232(%rbp), %rcx
	leaq	-48(%rbp), %rax
	movq	%rcx, %rsi
	movq	%rax, %rdi
	call	__ZNSt4pairIPSt18_Rb_tree_node_baseS1_EC1IRS1_Lb1EEEOT_RKS1_
	movq	-48(%rbp), %rax
	movq	-40(%rbp), %rdx
L930:
	addq	$280, %rsp
	popq	%rbx
	popq	%rbp
LCFI1358:
	ret
LFE6323:
	.align 1
	.globl __ZNKSt9_IdentityIiEclERi
	.weak_definition __ZNKSt9_IdentityIiEclERi
__ZNKSt9_IdentityIiEclERi:
LFB6330:
	pushq	%rbp
LCFI1359:
	movq	%rsp, %rbp
LCFI1360:
	movq	%rdi, -8(%rbp)
	movq	%rsi, -16(%rbp)
	movq	-16(%rbp), %rax
	popq	%rbp
LCFI1361:
	ret
LFE6330:
	.align 1
	.globl __ZNSt8_Rb_treeIiiSt9_IdentityIiESt4lessIiESaIiEE10_M_insert_IRiNS5_11_Alloc_nodeEEESt17_Rb_tree_iteratorIiEPSt18_Rb_tree_node_baseSC_OT_RT0_
	.weak_definition __ZNSt8_Rb_treeIiiSt9_IdentityIiESt4lessIiESaIiEE10_M_insert_IRiNS5_11_Alloc_nodeEEESt17_Rb_tree_iteratorIiEPSt18_Rb_tree_node_baseSC_OT_RT0_
__ZNSt8_Rb_treeIiiSt9_IdentityIiESt4lessIiESaIiEE10_M_insert_IRiNS5_11_Alloc_nodeEEESt17_Rb_tree_iteratorIiEPSt18_Rb_tree_node_baseSC_OT_RT0_:
LFB6331:
	pushq	%rbp
LCFI1362:
	movq	%rsp, %rbp
LCFI1363:
	pushq	%r12
	pushq	%rbx
	subq	$80, %rsp
LCFI1364:
	movq	%rdi, -56(%rbp)
	movq	%rsi, -64(%rbp)
	movq	%rdx, -72(%rbp)
	movq	%rcx, -80(%rbp)
	movq	%r8, -88(%rbp)
	cmpq	$0, -64(%rbp)
	jne	L934
	movq	-56(%rbp), %rax
	movq	%rax, %rdi
	call	__ZNSt8_Rb_treeIiiSt9_IdentityIiESt4lessIiESaIiEE6_M_endEv
	cmpq	%rax, -72(%rbp)
	je	L934
	movq	-56(%rbp), %rbx
	movq	-72(%rbp), %rax
	movq	%rax, %rdi
	call	__ZNSt8_Rb_treeIiiSt9_IdentityIiESt4lessIiESaIiEE6_S_keyEPKSt18_Rb_tree_node_base
	movq	%rax, %r12
	movq	-80(%rbp), %rdx
	leaq	-41(%rbp), %rax
	movq	%rdx, %rsi
	movq	%rax, %rdi
	call	__ZNKSt9_IdentityIiEclERi
	movq	%r12, %rdx
	movq	%rax, %rsi
	movq	%rbx, %rdi
	call	__ZNKSt4lessIiEclERKiS2_
	testb	%al, %al
	je	L935
L934:
	movl	$1, %eax
	jmp	L936
L935:
	movl	$0, %eax
L936:
	movb	%al, -17(%rbp)
	movq	-80(%rbp), %rax
	movq	%rax, %rdi
	call	__ZSt7forwardIRiEOT_RNSt16remove_referenceIS1_E4typeE
	movq	%rax, %rdx
	movq	-88(%rbp), %rax
	movq	%rdx, %rsi
	movq	%rax, %rdi
	call	__ZNKSt8_Rb_treeIiiSt9_IdentityIiESt4lessIiESaIiEE11_Alloc_nodeclIRiEEPSt13_Rb_tree_nodeIiEOT_
	movq	%rax, -32(%rbp)
	movq	-56(%rbp), %rax
	leaq	8(%rax), %rcx
	movzbl	-17(%rbp), %eax
	movq	-72(%rbp), %rdx
	movq	-32(%rbp), %rsi
	movl	%eax, %edi
	call	__ZSt29_Rb_tree_insert_and_rebalancebPSt18_Rb_tree_node_baseS0_RS_
	movq	-56(%rbp), %rax
	movq	40(%rax), %rax
	leaq	1(%rax), %rdx
	movq	-56(%rbp), %rax
	movq	%rdx, 40(%rax)
	movq	-32(%rbp), %rdx
	leaq	-40(%rbp), %rax
	movq	%rdx, %rsi
	movq	%rax, %rdi
	call	__ZNSt17_Rb_tree_iteratorIiEC1EPSt18_Rb_tree_node_base
	movq	-40(%rbp), %rax
	addq	$80, %rsp
	popq	%rbx
	popq	%r12
	popq	%rbp
LCFI1365:
	ret
LFE6331:
	.align 1
	.globl __ZNSt8_Rb_treeIiiSt9_IdentityIiESt4lessIiESaIiEE15_M_destroy_nodeEPSt13_Rb_tree_nodeIiE
	.weak_definition __ZNSt8_Rb_treeIiiSt9_IdentityIiESt4lessIiESaIiEE15_M_destroy_nodeEPSt13_Rb_tree_nodeIiE
__ZNSt8_Rb_treeIiiSt9_IdentityIiESt4lessIiESaIiEE15_M_destroy_nodeEPSt13_Rb_tree_nodeIiE:
LFB6332:
	pushq	%rbp
LCFI1366:
	movq	%rsp, %rbp
LCFI1367:
	pushq	%rbx
	subq	$24, %rsp
LCFI1368:
	movq	%rdi, -24(%rbp)
	movq	%rsi, -32(%rbp)
	movq	-32(%rbp), %rax
	movq	%rax, %rdi
	call	__ZNSt13_Rb_tree_nodeIiE9_M_valptrEv
	movq	%rax, %rbx
	movq	-24(%rbp), %rax
	movq	%rax, %rdi
	call	__ZNSt8_Rb_treeIiiSt9_IdentityIiESt4lessIiESaIiEE21_M_get_Node_allocatorEv
	movq	%rbx, %rsi
	movq	%rax, %rdi
	call	__ZNSt16allocator_traitsISaISt13_Rb_tree_nodeIiEEE7destroyIiEEvRS2_PT_
	nop
	addq	$24, %rsp
	popq	%rbx
	popq	%rbp
LCFI1369:
	ret
LFE6332:
	.align 1
	.globl __ZNSt8_Rb_treeIiiSt9_IdentityIiESt4lessIiESaIiEE11_M_put_nodeEPSt13_Rb_tree_nodeIiE
	.weak_definition __ZNSt8_Rb_treeIiiSt9_IdentityIiESt4lessIiESaIiEE11_M_put_nodeEPSt13_Rb_tree_nodeIiE
__ZNSt8_Rb_treeIiiSt9_IdentityIiESt4lessIiESaIiEE11_M_put_nodeEPSt13_Rb_tree_nodeIiE:
LFB6333:
	pushq	%rbp
LCFI1370:
	movq	%rsp, %rbp
LCFI1371:
	subq	$16, %rsp
	movq	%rdi, -8(%rbp)
	movq	%rsi, -16(%rbp)
	movq	-8(%rbp), %rax
	movq	%rax, %rdi
	call	__ZNSt8_Rb_treeIiiSt9_IdentityIiESt4lessIiESaIiEE21_M_get_Node_allocatorEv
	movq	%rax, %rcx
	movq	-16(%rbp), %rax
	movl	$1, %edx
	movq	%rax, %rsi
	movq	%rcx, %rdi
	call	__ZNSt16allocator_traitsISaISt13_Rb_tree_nodeIiEEE10deallocateERS2_PS1_m
	nop
	leave
LCFI1372:
	ret
LFE6333:
	.section __DATA,__gcc_except_tab
GCC_except_table39:
LLSDA6333:
	.byte	0xff
	.byte	0x3
	.byte	0
	.section __TEXT,__textcoal_nt,coalesced,pure_instructions
	.align 1
	.globl __ZNSaISt10_List_nodeIiEEC2ERKS1_
	.weak_definition __ZNSaISt10_List_nodeIiEEC2ERKS1_
__ZNSaISt10_List_nodeIiEEC2ERKS1_:
LFB6335:
	pushq	%rbp
LCFI1373:
	movq	%rsp, %rbp
LCFI1374:
	subq	$16, %rsp
	movq	%rdi, -8(%rbp)
	movq	%rsi, -16(%rbp)
	movq	-16(%rbp), %rdx
	movq	-8(%rbp), %rax
	movq	%rdx, %rsi
	movq	%rax, %rdi
	call	__ZN9__gnu_cxx13new_allocatorISt10_List_nodeIiEEC2ERKS3_
	nop
	leave
LCFI1375:
	ret
LFE6335:
	.align 1
	.globl __ZNKSt13_Rb_tree_nodeIiE9_M_valptrEv
	.weak_definition __ZNKSt13_Rb_tree_nodeIiE9_M_valptrEv
__ZNKSt13_Rb_tree_nodeIiE9_M_valptrEv:
LFB6337:
	pushq	%rbp
LCFI1376:
	movq	%rsp, %rbp
LCFI1377:
	subq	$16, %rsp
	movq	%rdi, -8(%rbp)
	movq	-8(%rbp), %rax
	addq	$32, %rax
	movq	%rax, %rdi
	call	__ZNK9__gnu_cxx16__aligned_membufIiE6_M_ptrEv
	leave
LCFI1378:
	ret
LFE6337:
	.align 1
	.globl __ZNSt7__cxx114listIiSaIiEE3endEv
	.weak_definition __ZNSt7__cxx114listIiSaIiEE3endEv
__ZNSt7__cxx114listIiSaIiEE3endEv:
LFB6338:
	pushq	%rbp
LCFI1379:
	movq	%rsp, %rbp
LCFI1380:
	subq	$32, %rsp
	movq	%rdi, -24(%rbp)
	movq	-24(%rbp), %rdx
	leaq	-8(%rbp), %rax
	movq	%rdx, %rsi
	movq	%rax, %rdi
	call	__ZNSt14_List_iteratorIiEC1EPNSt8__detail15_List_node_baseE
	movq	-8(%rbp), %rax
	leave
LCFI1381:
	ret
LFE6338:
	.globl __ZSt7forwardIRKiEOT_RNSt16remove_referenceIS2_E4typeE
	.weak_definition __ZSt7forwardIRKiEOT_RNSt16remove_referenceIS2_E4typeE
__ZSt7forwardIRKiEOT_RNSt16remove_referenceIS2_E4typeE:
LFB6339:
	pushq	%rbp
LCFI1382:
	movq	%rsp, %rbp
LCFI1383:
	movq	%rdi, -8(%rbp)
	movq	-8(%rbp), %rax
	popq	%rbp
LCFI1384:
	ret
LFE6339:
	.align 1
	.globl __ZNSt7__cxx114listIiSaIiEE9_M_insertIJRKiEEEvSt14_List_iteratorIiEDpOT_
	.weak_definition __ZNSt7__cxx114listIiSaIiEE9_M_insertIJRKiEEEvSt14_List_iteratorIiEDpOT_
__ZNSt7__cxx114listIiSaIiEE9_M_insertIJRKiEEEvSt14_List_iteratorIiEDpOT_:
LFB6340:
	pushq	%rbp
LCFI1385:
	movq	%rsp, %rbp
LCFI1386:
	subq	$48, %rsp
	movq	%rdi, -24(%rbp)
	movq	%rsi, -32(%rbp)
	movq	%rdx, -40(%rbp)
	movq	-40(%rbp), %rax
	movq	%rax, %rdi
	call	__ZSt7forwardIRKiEOT_RNSt16remove_referenceIS2_E4typeE
	movq	%rax, %rdx
	movq	-24(%rbp), %rax
	movq	%rdx, %rsi
	movq	%rax, %rdi
	call	__ZNSt7__cxx114listIiSaIiEE14_M_create_nodeIJRKiEEEPSt10_List_nodeIiEDpOT_
	movq	%rax, -8(%rbp)
	movq	-8(%rbp), %rax
	movq	-32(%rbp), %rdx
	movq	%rdx, %rsi
	movq	%rax, %rdi
	call	__ZNSt8__detail15_List_node_base7_M_hookEPS0_
	movq	-24(%rbp), %rax
	movl	$1, %esi
	movq	%rax, %rdi
	call	__ZNSt7__cxx1110_List_baseIiSaIiEE11_M_inc_sizeEm
	nop
	leave
LCFI1387:
	ret
LFE6340:
	.align 1
	.globl __ZN9__gnu_cxx16__aligned_membufIiE6_M_ptrEv
	.weak_definition __ZN9__gnu_cxx16__aligned_membufIiE6_M_ptrEv
__ZN9__gnu_cxx16__aligned_membufIiE6_M_ptrEv:
LFB6341:
	pushq	%rbp
LCFI1388:
	movq	%rsp, %rbp
LCFI1389:
	subq	$16, %rsp
	movq	%rdi, -8(%rbp)
	movq	-8(%rbp), %rax
	movq	%rax, %rdi
	call	__ZN9__gnu_cxx16__aligned_membufIiE7_M_addrEv
	leave
LCFI1390:
	ret
LFE6341:
	.align 1
	.globl __ZN9__gnu_cxx13new_allocatorISt10_List_nodeIiEE7destroyIiEEvPT_
	.weak_definition __ZN9__gnu_cxx13new_allocatorISt10_List_nodeIiEE7destroyIiEEvPT_
__ZN9__gnu_cxx13new_allocatorISt10_List_nodeIiEE7destroyIiEEvPT_:
LFB6342:
	pushq	%rbp
LCFI1391:
	movq	%rsp, %rbp
LCFI1392:
	movq	%rdi, -8(%rbp)
	movq	%rsi, -16(%rbp)
	nop
	popq	%rbp
LCFI1393:
	ret
LFE6342:
	.globl __ZNSt16allocator_traitsISaISt10_List_nodeIiEEE10deallocateERS2_PS1_m
	.weak_definition __ZNSt16allocator_traitsISaISt10_List_nodeIiEEE10deallocateERS2_PS1_m
__ZNSt16allocator_traitsISaISt10_List_nodeIiEEE10deallocateERS2_PS1_m:
LFB6343:
	pushq	%rbp
LCFI1394:
	movq	%rsp, %rbp
LCFI1395:
	subq	$32, %rsp
	movq	%rdi, -8(%rbp)
	movq	%rsi, -16(%rbp)
	movq	%rdx, -24(%rbp)
	movq	-24(%rbp), %rdx
	movq	-16(%rbp), %rcx
	movq	-8(%rbp), %rax
	movq	%rcx, %rsi
	movq	%rax, %rdi
	call	__ZN9__gnu_cxx13new_allocatorISt10_List_nodeIiEE10deallocateEPS2_m
	nop
	leave
LCFI1396:
	ret
LFE6343:
	.globl __ZNSt11__copy_moveILb0ELb0ESt26bidirectional_iterator_tagE8__copy_mISt23_Rb_tree_const_iteratorIiESt20back_insert_iteratorINSt7__cxx114listIiSaIiEEEEEET0_T_SC_SB_
	.weak_definition __ZNSt11__copy_moveILb0ELb0ESt26bidirectional_iterator_tagE8__copy_mISt23_Rb_tree_const_iteratorIiESt20back_insert_iteratorINSt7__cxx114listIiSaIiEEEEEET0_T_SC_SB_
__ZNSt11__copy_moveILb0ELb0ESt26bidirectional_iterator_tagE8__copy_mISt23_Rb_tree_const_iteratorIiESt20back_insert_iteratorINSt7__cxx114listIiSaIiEEEEEET0_T_SC_SB_:
LFB6344:
	pushq	%rbp
LCFI1397:
	movq	%rsp, %rbp
LCFI1398:
	pushq	%rbx
	subq	$40, %rsp
LCFI1399:
	movq	%rdi, -24(%rbp)
	movq	%rsi, -32(%rbp)
	movq	%rdx, -40(%rbp)
L954:
	leaq	-32(%rbp), %rdx
	leaq	-24(%rbp), %rax
	movq	%rdx, %rsi
	movq	%rax, %rdi
	call	__ZStneRKSt23_Rb_tree_const_iteratorIiES2_
	testb	%al, %al
	je	L953
	leaq	-24(%rbp), %rax
	movq	%rax, %rdi
	call	__ZNKSt23_Rb_tree_const_iteratorIiEdeEv
	movq	%rax, %rbx
	leaq	-40(%rbp), %rax
	movq	%rax, %rdi
	call	__ZNSt20back_insert_iteratorINSt7__cxx114listIiSaIiEEEEdeEv
	movq	%rbx, %rsi
	movq	%rax, %rdi
	call	__ZNSt20back_insert_iteratorINSt7__cxx114listIiSaIiEEEEaSERKi
	leaq	-40(%rbp), %rax
	movq	%rax, %rdi
	call	__ZNSt20back_insert_iteratorINSt7__cxx114listIiSaIiEEEEppEv
	leaq	-24(%rbp), %rax
	movq	%rax, %rdi
	call	__ZNSt23_Rb_tree_const_iteratorIiEppEv
	jmp	L954
L953:
	movq	-40(%rbp), %rax
	addq	$40, %rsp
	popq	%rbx
	popq	%rbp
LCFI1400:
	ret
LFE6344:
	.cstring
	.align 3
lC29:
	.ascii "basic_string::_M_construct null not valid\0"
	.section __TEXT,__textcoal_nt,coalesced,pure_instructions
	.align 1
	.globl __ZNSt7__cxx1112basic_stringIcSt11char_traitsIcESaIcEE12_M_constructIPcEEvT_S7_St20forward_iterator_tag
	.weak_definition __ZNSt7__cxx1112basic_stringIcSt11char_traitsIcESaIcEE12_M_constructIPcEEvT_S7_St20forward_iterator_tag
__ZNSt7__cxx1112basic_stringIcSt11char_traitsIcESaIcEE12_M_constructIPcEEvT_S7_St20forward_iterator_tag:
LFB6345:
	pushq	%rbp
LCFI1401:
	movq	%rsp, %rbp
LCFI1402:
	pushq	%rbx
	subq	$56, %rsp
LCFI1403:
	movq	%rdi, -40(%rbp)
	movq	%rsi, -48(%rbp)
	movq	%rdx, -56(%rbp)
	movq	-48(%rbp), %rax
	movq	%rax, %rdi
	call	__ZN9__gnu_cxx17__is_null_pointerIcEEbPT_
	testb	%al, %al
	je	L957
	movq	-48(%rbp), %rax
	cmpq	-56(%rbp), %rax
	je	L957
	movl	$1, %eax
	jmp	L958
L957:
	movl	$0, %eax
L958:
	testb	%al, %al
	je	L959
	leaq	lC29(%rip), %rdi
LEHB91:
	call	__ZSt19__throw_logic_errorPKc
L959:
	movq	-56(%rbp), %rdx
	movq	-48(%rbp), %rax
	movq	%rdx, %rsi
	movq	%rax, %rdi
	call	__ZSt8distanceIPcENSt15iterator_traitsIT_E15difference_typeES2_S2_
	movq	%rax, -24(%rbp)
	movq	-24(%rbp), %rax
	cmpq	$15, %rax
	jbe	L960
	leaq	-24(%rbp), %rax
	movq	-40(%rbp), %rcx
	movl	$0, %edx
	movq	%rax, %rsi
	movq	%rcx, %rdi
	call	__ZNSt7__cxx1112basic_stringIcSt11char_traitsIcESaIcEE9_M_createERmm
	movq	%rax, %rdx
	movq	-40(%rbp), %rax
	movq	%rdx, %rsi
	movq	%rax, %rdi
	call	__ZNSt7__cxx1112basic_stringIcSt11char_traitsIcESaIcEE7_M_dataEPc
	movq	-24(%rbp), %rdx
	movq	-40(%rbp), %rax
	movq	%rdx, %rsi
	movq	%rax, %rdi
	call	__ZNSt7__cxx1112basic_stringIcSt11char_traitsIcESaIcEE11_M_capacityEm
LEHE91:
L960:
	movq	-40(%rbp), %rax
	movq	%rax, %rdi
LEHB92:
	call	__ZNKSt7__cxx1112basic_stringIcSt11char_traitsIcESaIcEE7_M_dataEv
LEHE92:
	movq	%rax, %rcx
	movq	-56(%rbp), %rdx
	movq	-48(%rbp), %rax
	movq	%rax, %rsi
	movq	%rcx, %rdi
	call	__ZNSt7__cxx1112basic_stringIcSt11char_traitsIcESaIcEE13_S_copy_charsEPcS5_S5_
	movq	-24(%rbp), %rdx
	movq	-40(%rbp), %rax
	movq	%rdx, %rsi
	movq	%rax, %rdi
LEHB93:
	call	__ZNSt7__cxx1112basic_stringIcSt11char_traitsIcESaIcEE13_M_set_lengthEm
LEHE93:
	jmp	L965
L963:
	movq	%rax, %rdi
	call	___cxa_begin_catch
	movq	-40(%rbp), %rax
	movq	%rax, %rdi
LEHB94:
	call	__ZNSt7__cxx1112basic_stringIcSt11char_traitsIcESaIcEE10_M_disposeEv
	call	___cxa_rethrow
LEHE94:
L964:
	movq	%rax, %rbx
	call	___cxa_end_catch
	movq	%rbx, %rax
	movq	%rax, %rdi
LEHB95:
	call	__Unwind_Resume
LEHE95:
L965:
	addq	$56, %rsp
	popq	%rbx
	popq	%rbp
LCFI1404:
	ret
LFE6345:
	.section __DATA,__gcc_except_tab
GCC_except_table40:
	.align 3
LLSDA6345:
	.byte	0xff
	.byte	0
	.byte	0x4d
	.byte	0x3
	.byte	0x41
	.set L$set$238,LEHB91-LFB6345
	.long L$set$238
	.set L$set$239,LEHE91-LEHB91
	.long L$set$239
	.long	0
	.byte	0
	.set L$set$240,LEHB92-LFB6345
	.long L$set$240
	.set L$set$241,LEHE92-LEHB92
	.long L$set$241
	.set L$set$242,L963-LFB6345
	.long L$set$242
	.byte	0x1
	.set L$set$243,LEHB93-LFB6345
	.long L$set$243
	.set L$set$244,LEHE93-LEHB93
	.long L$set$244
	.long	0
	.byte	0
	.set L$set$245,LEHB94-LFB6345
	.long L$set$245
	.set L$set$246,LEHE94-LEHB94
	.long L$set$246
	.set L$set$247,L964-LFB6345
	.long L$set$247
	.byte	0
	.set L$set$248,LEHB95-LFB6345
	.long L$set$248
	.set L$set$249,LEHE95-LEHB95
	.long L$set$249
	.long	0
	.byte	0
	.byte	0x1
	.byte	0
	.align 3
	.quad	0
	.section __TEXT,__textcoal_nt,coalesced,pure_instructions
	.align 1
	.globl __ZN9__gnu_cxx13new_allocatorIcE10deallocateEPcm
	.weak_definition __ZN9__gnu_cxx13new_allocatorIcE10deallocateEPcm
__ZN9__gnu_cxx13new_allocatorIcE10deallocateEPcm:
LFB6346:
	pushq	%rbp
LCFI1405:
	movq	%rsp, %rbp
LCFI1406:
	subq	$32, %rsp
	movq	%rdi, -8(%rbp)
	movq	%rsi, -16(%rbp)
	movq	%rdx, -24(%rbp)
	movq	-16(%rbp), %rax
	movq	%rax, %rdi
	call	__ZdlPv
	nop
	leave
LCFI1407:
	ret
LFE6346:
	.globl __ZSt8distanceIPKcENSt15iterator_traitsIT_E15difference_typeES3_S3_
	.weak_definition __ZSt8distanceIPKcENSt15iterator_traitsIT_E15difference_typeES3_S3_
__ZSt8distanceIPKcENSt15iterator_traitsIT_E15difference_typeES3_S3_:
LFB6354:
	pushq	%rbp
LCFI1408:
	movq	%rsp, %rbp
LCFI1409:
	subq	$32, %rsp
	movq	%rdi, -24(%rbp)
	movq	%rsi, -32(%rbp)
	leaq	-24(%rbp), %rax
	movq	%rax, %rdi
	call	__ZSt19__iterator_categoryIPKcENSt15iterator_traitsIT_E17iterator_categoryERKS3_
	movq	-24(%rbp), %rax
	movq	-32(%rbp), %rdx
	movq	%rdx, %rsi
	movq	%rax, %rdi
	call	__ZSt10__distanceIPKcENSt15iterator_traitsIT_E15difference_typeES3_S3_St26random_access_iterator_tag
	leave
LCFI1410:
	ret
LFE6354:
	.globl __ZNSt16allocator_traitsISaIcEE8max_sizeERKS0_
	.weak_definition __ZNSt16allocator_traitsISaIcEE8max_sizeERKS0_
__ZNSt16allocator_traitsISaIcEE8max_sizeERKS0_:
LFB6373:
	pushq	%rbp
LCFI1411:
	movq	%rsp, %rbp
LCFI1412:
	subq	$16, %rsp
	movq	%rdi, -8(%rbp)
	movq	-8(%rbp), %rax
	movq	%rax, %rdi
	call	__ZNK9__gnu_cxx13new_allocatorIcE8max_sizeEv
	leave
LCFI1413:
	ret
LFE6373:
	.globl __ZNSt16allocator_traitsISaIPiEE8allocateERS1_m
	.weak_definition __ZNSt16allocator_traitsISaIPiEE8allocateERS1_m
__ZNSt16allocator_traitsISaIPiEE8allocateERS1_m:
LFB6374:
	pushq	%rbp
LCFI1414:
	movq	%rsp, %rbp
LCFI1415:
	subq	$16, %rsp
	movq	%rdi, -8(%rbp)
	movq	%rsi, -16(%rbp)
	movq	-16(%rbp), %rcx
	movq	-8(%rbp), %rax
	movl	$0, %edx
	movq	%rcx, %rsi
	movq	%rax, %rdi
	call	__ZN9__gnu_cxx13new_allocatorIPiE8allocateEmPKv
	leave
LCFI1416:
	ret
LFE6374:
	.globl __ZNSt16allocator_traitsISaIiEE10deallocateERS0_Pim
	.weak_definition __ZNSt16allocator_traitsISaIiEE10deallocateERS0_Pim
__ZNSt16allocator_traitsISaIiEE10deallocateERS0_Pim:
LFB6375:
	pushq	%rbp
LCFI1417:
	movq	%rsp, %rbp
LCFI1418:
	subq	$32, %rsp
	movq	%rdi, -8(%rbp)
	movq	%rsi, -16(%rbp)
	movq	%rdx, -24(%rbp)
	movq	-24(%rbp), %rdx
	movq	-16(%rbp), %rcx
	movq	-8(%rbp), %rax
	movq	%rcx, %rsi
	movq	%rax, %rdi
	call	__ZN9__gnu_cxx13new_allocatorIiE10deallocateEPim
	nop
	leave
LCFI1419:
	ret
LFE6375:
	.align 1
	.globl __ZNKSt11_Deque_baseIiSaIiEE19_M_get_Tp_allocatorEv
	.weak_definition __ZNKSt11_Deque_baseIiSaIiEE19_M_get_Tp_allocatorEv
__ZNKSt11_Deque_baseIiSaIiEE19_M_get_Tp_allocatorEv:
LFB6376:
	pushq	%rbp
LCFI1420:
	movq	%rsp, %rbp
LCFI1421:
	movq	%rdi, -8(%rbp)
	movq	-8(%rbp), %rax
	popq	%rbp
LCFI1422:
	ret
LFE6376:
	.align 1
	.globl __ZNSaIPiEC1IiEERKSaIT_E
	.weak_definition __ZNSaIPiEC1IiEERKSaIT_E
__ZNSaIPiEC1IiEERKSaIT_E:
LFB6379:
	pushq	%rbp
LCFI1423:
	movq	%rsp, %rbp
LCFI1424:
	subq	$16, %rsp
	movq	%rdi, -8(%rbp)
	movq	%rsi, -16(%rbp)
	movq	-8(%rbp), %rax
	movq	%rax, %rdi
	call	__ZN9__gnu_cxx13new_allocatorIPiEC2Ev
	nop
	leave
LCFI1425:
	ret
LFE6379:
	.align 1
	.globl __ZN9__gnu_cxx13new_allocatorIPiED2Ev
	.weak_definition __ZN9__gnu_cxx13new_allocatorIPiED2Ev
__ZN9__gnu_cxx13new_allocatorIPiED2Ev:
LFB6381:
	pushq	%rbp
LCFI1426:
	movq	%rsp, %rbp
LCFI1427:
	movq	%rdi, -8(%rbp)
	nop
	popq	%rbp
LCFI1428:
	ret
LFE6381:
	.align 1
	.globl __ZN9__gnu_cxx13new_allocatorIPiE10deallocateEPS1_m
	.weak_definition __ZN9__gnu_cxx13new_allocatorIPiE10deallocateEPS1_m
__ZN9__gnu_cxx13new_allocatorIPiE10deallocateEPS1_m:
LFB6386:
	pushq	%rbp
LCFI1429:
	movq	%rsp, %rbp
LCFI1430:
	subq	$32, %rsp
	movq	%rdi, -8(%rbp)
	movq	%rsi, -16(%rbp)
	movq	%rdx, -24(%rbp)
	movq	-16(%rbp), %rax
	movq	%rax, %rdi
	call	__ZdlPv
	nop
	leave
LCFI1431:
	ret
LFE6386:
	.globl __ZStmiIiRiPiENSt15_Deque_iteratorIT_T0_T1_E15difference_typeERKS6_S9_
	.weak_definition __ZStmiIiRiPiENSt15_Deque_iteratorIT_T0_T1_E15difference_typeERKS6_S9_
__ZStmiIiRiPiENSt15_Deque_iteratorIT_T0_T1_E15difference_typeERKS6_S9_:
LFB6388:
	pushq	%rbp
LCFI1432:
	movq	%rsp, %rbp
LCFI1433:
	subq	$16, %rsp
	movq	%rdi, -8(%rbp)
	movq	%rsi, -16(%rbp)
	call	__ZNSt15_Deque_iteratorIiRiPiE14_S_buffer_sizeEv
	movq	%rax, %rcx
	movq	-8(%rbp), %rax
	movq	24(%rax), %rdx
	movq	-16(%rbp), %rax
	movq	24(%rax), %rax
	subq	%rax, %rdx
	movq	%rdx, %rax
	sarq	$3, %rax
	subq	$1, %rax
	imulq	%rcx, %rax
	movq	-8(%rbp), %rdx
	movq	(%rdx), %rcx
	movq	-8(%rbp), %rdx
	movq	8(%rdx), %rdx
	subq	%rdx, %rcx
	movq	%rcx, %rdx
	sarq	$2, %rdx
	addq	%rax, %rdx
	movq	-16(%rbp), %rax
	movq	16(%rax), %rcx
	movq	-16(%rbp), %rax
	movq	(%rax), %rax
	subq	%rax, %rcx
	movq	%rcx, %rax
	sarq	$2, %rax
	addq	%rdx, %rax
	leave
LCFI1434:
	ret
LFE6388:
	.globl __ZNSt5dequeIiSaIiEE11_S_max_sizeERKS0_
	.weak_definition __ZNSt5dequeIiSaIiEE11_S_max_sizeERKS0_
__ZNSt5dequeIiSaIiEE11_S_max_sizeERKS0_:
LFB6389:
	pushq	%rbp
LCFI1435:
	movq	%rsp, %rbp
LCFI1436:
	subq	$32, %rsp
	movq	%rdi, -24(%rbp)
	movabsq	$9223372036854775807, %rax
	movq	%rax, -8(%rbp)
	movq	-24(%rbp), %rax
	movq	%rax, %rdi
	call	__ZNSt16allocator_traitsISaIiEE8max_sizeERKS0_
	movq	%rax, -16(%rbp)
	leaq	-16(%rbp), %rdx
	leaq	-8(%rbp), %rax
	movq	%rdx, %rsi
	movq	%rax, %rdi
	call	__ZSt3minImERKT_S2_S2_
	movq	(%rax), %rax
	leave
LCFI1437:
	ret
LFE6389:
	.align 1
	.globl __ZNSt5dequeIiSaIiEE17_M_reallocate_mapEmb
	.weak_definition __ZNSt5dequeIiSaIiEE17_M_reallocate_mapEmb
__ZNSt5dequeIiSaIiEE17_M_reallocate_mapEmb:
LFB6390:
	pushq	%rbp
LCFI1438:
	movq	%rsp, %rbp
LCFI1439:
	pushq	%rbx
	subq	$88, %rsp
LCFI1440:
	movq	%rdi, -72(%rbp)
	movq	%rsi, -80(%rbp)
	movl	%edx, %eax
	movb	%al, -84(%rbp)
	movq	-72(%rbp), %rax
	movq	72(%rax), %rdx
	movq	-72(%rbp), %rax
	movq	40(%rax), %rax
	subq	%rax, %rdx
	movq	%rdx, %rax
	sarq	$3, %rax
	addq	$1, %rax
	movq	%rax, -32(%rbp)
	movq	-80(%rbp), %rdx
	movq	-32(%rbp), %rax
	addq	%rdx, %rax
	movq	%rax, -40(%rbp)
	movq	-72(%rbp), %rax
	movq	8(%rax), %rdx
	movq	-40(%rbp), %rax
	addq	%rax, %rax
	cmpq	%rax, %rdx
	jbe	L984
	movq	-72(%rbp), %rax
	movq	(%rax), %rdx
	movq	-72(%rbp), %rax
	movq	8(%rax), %rax
	subq	-40(%rbp), %rax
	shrq	%rax
	leaq	0(,%rax,8), %rcx
	cmpb	$0, -84(%rbp)
	je	L985
	movq	-80(%rbp), %rax
	salq	$3, %rax
	jmp	L986
L985:
	movl	$0, %eax
L986:
	addq	%rcx, %rax
	addq	%rdx, %rax
	movq	%rax, -24(%rbp)
	movq	-72(%rbp), %rax
	movq	40(%rax), %rax
	cmpq	%rax, -24(%rbp)
	jnb	L987
	movq	-72(%rbp), %rax
	movq	72(%rax), %rax
	leaq	8(%rax), %rcx
	movq	-72(%rbp), %rax
	movq	40(%rax), %rax
	movq	-24(%rbp), %rdx
	movq	%rcx, %rsi
	movq	%rax, %rdi
	call	__ZSt4copyIPPiS1_ET0_T_S3_S2_
	jmp	L988
L987:
	movq	-32(%rbp), %rax
	leaq	0(,%rax,8), %rdx
	movq	-24(%rbp), %rax
	addq	%rax, %rdx
	movq	-72(%rbp), %rax
	movq	72(%rax), %rax
	leaq	8(%rax), %rcx
	movq	-72(%rbp), %rax
	movq	40(%rax), %rax
	movq	%rcx, %rsi
	movq	%rax, %rdi
	call	__ZSt13copy_backwardIPPiS1_ET0_T_S3_S2_
	jmp	L988
L984:
	movq	-72(%rbp), %rax
	movq	8(%rax), %rbx
	movq	-72(%rbp), %rax
	leaq	8(%rax), %rdx
	leaq	-80(%rbp), %rax
	movq	%rax, %rsi
	movq	%rdx, %rdi
	call	__ZSt3maxImERKT_S2_S2_
	movq	(%rax), %rax
	addq	%rbx, %rax
	addq	$2, %rax
	movq	%rax, -48(%rbp)
	movq	-72(%rbp), %rax
	movq	-48(%rbp), %rdx
	movq	%rdx, %rsi
	movq	%rax, %rdi
	call	__ZNSt11_Deque_baseIiSaIiEE15_M_allocate_mapEm
	movq	%rax, -56(%rbp)
	movq	-48(%rbp), %rax
	subq	-40(%rbp), %rax
	shrq	%rax
	leaq	0(,%rax,8), %rdx
	cmpb	$0, -84(%rbp)
	je	L989
	movq	-80(%rbp), %rax
	salq	$3, %rax
	jmp	L990
L989:
	movl	$0, %eax
L990:
	addq	%rax, %rdx
	movq	-56(%rbp), %rax
	addq	%rdx, %rax
	movq	%rax, -24(%rbp)
	movq	-72(%rbp), %rax
	movq	72(%rax), %rax
	leaq	8(%rax), %rcx
	movq	-72(%rbp), %rax
	movq	40(%rax), %rax
	movq	-24(%rbp), %rdx
	movq	%rcx, %rsi
	movq	%rax, %rdi
	call	__ZSt4copyIPPiS1_ET0_T_S3_S2_
	movq	-72(%rbp), %rax
	movq	-72(%rbp), %rdx
	movq	8(%rdx), %rdx
	movq	-72(%rbp), %rcx
	movq	(%rcx), %rcx
	movq	%rcx, %rsi
	movq	%rax, %rdi
	call	__ZNSt11_Deque_baseIiSaIiEE17_M_deallocate_mapEPPim
	movq	-72(%rbp), %rax
	movq	-56(%rbp), %rdx
	movq	%rdx, (%rax)
	movq	-72(%rbp), %rax
	movq	-48(%rbp), %rdx
	movq	%rdx, 8(%rax)
L988:
	movq	-72(%rbp), %rax
	addq	$16, %rax
	movq	-24(%rbp), %rdx
	movq	%rdx, %rsi
	movq	%rax, %rdi
	call	__ZNSt15_Deque_iteratorIiRiPiE11_M_set_nodeEPS1_
	movq	-72(%rbp), %rax
	addq	$48, %rax
	movq	-32(%rbp), %rdx
	salq	$3, %rdx
	leaq	-8(%rdx), %rcx
	movq	-24(%rbp), %rdx
	addq	%rcx, %rdx
	movq	%rdx, %rsi
	movq	%rax, %rdi
	call	__ZNSt15_Deque_iteratorIiRiPiE11_M_set_nodeEPS1_
	nop
	addq	$88, %rsp
	popq	%rbx
	popq	%rbp
LCFI1441:
	ret
LFE6390:
	.globl __ZNSt16allocator_traitsISaIiEE8allocateERS0_m
	.weak_definition __ZNSt16allocator_traitsISaIiEE8allocateERS0_m
__ZNSt16allocator_traitsISaIiEE8allocateERS0_m:
LFB6391:
	pushq	%rbp
LCFI1442:
	movq	%rsp, %rbp
LCFI1443:
	subq	$16, %rsp
	movq	%rdi, -8(%rbp)
	movq	%rsi, -16(%rbp)
	movq	-16(%rbp), %rcx
	movq	-8(%rbp), %rax
	movl	$0, %edx
	movq	%rcx, %rsi
	movq	%rax, %rdi
	call	__ZN9__gnu_cxx13new_allocatorIiE8allocateEmPKv
	leave
LCFI1444:
	ret
LFE6391:
	.align 1
	.globl __ZNSt15_Sp_counted_ptrIPNSt7__cxx1112basic_stringIcSt11char_traitsIcESaIcEEELN9__gnu_cxx12_Lock_policyE2EEC1ES6_
	.weak_definition __ZNSt15_Sp_counted_ptrIPNSt7__cxx1112basic_stringIcSt11char_traitsIcESaIcEEELN9__gnu_cxx12_Lock_policyE2EEC1ES6_
__ZNSt15_Sp_counted_ptrIPNSt7__cxx1112basic_stringIcSt11char_traitsIcESaIcEEELN9__gnu_cxx12_Lock_policyE2EEC1ES6_:
LFB6394:
	pushq	%rbp
LCFI1445:
	movq	%rsp, %rbp
LCFI1446:
	subq	$16, %rsp
	movq	%rdi, -8(%rbp)
	movq	%rsi, -16(%rbp)
	movq	-8(%rbp), %rax
	movq	%rax, %rdi
	call	__ZNSt16_Sp_counted_baseILN9__gnu_cxx12_Lock_policyE2EEC2Ev
	movq	__ZTVSt15_Sp_counted_ptrIPNSt7__cxx1112basic_stringIcSt11char_traitsIcESaIcEEELN9__gnu_cxx12_Lock_policyE2EE@GOTPCREL(%rip), %rax
	leaq	16(%rax), %rax
	movq	-8(%rbp), %rdx
	movq	%rax, (%rdx)
	movq	-8(%rbp), %rax
	movq	-16(%rbp), %rdx
	movq	%rdx, 16(%rax)
	nop
	leave
LCFI1447:
	ret
LFE6394:
	.align 1
	.globl __ZNSt11_Tuple_implILm2EJRdEEC2ES0_
	.weak_definition __ZNSt11_Tuple_implILm2EJRdEEC2ES0_
__ZNSt11_Tuple_implILm2EJRdEEC2ES0_:
LFB6396:
	pushq	%rbp
LCFI1448:
	movq	%rsp, %rbp
LCFI1449:
	subq	$16, %rsp
	movq	%rdi, -8(%rbp)
	movq	%rsi, -16(%rbp)
	movq	-8(%rbp), %rax
	movq	-16(%rbp), %rdx
	movq	%rdx, %rsi
	movq	%rax, %rdi
	call	__ZNSt10_Head_baseILm2ERdLb0EEC2ES0_
	nop
	leave
LCFI1450:
	ret
LFE6396:
	.globl __ZNSt10_Head_baseILm1ERiLb0EE7_M_headERS1_
	.weak_definition __ZNSt10_Head_baseILm1ERiLb0EE7_M_headERS1_
__ZNSt10_Head_baseILm1ERiLb0EE7_M_headERS1_:
LFB6398:
	pushq	%rbp
LCFI1451:
	movq	%rsp, %rbp
LCFI1452:
	movq	%rdi, -8(%rbp)
	movq	-8(%rbp), %rax
	movq	(%rax), %rax
	popq	%rbp
LCFI1453:
	ret
LFE6398:
	.globl __ZNSt11_Tuple_implILm2EJRdEE7_M_headERS1_
	.weak_definition __ZNSt11_Tuple_implILm2EJRdEE7_M_headERS1_
__ZNSt11_Tuple_implILm2EJRdEE7_M_headERS1_:
LFB6399:
	pushq	%rbp
LCFI1454:
	movq	%rsp, %rbp
LCFI1455:
	subq	$16, %rsp
	movq	%rdi, -8(%rbp)
	movq	-8(%rbp), %rax
	movq	%rax, %rdi
	call	__ZNSt10_Head_baseILm2ERdLb0EE7_M_headERS1_
	leave
LCFI1456:
	ret
LFE6399:
	.align 1
	.globl __ZNSt10_Head_baseILm2ERdLb0EEC2ES0_
	.weak_definition __ZNSt10_Head_baseILm2ERdLb0EEC2ES0_
__ZNSt10_Head_baseILm2ERdLb0EEC2ES0_:
LFB6402:
	pushq	%rbp
LCFI1457:
	movq	%rsp, %rbp
LCFI1458:
	movq	%rdi, -8(%rbp)
	movq	%rsi, -16(%rbp)
	movq	-8(%rbp), %rax
	movq	-16(%rbp), %rdx
	movq	%rdx, (%rax)
	nop
	popq	%rbp
LCFI1459:
	ret
LFE6402:
	.align 1
	.globl __ZN9__gnu_cxx13new_allocatorIcE8allocateEmPKv
	.weak_definition __ZN9__gnu_cxx13new_allocatorIcE8allocateEmPKv
__ZN9__gnu_cxx13new_allocatorIcE8allocateEmPKv:
LFB6404:
	pushq	%rbp
LCFI1460:
	movq	%rsp, %rbp
LCFI1461:
	subq	$32, %rsp
	movq	%rdi, -8(%rbp)
	movq	%rsi, -16(%rbp)
	movq	%rdx, -24(%rbp)
	movq	-8(%rbp), %rax
	movq	%rax, %rdi
	call	__ZNK9__gnu_cxx13new_allocatorIcE8max_sizeEv
	cmpq	%rax, -16(%rbp)
	seta	%al
	testb	%al, %al
	je	L1001
	call	__ZSt17__throw_bad_allocv
L1001:
	movq	-16(%rbp), %rax
	movq	%rax, %rdi
	call	__Znwm
	leave
LCFI1462:
	ret
LFE6404:
	.globl __ZNSt10_Head_baseILm1EiLb0EE7_M_headERKS0_
	.weak_definition __ZNSt10_Head_baseILm1EiLb0EE7_M_headERKS0_
__ZNSt10_Head_baseILm1EiLb0EE7_M_headERKS0_:
LFB6406:
	pushq	%rbp
LCFI1463:
	movq	%rsp, %rbp
LCFI1464:
	movq	%rdi, -8(%rbp)
	movq	-8(%rbp), %rax
	popq	%rbp
LCFI1465:
	ret
LFE6406:
	.globl __ZNSt11_Tuple_implILm2EJdEE7_M_headERKS0_
	.weak_definition __ZNSt11_Tuple_implILm2EJdEE7_M_headERKS0_
__ZNSt11_Tuple_implILm2EJdEE7_M_headERKS0_:
LFB6407:
	pushq	%rbp
LCFI1466:
	movq	%rsp, %rbp
LCFI1467:
	subq	$16, %rsp
	movq	%rdi, -8(%rbp)
	movq	-8(%rbp), %rax
	movq	%rax, %rdi
	call	__ZNSt10_Head_baseILm2EdLb0EE7_M_headERKS0_
	leave
LCFI1468:
	ret
LFE6407:
	.globl __ZSt11__addressofIKcEPT_RS1_
	.weak_definition __ZSt11__addressofIKcEPT_RS1_
__ZSt11__addressofIKcEPT_RS1_:
LFB6408:
	pushq	%rbp
LCFI1469:
	movq	%rsp, %rbp
LCFI1470:
	movq	%rdi, -8(%rbp)
	movq	-8(%rbp), %rax
	popq	%rbp
LCFI1471:
	ret
LFE6408:
	.align 1
	.globl __ZNSt8__detail9_CompilerINSt7__cxx1112regex_traitsIcEEEC1EPKcS6_RKSt6localeNSt15regex_constants18syntax_option_typeE
	.weak_definition __ZNSt8__detail9_CompilerINSt7__cxx1112regex_traitsIcEEEC1EPKcS6_RKSt6localeNSt15regex_constants18syntax_option_typeE
__ZNSt8__detail9_CompilerINSt7__cxx1112regex_traitsIcEEEC1EPKcS6_RKSt6localeNSt15regex_constants18syntax_option_typeE:
LFB6411:
	pushq	%rbp
LCFI1472:
	movq	%rsp, %rbp
LCFI1473:
	pushq	%rbx
	subq	$120, %rsp
LCFI1474:
	movq	%rdi, -88(%rbp)
	movq	%rsi, -96(%rbp)
	movq	%rdx, -104(%rbp)
	movq	%rcx, -112(%rbp)
	movl	%r8d, -116(%rbp)
	movl	$32, %esi
	movl	$16, %edi
	call	__ZNSt15regex_constantsorENS_18syntax_option_typeES0_
	movl	$64, %esi
	movl	%eax, %edi
	call	__ZNSt15regex_constantsorENS_18syntax_option_typeES0_
	movl	$256, %esi
	movl	%eax, %edi
	call	__ZNSt15regex_constantsorENS_18syntax_option_typeES0_
	movl	$512, %esi
	movl	%eax, %edi
	call	__ZNSt15regex_constantsorENS_18syntax_option_typeES0_
	movl	$128, %esi
	movl	%eax, %edi
	call	__ZNSt15regex_constantsorENS_18syntax_option_typeES0_
	movl	%eax, %edx
	movl	-116(%rbp), %eax
	movl	%edx, %esi
	movl	%eax, %edi
	call	__ZNSt15regex_constantsanENS_18syntax_option_typeES0_
	testl	%eax, %eax
	jne	L1010
	movl	-116(%rbp), %eax
	movl	$16, %esi
	movl	%eax, %edi
	call	__ZNSt15regex_constantsorENS_18syntax_option_typeES0_
	jmp	L1011
L1010:
	movl	-116(%rbp), %eax
L1011:
	movq	-88(%rbp), %rdx
	movl	%eax, (%rdx)
	movq	-88(%rbp), %rax
	leaq	8(%rax), %rbx
	movq	-112(%rbp), %rdx
	leaq	-56(%rbp), %rax
	movq	%rdx, %rsi
	movq	%rax, %rdi
	call	__ZNSt6localeC1ERKS_
	movq	-88(%rbp), %rax
	movl	(%rax), %ecx
	leaq	-56(%rbp), %rsi
	movq	-104(%rbp), %rdx
	movq	-96(%rbp), %rax
	movq	%rsi, %r8
	movq	%rax, %rsi
	movq	%rbx, %rdi
LEHB96:
	call	__ZNSt8__detail8_ScannerIcEC1EPKcS3_NSt15regex_constants18syntax_option_typeESt6locale
LEHE96:
	leaq	-56(%rbp), %rax
	movq	%rax, %rdi
	call	__ZNSt6localeD1Ev
	movq	-88(%rbp), %rdx
	movq	-88(%rbp), %rax
	addq	$256, %rax
	movq	-112(%rbp), %rcx
	movq	%rcx, %rsi
	movq	%rax, %rdi
LEHB97:
	call	__ZSt11make_sharedINSt8__detail4_NFAINSt7__cxx1112regex_traitsIcEEEEJRKSt6localeRNSt15regex_constants18syntax_option_typeEEESt10shared_ptrIT_EDpOT0_
LEHE97:
	movq	-88(%rbp), %rax
	addq	$272, %rax
	movq	%rax, %rdi
	call	__ZNSt7__cxx1112basic_stringIcSt11char_traitsIcESaIcEEC1Ev
	movq	-88(%rbp), %rax
	addq	$304, %rax
	movq	%rax, %rdi
LEHB98:
	call	__ZNSt5stackINSt8__detail9_StateSeqINSt7__cxx1112regex_traitsIcEEEESt5dequeIS5_SaIS5_EEEC1IS8_vEEv
LEHE98:
	movq	-88(%rbp), %rax
	addq	$256, %rax
	movq	%rax, %rdi
	call	__ZNKSt19__shared_ptr_accessINSt8__detail4_NFAINSt7__cxx1112regex_traitsIcEEEELN9__gnu_cxx12_Lock_policyE2ELb0ELb0EEptEv
	leaq	80(%rax), %rdx
	movq	-88(%rbp), %rax
	movq	%rdx, 384(%rax)
	movq	-112(%rbp), %rax
	movq	%rax, %rdi
LEHB99:
	call	__ZSt9use_facetISt5ctypeIcEERKT_RKSt6locale
	movq	-88(%rbp), %rdx
	movq	%rax, 392(%rdx)
	movq	-88(%rbp), %rax
	addq	$256, %rax
	movq	%rax, %rdi
	call	__ZNKSt19__shared_ptr_accessINSt8__detail4_NFAINSt7__cxx1112regex_traitsIcEEEELN9__gnu_cxx12_Lock_policyE2ELb0ELb0EEptEv
	movq	%rax, %rdi
	call	__ZNKSt8__detail9_NFA_base8_M_startEv
	movq	%rax, %rbx
	movq	-88(%rbp), %rax
	addq	$256, %rax
	movq	%rax, %rdi
	call	__ZNKSt19__shared_ptr_accessINSt8__detail4_NFAINSt7__cxx1112regex_traitsIcEEEELN9__gnu_cxx12_Lock_policyE2ELb0ELb0EEdeEv
	movq	%rax, %rcx
	leaq	-80(%rbp), %rax
	movq	%rbx, %rdx
	movq	%rcx, %rsi
	movq	%rax, %rdi
	call	__ZNSt8__detail9_StateSeqINSt7__cxx1112regex_traitsIcEEEC1ERNS_4_NFAIS3_EEl
	movq	-88(%rbp), %rax
	addq	$256, %rax
	movq	%rax, %rdi
	call	__ZNKSt19__shared_ptr_accessINSt8__detail4_NFAINSt7__cxx1112regex_traitsIcEEEELN9__gnu_cxx12_Lock_policyE2ELb0ELb0EEptEv
	movq	%rax, %rdi
	call	__ZNSt8__detail4_NFAINSt7__cxx1112regex_traitsIcEEE23_M_insert_subexpr_beginEv
	movq	%rax, %rdx
	leaq	-80(%rbp), %rax
	movq	%rdx, %rsi
	movq	%rax, %rdi
	call	__ZNSt8__detail9_StateSeqINSt7__cxx1112regex_traitsIcEEE9_M_appendEl
	movq	-88(%rbp), %rax
	movq	%rax, %rdi
	call	__ZNSt8__detail9_CompilerINSt7__cxx1112regex_traitsIcEEE14_M_disjunctionEv
	movq	-88(%rbp), %rax
	movl	$27, %esi
	movq	%rax, %rdi
	call	__ZNSt8__detail9_CompilerINSt7__cxx1112regex_traitsIcEEE14_M_match_tokenENS_12_ScannerBase7_TokenTE
	xorl	$1, %eax
	testb	%al, %al
	je	L1012
	movl	$5, %edi
	call	__ZSt19__throw_regex_errorNSt15regex_constants10error_typeE
L1012:
	leaq	-48(%rbp), %rax
	movq	-88(%rbp), %rdx
	movq	%rdx, %rsi
	movq	%rax, %rdi
	call	__ZNSt8__detail9_CompilerINSt7__cxx1112regex_traitsIcEEE6_M_popEv
	leaq	-48(%rbp), %rdx
	leaq	-80(%rbp), %rax
	movq	%rdx, %rsi
	movq	%rax, %rdi
	call	__ZNSt8__detail9_StateSeqINSt7__cxx1112regex_traitsIcEEE9_M_appendERKS4_
	movq	-88(%rbp), %rax
	addq	$256, %rax
	movq	%rax, %rdi
	call	__ZNKSt19__shared_ptr_accessINSt8__detail4_NFAINSt7__cxx1112regex_traitsIcEEEELN9__gnu_cxx12_Lock_policyE2ELb0ELb0EEptEv
	movq	%rax, %rdi
	call	__ZNSt8__detail4_NFAINSt7__cxx1112regex_traitsIcEEE21_M_insert_subexpr_endEv
	movq	%rax, %rdx
	leaq	-80(%rbp), %rax
	movq	%rdx, %rsi
	movq	%rax, %rdi
	call	__ZNSt8__detail9_StateSeqINSt7__cxx1112regex_traitsIcEEE9_M_appendEl
	movq	-88(%rbp), %rax
	addq	$256, %rax
	movq	%rax, %rdi
	call	__ZNKSt19__shared_ptr_accessINSt8__detail4_NFAINSt7__cxx1112regex_traitsIcEEEELN9__gnu_cxx12_Lock_policyE2ELb0ELb0EEptEv
	movq	%rax, %rdi
	call	__ZNSt8__detail4_NFAINSt7__cxx1112regex_traitsIcEEE16_M_insert_acceptEv
	movq	%rax, %rdx
	leaq	-80(%rbp), %rax
	movq	%rdx, %rsi
	movq	%rax, %rdi
	call	__ZNSt8__detail9_StateSeqINSt7__cxx1112regex_traitsIcEEE9_M_appendEl
	movq	-88(%rbp), %rax
	addq	$256, %rax
	movq	%rax, %rdi
	call	__ZNKSt19__shared_ptr_accessINSt8__detail4_NFAINSt7__cxx1112regex_traitsIcEEEELN9__gnu_cxx12_Lock_policyE2ELb0ELb0EEptEv
	movq	%rax, %rdi
	call	__ZNSt8__detail4_NFAINSt7__cxx1112regex_traitsIcEEE18_M_eliminate_dummyEv
LEHE99:
	jmp	L1021
L1017:
	movq	%rax, %rbx
	leaq	-56(%rbp), %rax
	movq	%rax, %rdi
	call	__ZNSt6localeD1Ev
	movq	%rbx, %rax
	movq	%rax, %rdi
LEHB100:
	call	__Unwind_Resume
L1020:
	movq	%rax, %rbx
	movq	-88(%rbp), %rax
	addq	$304, %rax
	movq	%rax, %rdi
	call	__ZNSt5stackINSt8__detail9_StateSeqINSt7__cxx1112regex_traitsIcEEEESt5dequeIS5_SaIS5_EEED1Ev
	jmp	L1015
L1019:
	movq	%rax, %rbx
L1015:
	movq	-88(%rbp), %rax
	addq	$272, %rax
	movq	%rax, %rdi
	call	__ZNSt7__cxx1112basic_stringIcSt11char_traitsIcESaIcEED1Ev
	movq	-88(%rbp), %rax
	addq	$256, %rax
	movq	%rax, %rdi
	call	__ZNSt10shared_ptrINSt8__detail4_NFAINSt7__cxx1112regex_traitsIcEEEEED1Ev
	jmp	L1016
L1018:
	movq	%rax, %rbx
L1016:
	movq	-88(%rbp), %rax
	addq	$8, %rax
	movq	%rax, %rdi
	call	__ZNSt8__detail8_ScannerIcED1Ev
	movq	%rbx, %rax
	movq	%rax, %rdi
	call	__Unwind_Resume
LEHE100:
L1021:
	addq	$120, %rsp
	popq	%rbx
	popq	%rbp
LCFI1475:
	ret
LFE6411:
	.section __DATA,__gcc_except_tab
GCC_except_table41:
LLSDA6411:
	.byte	0xff
	.byte	0x3
	.byte	0x41
	.set L$set$250,LEHB96-LFB6411
	.long L$set$250
	.set L$set$251,LEHE96-LEHB96
	.long L$set$251
	.set L$set$252,L1017-LFB6411
	.long L$set$252
	.byte	0
	.set L$set$253,LEHB97-LFB6411
	.long L$set$253
	.set L$set$254,LEHE97-LEHB97
	.long L$set$254
	.set L$set$255,L1018-LFB6411
	.long L$set$255
	.byte	0
	.set L$set$256,LEHB98-LFB6411
	.long L$set$256
	.set L$set$257,LEHE98-LEHB98
	.long L$set$257
	.set L$set$258,L1019-LFB6411
	.long L$set$258
	.byte	0
	.set L$set$259,LEHB99-LFB6411
	.long L$set$259
	.set L$set$260,LEHE99-LEHB99
	.long L$set$260
	.set L$set$261,L1020-LFB6411
	.long L$set$261
	.byte	0
	.set L$set$262,LEHB100-LFB6411
	.long L$set$262
	.set L$set$263,LEHE100-LEHB100
	.long L$set$263
	.long	0
	.byte	0
	.section __TEXT,__textcoal_nt,coalesced,pure_instructions
	.align 1
	.globl __ZNSt5dequeINSt8__detail9_StateSeqINSt7__cxx1112regex_traitsIcEEEESaIS5_EED1Ev
	.weak_definition __ZNSt5dequeINSt8__detail9_StateSeqINSt7__cxx1112regex_traitsIcEEEESaIS5_EED1Ev
__ZNSt5dequeINSt8__detail9_StateSeqINSt7__cxx1112regex_traitsIcEEEESaIS5_EED1Ev:
LFB6414:
	pushq	%rbp
LCFI1476:
	movq	%rsp, %rbp
LCFI1477:
	pushq	%rbx
	subq	$88, %rsp
LCFI1478:
	movq	%rdi, -88(%rbp)
	movq	-88(%rbp), %rax
	movq	%rax, %rdi
	call	__ZNSt11_Deque_baseINSt8__detail9_StateSeqINSt7__cxx1112regex_traitsIcEEEESaIS5_EE19_M_get_Tp_allocatorEv
	movq	%rax, %rbx
	leaq	-80(%rbp), %rax
	movq	-88(%rbp), %rdx
	movq	%rdx, %rsi
	movq	%rax, %rdi
	call	__ZNSt5dequeINSt8__detail9_StateSeqINSt7__cxx1112regex_traitsIcEEEESaIS5_EE3endEv
	leaq	-48(%rbp), %rax
	movq	-88(%rbp), %rdx
	movq	%rdx, %rsi
	movq	%rax, %rdi
	call	__ZNSt5dequeINSt8__detail9_StateSeqINSt7__cxx1112regex_traitsIcEEEESaIS5_EE5beginEv
	movq	-88(%rbp), %rax
	pushq	-56(%rbp)
	pushq	-64(%rbp)
	pushq	-72(%rbp)
	pushq	-80(%rbp)
	pushq	-24(%rbp)
	pushq	-32(%rbp)
	pushq	-40(%rbp)
	pushq	-48(%rbp)
	movq	%rbx, %rsi
	movq	%rax, %rdi
	call	__ZNSt5dequeINSt8__detail9_StateSeqINSt7__cxx1112regex_traitsIcEEEESaIS5_EE15_M_destroy_dataESt15_Deque_iteratorIS5_RS5_PS5_ESB_RKS6_
	addq	$64, %rsp
	movq	-88(%rbp), %rax
	movq	%rax, %rdi
	call	__ZNSt11_Deque_baseINSt8__detail9_StateSeqINSt7__cxx1112regex_traitsIcEEEESaIS5_EED2Ev
	nop
	movq	-8(%rbp), %rbx
	leave
LCFI1479:
	ret
LFE6414:
	.section __DATA,__gcc_except_tab
GCC_except_table42:
LLSDA6414:
	.byte	0xff
	.byte	0x3
	.byte	0
	.section __TEXT,__textcoal_nt,coalesced,pure_instructions
	.align 1
	.globl __ZNSt8__detail9_CompilerINSt7__cxx1112regex_traitsIcEEE10_M_get_nfaEv
	.weak_definition __ZNSt8__detail9_CompilerINSt7__cxx1112regex_traitsIcEEE10_M_get_nfaEv
__ZNSt8__detail9_CompilerINSt7__cxx1112regex_traitsIcEEE10_M_get_nfaEv:
LFB6415:
	pushq	%rbp
LCFI1480:
	movq	%rsp, %rbp
LCFI1481:
	subq	$16, %rsp
	movq	%rdi, -8(%rbp)
	movq	%rsi, -16(%rbp)
	movq	-16(%rbp), %rax
	addq	$256, %rax
	movq	%rax, %rdi
	call	__ZSt4moveIRSt10shared_ptrINSt8__detail4_NFAINSt7__cxx1112regex_traitsIcEEEEEEONSt16remove_referenceIT_E4typeEOSA_
	movq	%rax, %rdx
	movq	-8(%rbp), %rax
	movq	%rdx, %rsi
	movq	%rax, %rdi
	call	__ZNSt10shared_ptrIKNSt8__detail4_NFAINSt7__cxx1112regex_traitsIcEEEEEC1IS5_vEEOS_IT_E
	movq	-8(%rbp), %rax
	leave
LCFI1482:
	ret
LFE6415:
	.align 1
	.globl __ZN9__gnu_cxx13new_allocatorINSt7__cxx119sub_matchINS_17__normal_iteratorIPKcNS1_12basic_stringIcSt11char_traitsIcESaIcEEEEEEEEC2Ev
	.weak_definition __ZN9__gnu_cxx13new_allocatorINSt7__cxx119sub_matchINS_17__normal_iteratorIPKcNS1_12basic_stringIcSt11char_traitsIcESaIcEEEEEEEEC2Ev
__ZN9__gnu_cxx13new_allocatorINSt7__cxx119sub_matchINS_17__normal_iteratorIPKcNS1_12basic_stringIcSt11char_traitsIcESaIcEEEEEEEEC2Ev:
LFB6421:
	pushq	%rbp
LCFI1483:
	movq	%rsp, %rbp
LCFI1484:
	movq	%rdi, -8(%rbp)
	nop
	popq	%rbp
LCFI1485:
	ret
LFE6421:
	.align 1
	.globl __ZN9__gnu_cxx13new_allocatorINSt7__cxx119sub_matchINS_17__normal_iteratorIPKcNS1_12basic_stringIcSt11char_traitsIcESaIcEEEEEEEED2Ev
	.weak_definition __ZN9__gnu_cxx13new_allocatorINSt7__cxx119sub_matchINS_17__normal_iteratorIPKcNS1_12basic_stringIcSt11char_traitsIcESaIcEEEEEEEED2Ev
__ZN9__gnu_cxx13new_allocatorINSt7__cxx119sub_matchINS_17__normal_iteratorIPKcNS1_12basic_stringIcSt11char_traitsIcESaIcEEEEEEEED2Ev:
LFB6424:
	pushq	%rbp
LCFI1486:
	movq	%rsp, %rbp
LCFI1487:
	movq	%rdi, -8(%rbp)
	nop
	popq	%rbp
LCFI1488:
	ret
LFE6424:
	.align 1
	.globl __ZNSt6vectorINSt7__cxx119sub_matchIN9__gnu_cxx17__normal_iteratorIPKcNS0_12basic_stringIcSt11char_traitsIcESaIcEEEEEEESaISC_EEC2ERKSD_
	.weak_definition __ZNSt6vectorINSt7__cxx119sub_matchIN9__gnu_cxx17__normal_iteratorIPKcNS0_12basic_stringIcSt11char_traitsIcESaIcEEEEEEESaISC_EEC2ERKSD_
__ZNSt6vectorINSt7__cxx119sub_matchIN9__gnu_cxx17__normal_iteratorIPKcNS0_12basic_stringIcSt11char_traitsIcESaIcEEEEEEESaISC_EEC2ERKSD_:
LFB6427:
	pushq	%rbp
LCFI1489:
	movq	%rsp, %rbp
LCFI1490:
	subq	$16, %rsp
	movq	%rdi, -8(%rbp)
	movq	%rsi, -16(%rbp)
	movq	-8(%rbp), %rax
	movq	-16(%rbp), %rdx
	movq	%rdx, %rsi
	movq	%rax, %rdi
	call	__ZNSt12_Vector_baseINSt7__cxx119sub_matchIN9__gnu_cxx17__normal_iteratorIPKcNS0_12basic_stringIcSt11char_traitsIcESaIcEEEEEEESaISC_EEC2ERKSD_
	nop
	leave
LCFI1491:
	ret
LFE6427:
	.align 1
	.globl __ZNSt6vectorINSt7__cxx119sub_matchIN9__gnu_cxx17__normal_iteratorIPKcNS0_12basic_stringIcSt11char_traitsIcESaIcEEEEEEESaISC_EEC1ERKSD_
	.weak_definition __ZNSt6vectorINSt7__cxx119sub_matchIN9__gnu_cxx17__normal_iteratorIPKcNS0_12basic_stringIcSt11char_traitsIcESaIcEEEEEEESaISC_EEC1ERKSD_
__ZNSt6vectorINSt7__cxx119sub_matchIN9__gnu_cxx17__normal_iteratorIPKcNS0_12basic_stringIcSt11char_traitsIcESaIcEEEEEEESaISC_EEC1ERKSD_:
LFB6428:
	pushq	%rbp
LCFI1492:
	movq	%rsp, %rbp
LCFI1493:
	subq	$16, %rsp
	movq	%rdi, -8(%rbp)
	movq	%rsi, -16(%rbp)
	movq	-8(%rbp), %rax
	movq	-16(%rbp), %rdx
	movq	%rdx, %rsi
	movq	%rax, %rdi
	call	__ZNSt12_Vector_baseINSt7__cxx119sub_matchIN9__gnu_cxx17__normal_iteratorIPKcNS0_12basic_stringIcSt11char_traitsIcESaIcEEEEEEESaISC_EEC2ERKSD_
	nop
	leave
LCFI1494:
	ret
LFE6428:
	.align 1
	.globl __ZN9__gnu_cxx17__normal_iteratorIPKcNSt7__cxx1112basic_stringIcSt11char_traitsIcESaIcEEEEC1Ev
	.weak_definition __ZN9__gnu_cxx17__normal_iteratorIPKcNSt7__cxx1112basic_stringIcSt11char_traitsIcESaIcEEEEC1Ev
__ZN9__gnu_cxx17__normal_iteratorIPKcNSt7__cxx1112basic_stringIcSt11char_traitsIcESaIcEEEEC1Ev:
LFB6431:
	pushq	%rbp
LCFI1495:
	movq	%rsp, %rbp
LCFI1496:
	movq	%rdi, -8(%rbp)
	movq	-8(%rbp), %rax
	movq	$0, (%rax)
	nop
	popq	%rbp
LCFI1497:
	ret
LFE6431:
	.align 1
	.globl __ZNSt12_Vector_baseINSt7__cxx119sub_matchIN9__gnu_cxx17__normal_iteratorIPKcNS0_12basic_stringIcSt11char_traitsIcESaIcEEEEEEESaISC_EE13_M_deallocateEPSC_m
	.weak_definition __ZNSt12_Vector_baseINSt7__cxx119sub_matchIN9__gnu_cxx17__normal_iteratorIPKcNS0_12basic_stringIcSt11char_traitsIcESaIcEEEEEEESaISC_EE13_M_deallocateEPSC_m
__ZNSt12_Vector_baseINSt7__cxx119sub_matchIN9__gnu_cxx17__normal_iteratorIPKcNS0_12basic_stringIcSt11char_traitsIcESaIcEEEEEEESaISC_EE13_M_deallocateEPSC_m:
LFB6432:
	pushq	%rbp
LCFI1498:
	movq	%rsp, %rbp
LCFI1499:
	subq	$32, %rsp
	movq	%rdi, -8(%rbp)
	movq	%rsi, -16(%rbp)
	movq	%rdx, -24(%rbp)
	cmpq	$0, -16(%rbp)
	je	L1032
	movq	-8(%rbp), %rax
	movq	-24(%rbp), %rdx
	movq	-16(%rbp), %rcx
	movq	%rcx, %rsi
	movq	%rax, %rdi
	call	__ZNSt16allocator_traitsISaINSt7__cxx119sub_matchIN9__gnu_cxx17__normal_iteratorIPKcNS0_12basic_stringIcSt11char_traitsIcESaIcEEEEEEEEE10deallocateERSD_PSC_m
L1032:
	nop
	leave
LCFI1500:
	ret
LFE6432:
	.globl __ZSt8_DestroyIPNSt7__cxx119sub_matchIN9__gnu_cxx17__normal_iteratorIPKcNS0_12basic_stringIcSt11char_traitsIcESaIcEEEEEEEEvT_SE_
	.weak_definition __ZSt8_DestroyIPNSt7__cxx119sub_matchIN9__gnu_cxx17__normal_iteratorIPKcNS0_12basic_stringIcSt11char_traitsIcESaIcEEEEEEEEvT_SE_
__ZSt8_DestroyIPNSt7__cxx119sub_matchIN9__gnu_cxx17__normal_iteratorIPKcNS0_12basic_stringIcSt11char_traitsIcESaIcEEEEEEEEvT_SE_:
LFB6433:
	pushq	%rbp
LCFI1501:
	movq	%rsp, %rbp
LCFI1502:
	subq	$16, %rsp
	movq	%rdi, -8(%rbp)
	movq	%rsi, -16(%rbp)
	movq	-16(%rbp), %rdx
	movq	-8(%rbp), %rax
	movq	%rdx, %rsi
	movq	%rax, %rdi
	call	__ZNSt12_Destroy_auxILb1EE9__destroyIPNSt7__cxx119sub_matchIN9__gnu_cxx17__normal_iteratorIPKcNS2_12basic_stringIcSt11char_traitsIcESaIcEEEEEEEEEvT_SG_
	nop
	leave
LCFI1503:
	ret
LFE6433:
	.globl __ZSteqIKNSt8__detail4_NFAINSt7__cxx1112regex_traitsIcEEEEEbRKSt10shared_ptrIT_EDn
	.weak_definition __ZSteqIKNSt8__detail4_NFAINSt7__cxx1112regex_traitsIcEEEEEbRKSt10shared_ptrIT_EDn
__ZSteqIKNSt8__detail4_NFAINSt7__cxx1112regex_traitsIcEEEEEbRKSt10shared_ptrIT_EDn:
LFB6434:
	pushq	%rbp
LCFI1504:
	movq	%rsp, %rbp
LCFI1505:
	subq	$16, %rsp
	movq	%rdi, -8(%rbp)
	movq	%rsi, -16(%rbp)
	movq	-8(%rbp), %rax
	movq	%rax, %rdi
	call	__ZNKSt12__shared_ptrIKNSt8__detail4_NFAINSt7__cxx1112regex_traitsIcEEEELN9__gnu_cxx12_Lock_policyE2EEcvbEv
	xorl	$1, %eax
	leave
LCFI1506:
	ret
LFE6434:
	.align 1
	.globl __ZNKSt19__shared_ptr_accessIKNSt8__detail4_NFAINSt7__cxx1112regex_traitsIcEEEELN9__gnu_cxx12_Lock_policyE2ELb0ELb0EEptEv
	.weak_definition __ZNKSt19__shared_ptr_accessIKNSt8__detail4_NFAINSt7__cxx1112regex_traitsIcEEEELN9__gnu_cxx12_Lock_policyE2ELb0ELb0EEptEv
__ZNKSt19__shared_ptr_accessIKNSt8__detail4_NFAINSt7__cxx1112regex_traitsIcEEEELN9__gnu_cxx12_Lock_policyE2ELb0ELb0EEptEv:
LFB6435:
	pushq	%rbp
LCFI1507:
	movq	%rsp, %rbp
LCFI1508:
	subq	$16, %rsp
	movq	%rdi, -8(%rbp)
	movq	-8(%rbp), %rax
	movq	%rax, %rdi
	call	__ZNKSt19__shared_ptr_accessIKNSt8__detail4_NFAINSt7__cxx1112regex_traitsIcEEEELN9__gnu_cxx12_Lock_policyE2ELb0ELb0EE6_M_getEv
	leave
LCFI1509:
	ret
LFE6435:
	.align 1
	.globl __ZNSt7__cxx1113match_resultsIN9__gnu_cxx17__normal_iteratorIPKcNS_12basic_stringIcSt11char_traitsIcESaIcEEEEESaINS_9sub_matchISA_EEEE9_M_resizeEj
	.weak_definition __ZNSt7__cxx1113match_resultsIN9__gnu_cxx17__normal_iteratorIPKcNS_12basic_stringIcSt11char_traitsIcESaIcEEEEESaINS_9sub_matchISA_EEEE9_M_resizeEj
__ZNSt7__cxx1113match_resultsIN9__gnu_cxx17__normal_iteratorIPKcNS_12basic_stringIcSt11char_traitsIcESaIcEEEEESaINS_9sub_matchISA_EEEE9_M_resizeEj:
LFB6436:
	pushq	%rbp
LCFI1510:
	movq	%rsp, %rbp
LCFI1511:
	subq	$16, %rsp
	movq	%rdi, -8(%rbp)
	movl	%esi, -12(%rbp)
	movq	-8(%rbp), %rax
	movl	-12(%rbp), %edx
	addl	$3, %edx
	movl	%edx, %edx
	movq	%rdx, %rsi
	movq	%rax, %rdi
	call	__ZNSt6vectorINSt7__cxx119sub_matchIN9__gnu_cxx17__normal_iteratorIPKcNS0_12basic_stringIcSt11char_traitsIcESaIcEEEEEEESaISC_EE6resizeEm
	nop
	leave
LCFI1512:
	ret
LFE6436:
	.align 1
	.globl __ZNSt6vectorINSt7__cxx119sub_matchIN9__gnu_cxx17__normal_iteratorIPKcNS0_12basic_stringIcSt11char_traitsIcESaIcEEEEEEESaISC_EE5beginEv
	.weak_definition __ZNSt6vectorINSt7__cxx119sub_matchIN9__gnu_cxx17__normal_iteratorIPKcNS0_12basic_stringIcSt11char_traitsIcESaIcEEEEEEESaISC_EE5beginEv
__ZNSt6vectorINSt7__cxx119sub_matchIN9__gnu_cxx17__normal_iteratorIPKcNS0_12basic_stringIcSt11char_traitsIcESaIcEEEEEEESaISC_EE5beginEv:
LFB6437:
	pushq	%rbp
LCFI1513:
	movq	%rsp, %rbp
LCFI1514:
	subq	$32, %rsp
	movq	%rdi, -24(%rbp)
	movq	-24(%rbp), %rdx
	leaq	-8(%rbp), %rax
	movq	%rdx, %rsi
	movq	%rax, %rdi
	call	__ZN9__gnu_cxx17__normal_iteratorIPNSt7__cxx119sub_matchINS0_IPKcNS1_12basic_stringIcSt11char_traitsIcESaIcEEEEEEESt6vectorISB_SaISB_EEEC1ERKSC_
	movq	-8(%rbp), %rax
	leave
LCFI1515:
	ret
LFE6437:
	.align 1
	.globl __ZNSt6vectorINSt7__cxx119sub_matchIN9__gnu_cxx17__normal_iteratorIPKcNS0_12basic_stringIcSt11char_traitsIcESaIcEEEEEEESaISC_EE3endEv
	.weak_definition __ZNSt6vectorINSt7__cxx119sub_matchIN9__gnu_cxx17__normal_iteratorIPKcNS0_12basic_stringIcSt11char_traitsIcESaIcEEEEEEESaISC_EE3endEv
__ZNSt6vectorINSt7__cxx119sub_matchIN9__gnu_cxx17__normal_iteratorIPKcNS0_12basic_stringIcSt11char_traitsIcESaIcEEEEEEESaISC_EE3endEv:
LFB6438:
	pushq	%rbp
LCFI1516:
	movq	%rsp, %rbp
LCFI1517:
	subq	$32, %rsp
	movq	%rdi, -24(%rbp)
	movq	-24(%rbp), %rax
	leaq	8(%rax), %rdx
	leaq	-8(%rbp), %rax
	movq	%rdx, %rsi
	movq	%rax, %rdi
	call	__ZN9__gnu_cxx17__normal_iteratorIPNSt7__cxx119sub_matchINS0_IPKcNS1_12basic_stringIcSt11char_traitsIcESaIcEEEEEEESt6vectorISB_SaISB_EEEC1ERKSC_
	movq	-8(%rbp), %rax
	leave
LCFI1518:
	ret
LFE6438:
	.globl __ZN9__gnu_cxxneIPNSt7__cxx119sub_matchINS_17__normal_iteratorIPKcNS1_12basic_stringIcSt11char_traitsIcESaIcEEEEEEESt6vectorISC_SaISC_EEEEbRKNS3_IT_T0_EESL_
	.weak_definition __ZN9__gnu_cxxneIPNSt7__cxx119sub_matchINS_17__normal_iteratorIPKcNS1_12basic_stringIcSt11char_traitsIcESaIcEEEEEEESt6vectorISC_SaISC_EEEEbRKNS3_IT_T0_EESL_
__ZN9__gnu_cxxneIPNSt7__cxx119sub_matchINS_17__normal_iteratorIPKcNS1_12basic_stringIcSt11char_traitsIcESaIcEEEEEEESt6vectorISC_SaISC_EEEEbRKNS3_IT_T0_EESL_:
LFB6439:
	pushq	%rbp
LCFI1519:
	movq	%rsp, %rbp
LCFI1520:
	pushq	%rbx
	subq	$24, %rsp
LCFI1521:
	movq	%rdi, -24(%rbp)
	movq	%rsi, -32(%rbp)
	movq	-24(%rbp), %rax
	movq	%rax, %rdi
	call	__ZNK9__gnu_cxx17__normal_iteratorIPNSt7__cxx119sub_matchINS0_IPKcNS1_12basic_stringIcSt11char_traitsIcESaIcEEEEEEESt6vectorISB_SaISB_EEE4baseEv
	movq	(%rax), %rbx
	movq	-32(%rbp), %rax
	movq	%rax, %rdi
	call	__ZNK9__gnu_cxx17__normal_iteratorIPNSt7__cxx119sub_matchINS0_IPKcNS1_12basic_stringIcSt11char_traitsIcESaIcEEEEEEESt6vectorISB_SaISB_EEE4baseEv
	movq	(%rax), %rax
	cmpq	%rax, %rbx
	setne	%al
	addq	$24, %rsp
	popq	%rbx
	popq	%rbp
LCFI1522:
	ret
LFE6439:
	.align 1
	.globl __ZN9__gnu_cxx17__normal_iteratorIPNSt7__cxx119sub_matchINS0_IPKcNS1_12basic_stringIcSt11char_traitsIcESaIcEEEEEEESt6vectorISB_SaISB_EEEppEv
	.weak_definition __ZN9__gnu_cxx17__normal_iteratorIPNSt7__cxx119sub_matchINS0_IPKcNS1_12basic_stringIcSt11char_traitsIcESaIcEEEEEEESt6vectorISB_SaISB_EEEppEv
__ZN9__gnu_cxx17__normal_iteratorIPNSt7__cxx119sub_matchINS0_IPKcNS1_12basic_stringIcSt11char_traitsIcESaIcEEEEEEESt6vectorISB_SaISB_EEEppEv:
LFB6440:
	pushq	%rbp
LCFI1523:
	movq	%rsp, %rbp
LCFI1524:
	movq	%rdi, -8(%rbp)
	movq	-8(%rbp), %rax
	movq	(%rax), %rax
	leaq	24(%rax), %rdx
	movq	-8(%rbp), %rax
	movq	%rdx, (%rax)
	movq	-8(%rbp), %rax
	popq	%rbp
LCFI1525:
	ret
LFE6440:
	.align 1
	.globl __ZNK9__gnu_cxx17__normal_iteratorIPNSt7__cxx119sub_matchINS0_IPKcNS1_12basic_stringIcSt11char_traitsIcESaIcEEEEEEESt6vectorISB_SaISB_EEEdeEv
	.weak_definition __ZNK9__gnu_cxx17__normal_iteratorIPNSt7__cxx119sub_matchINS0_IPKcNS1_12basic_stringIcSt11char_traitsIcESaIcEEEEEEESt6vectorISB_SaISB_EEEdeEv
__ZNK9__gnu_cxx17__normal_iteratorIPNSt7__cxx119sub_matchINS0_IPKcNS1_12basic_stringIcSt11char_traitsIcESaIcEEEEEEESt6vectorISB_SaISB_EEEdeEv:
LFB6441:
	pushq	%rbp
LCFI1526:
	movq	%rsp, %rbp
LCFI1527:
	movq	%rdi, -8(%rbp)
	movq	-8(%rbp), %rax
	movq	(%rax), %rax
	popq	%rbp
LCFI1528:
	ret
LFE6441:
	.align 1
	.globl __ZNKSt7__cxx1111basic_regexIcNS_12regex_traitsIcEEE5flagsEv
	.weak_definition __ZNKSt7__cxx1111basic_regexIcNS_12regex_traitsIcEEE5flagsEv
__ZNKSt7__cxx1111basic_regexIcNS_12regex_traitsIcEEE5flagsEv:
LFB6442:
	pushq	%rbp
LCFI1529:
	movq	%rsp, %rbp
LCFI1530:
	movq	%rdi, -8(%rbp)
	movq	-8(%rbp), %rax
	movl	(%rax), %eax
	popq	%rbp
LCFI1531:
	ret
LFE6442:
	.align 1
	.globl __ZNSt12_Vector_baseINSt7__cxx119sub_matchIN9__gnu_cxx17__normal_iteratorIPKcNS0_12basic_stringIcSt11char_traitsIcESaIcEEEEEEESaISC_EEC2Ev
	.weak_definition __ZNSt12_Vector_baseINSt7__cxx119sub_matchIN9__gnu_cxx17__normal_iteratorIPKcNS0_12basic_stringIcSt11char_traitsIcESaIcEEEEEEESaISC_EEC2Ev
__ZNSt12_Vector_baseINSt7__cxx119sub_matchIN9__gnu_cxx17__normal_iteratorIPKcNS0_12basic_stringIcSt11char_traitsIcESaIcEEEEEEESaISC_EEC2Ev:
LFB6446:
	pushq	%rbp
LCFI1532:
	movq	%rsp, %rbp
LCFI1533:
	subq	$16, %rsp
	movq	%rdi, -8(%rbp)
	movq	-8(%rbp), %rax
	movq	%rax, %rdi
	call	__ZNSt12_Vector_baseINSt7__cxx119sub_matchIN9__gnu_cxx17__normal_iteratorIPKcNS0_12basic_stringIcSt11char_traitsIcESaIcEEEEEEESaISC_EE12_Vector_implC1Ev
	nop
	leave
LCFI1534:
	ret
LFE6446:
	.align 1
	.globl __ZNSt6vectorINSt7__cxx119sub_matchIN9__gnu_cxx17__normal_iteratorIPKcNS0_12basic_stringIcSt11char_traitsIcESaIcEEEEEEESaISC_EEC1Ev
	.weak_definition __ZNSt6vectorINSt7__cxx119sub_matchIN9__gnu_cxx17__normal_iteratorIPKcNS0_12basic_stringIcSt11char_traitsIcESaIcEEEEEEESaISC_EEC1Ev
__ZNSt6vectorINSt7__cxx119sub_matchIN9__gnu_cxx17__normal_iteratorIPKcNS0_12basic_stringIcSt11char_traitsIcESaIcEEEEEEESaISC_EEC1Ev:
LFB6449:
	pushq	%rbp
LCFI1535:
	movq	%rsp, %rbp
LCFI1536:
	subq	$16, %rsp
	movq	%rdi, -8(%rbp)
	movq	-8(%rbp), %rax
	movq	%rax, %rdi
	call	__ZNSt12_Vector_baseINSt7__cxx119sub_matchIN9__gnu_cxx17__normal_iteratorIPKcNS0_12basic_stringIcSt11char_traitsIcESaIcEEEEEEESaISC_EEC2Ev
	nop
	leave
LCFI1537:
	ret
LFE6449:
	.align 1
	.globl __ZNSt8__detail9_ExecutorIN9__gnu_cxx17__normal_iteratorIPKcNSt7__cxx1112basic_stringIcSt11char_traitsIcESaIcEEEEESaINS5_9sub_matchISB_EEENS5_12regex_traitsIcEELb0EEC1ESB_SB_RSt6vectorISD_SE_ERKNS5_11basic_regexIcSG_EENSt15regex_constants15match_flag_typeE
	.weak_definition __ZNSt8__detail9_ExecutorIN9__gnu_cxx17__normal_iteratorIPKcNSt7__cxx1112basic_stringIcSt11char_traitsIcESaIcEEEEESaINS5_9sub_matchISB_EEENS5_12regex_traitsIcEELb0EEC1ESB_SB_RSt6vectorISD_SE_ERKNS5_11basic_regexIcSG_EENSt15regex_constants15match_flag_typeE
__ZNSt8__detail9_ExecutorIN9__gnu_cxx17__normal_iteratorIPKcNSt7__cxx1112basic_stringIcSt11char_traitsIcESaIcEEEEESaINS5_9sub_matchISB_EEENS5_12regex_traitsIcEELb0EEC1ESB_SB_RSt6vectorISD_SE_ERKNS5_11basic_regexIcSG_EENSt15regex_constants15match_flag_typeE:
LFB6451:
	pushq	%rbp
LCFI1538:
	movq	%rsp, %rbp
LCFI1539:
	pushq	%r12
	pushq	%rbx
	subq	$64, %rsp
LCFI1540:
	movq	%rdi, -40(%rbp)
	movq	%rsi, -48(%rbp)
	movq	%rdx, -56(%rbp)
	movq	%rcx, -64(%rbp)
	movq	%r8, -72(%rbp)
	movl	%r9d, -76(%rbp)
	movq	-40(%rbp), %rax
	movq	%rax, %rdi
	call	__ZNSt6vectorINSt7__cxx119sub_matchIN9__gnu_cxx17__normal_iteratorIPKcNS0_12basic_stringIcSt11char_traitsIcESaIcEEEEEEESaISC_EEC1Ev
	movq	-40(%rbp), %rax
	addq	$24, %rax
	movq	%rax, %rdi
	call	__ZN9__gnu_cxx17__normal_iteratorIPKcNSt7__cxx1112basic_stringIcSt11char_traitsIcESaIcEEEEC1Ev
	movq	-40(%rbp), %rax
	movq	-48(%rbp), %rdx
	movq	%rdx, 32(%rax)
	movq	-40(%rbp), %rax
	addq	$40, %rax
	movq	-56(%rbp), %rdx
	movq	%rdx, (%rax)
	movq	-40(%rbp), %rax
	movq	-72(%rbp), %rdx
	movq	%rdx, 48(%rax)
	movq	-72(%rbp), %rax
	addq	$16, %rax
	movq	%rax, %rdi
	call	__ZNKSt19__shared_ptr_accessIKNSt8__detail4_NFAINSt7__cxx1112regex_traitsIcEEEELN9__gnu_cxx12_Lock_policyE2ELb0ELb0EEdeEv
	movq	-40(%rbp), %rdx
	movq	%rax, 56(%rdx)
	movq	-40(%rbp), %rax
	movq	-64(%rbp), %rdx
	movq	%rdx, 64(%rax)
	movq	-40(%rbp), %rax
	leaq	72(%rax), %rbx
	leaq	-17(%rbp), %rax
	movq	%rax, %rdi
	call	__ZNSaISt4pairIN9__gnu_cxx17__normal_iteratorIPKcNSt7__cxx1112basic_stringIcSt11char_traitsIcESaIcEEEEEiEEC1Ev
	movq	-40(%rbp), %rax
	movq	56(%rax), %rax
	addq	$56, %rax
	movq	%rax, %rdi
	call	__ZNKSt6vectorINSt8__detail6_StateIcEESaIS2_EE4sizeEv
	movq	%rax, %rcx
	leaq	-17(%rbp), %rax
	movq	%rax, %rdx
	movq	%rcx, %rsi
	movq	%rbx, %rdi
LEHB101:
	call	__ZNSt6vectorISt4pairIN9__gnu_cxx17__normal_iteratorIPKcNSt7__cxx1112basic_stringIcSt11char_traitsIcESaIcEEEEEiESaISC_EEC1EmRKSD_
LEHE101:
	leaq	-17(%rbp), %rax
	movq	%rax, %rdi
	call	__ZNSaISt4pairIN9__gnu_cxx17__normal_iteratorIPKcNSt7__cxx1112basic_stringIcSt11char_traitsIcESaIcEEEEEiEED1Ev
	movq	-40(%rbp), %rax
	leaq	96(%rax), %rbx
	movq	-40(%rbp), %rax
	movq	56(%rax), %rax
	addq	$56, %rax
	movq	%rax, %rdi
	call	__ZNKSt6vectorINSt8__detail6_StateIcEESaIS2_EE4sizeEv
	movq	%rax, %r12
	movq	-40(%rbp), %rax
	movq	56(%rax), %rax
	movq	%rax, %rdi
	call	__ZNKSt8__detail9_NFA_base8_M_startEv
	movq	%r12, %rdx
	movq	%rax, %rsi
	movq	%rbx, %rdi
LEHB102:
	call	__ZNSt8__detail9_ExecutorIN9__gnu_cxx17__normal_iteratorIPKcNSt7__cxx1112basic_stringIcSt11char_traitsIcESaIcEEEEESaINS5_9sub_matchISB_EEENS5_12regex_traitsIcEELb0EE11_State_infoISt17integral_constantIbLb0EESt6vectorISD_SE_EEC1Elm
LEHE102:
	movl	-76(%rbp), %eax
	movl	$128, %esi
	movl	%eax, %edi
	call	__ZNSt15regex_constantsanENS_15match_flag_typeES0_
	testl	%eax, %eax
	je	L1054
	movl	$4, %edi
	call	__ZNSt15regex_constantscoENS_15match_flag_typeE
	movl	%eax, %ebx
	movl	$1, %edi
	call	__ZNSt15regex_constantscoENS_15match_flag_typeE
	movl	%eax, %edx
	movl	-76(%rbp), %eax
	movl	%edx, %esi
	movl	%eax, %edi
	call	__ZNSt15regex_constantsanENS_15match_flag_typeES0_
	movl	%ebx, %esi
	movl	%eax, %edi
	call	__ZNSt15regex_constantsanENS_15match_flag_typeES0_
	jmp	L1055
L1054:
	movl	-76(%rbp), %eax
L1055:
	movq	-40(%rbp), %rdx
	movl	%eax, 136(%rdx)
	jmp	L1061
L1059:
	movq	%rax, %rbx
	leaq	-17(%rbp), %rax
	movq	%rax, %rdi
	call	__ZNSaISt4pairIN9__gnu_cxx17__normal_iteratorIPKcNSt7__cxx1112basic_stringIcSt11char_traitsIcESaIcEEEEEiEED1Ev
	jmp	L1057
L1060:
	movq	%rax, %rbx
	movq	-40(%rbp), %rax
	addq	$72, %rax
	movq	%rax, %rdi
	call	__ZNSt6vectorISt4pairIN9__gnu_cxx17__normal_iteratorIPKcNSt7__cxx1112basic_stringIcSt11char_traitsIcESaIcEEEEEiESaISC_EED1Ev
L1057:
	movq	-40(%rbp), %rax
	movq	%rax, %rdi
	call	__ZNSt6vectorINSt7__cxx119sub_matchIN9__gnu_cxx17__normal_iteratorIPKcNS0_12basic_stringIcSt11char_traitsIcESaIcEEEEEEESaISC_EED1Ev
	movq	%rbx, %rax
	movq	%rax, %rdi
LEHB103:
	call	__Unwind_Resume
LEHE103:
L1061:
	addq	$64, %rsp
	popq	%rbx
	popq	%r12
	popq	%rbp
LCFI1541:
	ret
LFE6451:
	.section __DATA,__gcc_except_tab
GCC_except_table43:
LLSDA6451:
	.byte	0xff
	.byte	0x3
	.byte	0x27
	.set L$set$264,LEHB101-LFB6451
	.long L$set$264
	.set L$set$265,LEHE101-LEHB101
	.long L$set$265
	.set L$set$266,L1059-LFB6451
	.long L$set$266
	.byte	0
	.set L$set$267,LEHB102-LFB6451
	.long L$set$267
	.set L$set$268,LEHE102-LEHB102
	.long L$set$268
	.set L$set$269,L1060-LFB6451
	.long L$set$269
	.byte	0
	.set L$set$270,LEHB103-LFB6451
	.long L$set$270
	.set L$set$271,LEHE103-LEHB103
	.long L$set$271
	.long	0
	.byte	0
	.section __TEXT,__textcoal_nt,coalesced,pure_instructions
	.align 1
	.globl __ZNSt6vectorISt4pairIN9__gnu_cxx17__normal_iteratorIPKcNSt7__cxx1112basic_stringIcSt11char_traitsIcESaIcEEEEEiESaISC_EED1Ev
	.weak_definition __ZNSt6vectorISt4pairIN9__gnu_cxx17__normal_iteratorIPKcNSt7__cxx1112basic_stringIcSt11char_traitsIcESaIcEEEEEiESaISC_EED1Ev
__ZNSt6vectorISt4pairIN9__gnu_cxx17__normal_iteratorIPKcNSt7__cxx1112basic_stringIcSt11char_traitsIcESaIcEEEEEiESaISC_EED1Ev:
LFB6454:
	pushq	%rbp
LCFI1542:
	movq	%rsp, %rbp
LCFI1543:
	subq	$16, %rsp
	movq	%rdi, -8(%rbp)
	movq	-8(%rbp), %rax
	movq	%rax, %rdi
	call	__ZNSt12_Vector_baseISt4pairIN9__gnu_cxx17__normal_iteratorIPKcNSt7__cxx1112basic_stringIcSt11char_traitsIcESaIcEEEEEiESaISC_EE19_M_get_Tp_allocatorEv
	movq	%rax, %rdx
	movq	-8(%rbp), %rax
	movq	8(%rax), %rcx
	movq	-8(%rbp), %rax
	movq	(%rax), %rax
	movq	%rcx, %rsi
	movq	%rax, %rdi
	call	__ZSt8_DestroyIPSt4pairIN9__gnu_cxx17__normal_iteratorIPKcNSt7__cxx1112basic_stringIcSt11char_traitsIcESaIcEEEEEiESC_EvT_SE_RSaIT0_E
	movq	-8(%rbp), %rax
	movq	%rax, %rdi
	call	__ZNSt12_Vector_baseISt4pairIN9__gnu_cxx17__normal_iteratorIPKcNSt7__cxx1112basic_stringIcSt11char_traitsIcESaIcEEEEEiESaISC_EED2Ev
	nop
	leave
LCFI1544:
	ret
LFE6454:
	.section __DATA,__gcc_except_tab
GCC_except_table44:
LLSDA6454:
	.byte	0xff
	.byte	0x3
	.byte	0
	.section __TEXT,__textcoal_nt,coalesced,pure_instructions
	.align 1
	.globl __ZNSt6vectorISt4pairIlS_INSt7__cxx119sub_matchIN9__gnu_cxx17__normal_iteratorIPKcNS1_12basic_stringIcSt11char_traitsIcESaIcEEEEEEESaISD_EEESaISG_EED1Ev
	.weak_definition __ZNSt6vectorISt4pairIlS_INSt7__cxx119sub_matchIN9__gnu_cxx17__normal_iteratorIPKcNS1_12basic_stringIcSt11char_traitsIcESaIcEEEEEEESaISD_EEESaISG_EED1Ev
__ZNSt6vectorISt4pairIlS_INSt7__cxx119sub_matchIN9__gnu_cxx17__normal_iteratorIPKcNS1_12basic_stringIcSt11char_traitsIcESaIcEEEEEEESaISD_EEESaISG_EED1Ev:
LFB6457:
	pushq	%rbp
LCFI1545:
	movq	%rsp, %rbp
LCFI1546:
	subq	$16, %rsp
	movq	%rdi, -8(%rbp)
	movq	-8(%rbp), %rax
	movq	%rax, %rdi
	call	__ZNSt12_Vector_baseISt4pairIlSt6vectorINSt7__cxx119sub_matchIN9__gnu_cxx17__normal_iteratorIPKcNS2_12basic_stringIcSt11char_traitsIcESaIcEEEEEEESaISE_EEESaISH_EE19_M_get_Tp_allocatorEv
	movq	%rax, %rdx
	movq	-8(%rbp), %rax
	movq	8(%rax), %rcx
	movq	-8(%rbp), %rax
	movq	(%rax), %rax
	movq	%rcx, %rsi
	movq	%rax, %rdi
	call	__ZSt8_DestroyIPSt4pairIlSt6vectorINSt7__cxx119sub_matchIN9__gnu_cxx17__normal_iteratorIPKcNS2_12basic_stringIcSt11char_traitsIcESaIcEEEEEEESaISE_EEESH_EvT_SJ_RSaIT0_E
	movq	-8(%rbp), %rax
	movq	%rax, %rdi
	call	__ZNSt12_Vector_baseISt4pairIlSt6vectorINSt7__cxx119sub_matchIN9__gnu_cxx17__normal_iteratorIPKcNS2_12basic_stringIcSt11char_traitsIcESaIcEEEEEEESaISE_EEESaISH_EED2Ev
	nop
	leave
LCFI1547:
	ret
LFE6457:
	.section __DATA,__gcc_except_tab
GCC_except_table45:
LLSDA6457:
	.byte	0xff
	.byte	0x3
	.byte	0
	.section __TEXT,__textcoal_nt,coalesced,pure_instructions
	.align 1
	.globl __ZNSt10unique_ptrIA_bSt14default_deleteIS0_EED1Ev
	.weak_definition __ZNSt10unique_ptrIA_bSt14default_deleteIS0_EED1Ev
__ZNSt10unique_ptrIA_bSt14default_deleteIS0_EED1Ev:
LFB6460:
	pushq	%rbp
LCFI1548:
	movq	%rsp, %rbp
LCFI1549:
	subq	$32, %rsp
	movq	%rdi, -24(%rbp)
	movq	-24(%rbp), %rax
	movq	%rax, %rdi
	call	__ZNSt15__uniq_ptr_implIbSt14default_deleteIA_bEE6_M_ptrEv
	movq	%rax, -8(%rbp)
	movq	-8(%rbp), %rax
	movq	(%rax), %rax
	testq	%rax, %rax
	je	L1065
	movq	-24(%rbp), %rax
	movq	%rax, %rdi
	call	__ZNSt10unique_ptrIA_bSt14default_deleteIS0_EE11get_deleterEv
	movq	%rax, %rdx
	movq	-8(%rbp), %rax
	movq	(%rax), %rax
	movq	%rax, %rsi
	movq	%rdx, %rdi
	call	__ZNKSt14default_deleteIA_bEclIbEENSt9enable_ifIXsrSt14is_convertibleIPA_T_PS0_E5valueEvE4typeEPS5_
L1065:
	movq	-8(%rbp), %rax
	movq	$0, (%rax)
	nop
	leave
LCFI1550:
	ret
LFE6460:
	.align 1
	.globl __ZNSt8__detail9_ExecutorIN9__gnu_cxx17__normal_iteratorIPKcNSt7__cxx1112basic_stringIcSt11char_traitsIcESaIcEEEEESaINS5_9sub_matchISB_EEENS5_12regex_traitsIcEELb0EE9_M_searchEv
	.weak_definition __ZNSt8__detail9_ExecutorIN9__gnu_cxx17__normal_iteratorIPKcNSt7__cxx1112basic_stringIcSt11char_traitsIcESaIcEEEEESaINS5_9sub_matchISB_EEENS5_12regex_traitsIcEELb0EE9_M_searchEv
__ZNSt8__detail9_ExecutorIN9__gnu_cxx17__normal_iteratorIPKcNSt7__cxx1112basic_stringIcSt11char_traitsIcESaIcEEEEESaINS5_9sub_matchISB_EEENS5_12regex_traitsIcEELb0EE9_M_searchEv:
LFB6462:
	pushq	%rbp
LCFI1551:
	movq	%rsp, %rbp
LCFI1552:
	subq	$16, %rsp
	movq	%rdi, -8(%rbp)
	movq	-8(%rbp), %rax
	movq	%rax, %rdi
	call	__ZNSt8__detail9_ExecutorIN9__gnu_cxx17__normal_iteratorIPKcNSt7__cxx1112basic_stringIcSt11char_traitsIcESaIcEEEEESaINS5_9sub_matchISB_EEENS5_12regex_traitsIcEELb0EE20_M_search_from_firstEv
	testb	%al, %al
	je	L1067
	movl	$1, %eax
	jmp	L1068
L1067:
	movq	-8(%rbp), %rax
	movl	136(%rax), %eax
	movl	$64, %esi
	movl	%eax, %edi
	call	__ZNSt15regex_constantsanENS_15match_flag_typeES0_
	testl	%eax, %eax
	setne	%al
	testb	%al, %al
	je	L1069
	movl	$0, %eax
	jmp	L1068
L1069:
	movq	-8(%rbp), %rax
	addq	$136, %rax
	movl	$128, %esi
	movq	%rax, %rdi
	call	__ZNSt15regex_constantsoRERNS_15match_flag_typeES0_
L1072:
	movq	-8(%rbp), %rax
	leaq	40(%rax), %rdx
	movq	-8(%rbp), %rax
	addq	$32, %rax
	movq	%rdx, %rsi
	movq	%rax, %rdi
	call	__ZN9__gnu_cxxneIPKcNSt7__cxx1112basic_stringIcSt11char_traitsIcESaIcEEEEEbRKNS_17__normal_iteratorIT_T0_EESE_
	testb	%al, %al
	je	L1070
	movq	-8(%rbp), %rax
	addq	$32, %rax
	movq	%rax, %rdi
	call	__ZN9__gnu_cxx17__normal_iteratorIPKcNSt7__cxx1112basic_stringIcSt11char_traitsIcESaIcEEEEppEv
	movq	-8(%rbp), %rax
	movq	%rax, %rdi
	call	__ZNSt8__detail9_ExecutorIN9__gnu_cxx17__normal_iteratorIPKcNSt7__cxx1112basic_stringIcSt11char_traitsIcESaIcEEEEESaINS5_9sub_matchISB_EEENS5_12regex_traitsIcEELb0EE20_M_search_from_firstEv
	testb	%al, %al
	je	L1072
	movl	$1, %eax
	jmp	L1068
L1070:
	movl	$0, %eax
L1068:
	leave
LCFI1553:
	ret
LFE6462:
	.align 1
	.globl __ZNSt8__detail9_ExecutorIN9__gnu_cxx17__normal_iteratorIPKcNSt7__cxx1112basic_stringIcSt11char_traitsIcESaIcEEEEESaINS5_9sub_matchISB_EEENS5_12regex_traitsIcEELb1EEC1ESB_SB_RSt6vectorISD_SE_ERKNS5_11basic_regexIcSG_EENSt15regex_constants15match_flag_typeE
	.weak_definition __ZNSt8__detail9_ExecutorIN9__gnu_cxx17__normal_iteratorIPKcNSt7__cxx1112basic_stringIcSt11char_traitsIcESaIcEEEEESaINS5_9sub_matchISB_EEENS5_12regex_traitsIcEELb1EEC1ESB_SB_RSt6vectorISD_SE_ERKNS5_11basic_regexIcSG_EENSt15regex_constants15match_flag_typeE
__ZNSt8__detail9_ExecutorIN9__gnu_cxx17__normal_iteratorIPKcNSt7__cxx1112basic_stringIcSt11char_traitsIcESaIcEEEEESaINS5_9sub_matchISB_EEENS5_12regex_traitsIcEELb1EEC1ESB_SB_RSt6vectorISD_SE_ERKNS5_11basic_regexIcSG_EENSt15regex_constants15match_flag_typeE:
LFB6465:
	pushq	%rbp
LCFI1554:
	movq	%rsp, %rbp
LCFI1555:
	pushq	%r12
	pushq	%rbx
	subq	$64, %rsp
LCFI1556:
	movq	%rdi, -40(%rbp)
	movq	%rsi, -48(%rbp)
	movq	%rdx, -56(%rbp)
	movq	%rcx, -64(%rbp)
	movq	%r8, -72(%rbp)
	movl	%r9d, -76(%rbp)
	movq	-40(%rbp), %rax
	movq	%rax, %rdi
	call	__ZNSt6vectorINSt7__cxx119sub_matchIN9__gnu_cxx17__normal_iteratorIPKcNS0_12basic_stringIcSt11char_traitsIcESaIcEEEEEEESaISC_EEC1Ev
	movq	-40(%rbp), %rax
	addq	$24, %rax
	movq	%rax, %rdi
	call	__ZN9__gnu_cxx17__normal_iteratorIPKcNSt7__cxx1112basic_stringIcSt11char_traitsIcESaIcEEEEC1Ev
	movq	-40(%rbp), %rax
	movq	-48(%rbp), %rdx
	movq	%rdx, 32(%rax)
	movq	-40(%rbp), %rax
	addq	$40, %rax
	movq	-56(%rbp), %rdx
	movq	%rdx, (%rax)
	movq	-40(%rbp), %rax
	movq	-72(%rbp), %rdx
	movq	%rdx, 48(%rax)
	movq	-72(%rbp), %rax
	addq	$16, %rax
	movq	%rax, %rdi
	call	__ZNKSt19__shared_ptr_accessIKNSt8__detail4_NFAINSt7__cxx1112regex_traitsIcEEEELN9__gnu_cxx12_Lock_policyE2ELb0ELb0EEdeEv
	movq	-40(%rbp), %rdx
	movq	%rax, 56(%rdx)
	movq	-40(%rbp), %rax
	movq	-64(%rbp), %rdx
	movq	%rdx, 64(%rax)
	movq	-40(%rbp), %rax
	leaq	72(%rax), %rbx
	leaq	-17(%rbp), %rax
	movq	%rax, %rdi
	call	__ZNSaISt4pairIN9__gnu_cxx17__normal_iteratorIPKcNSt7__cxx1112basic_stringIcSt11char_traitsIcESaIcEEEEEiEEC1Ev
	movq	-40(%rbp), %rax
	movq	56(%rax), %rax
	addq	$56, %rax
	movq	%rax, %rdi
	call	__ZNKSt6vectorINSt8__detail6_StateIcEESaIS2_EE4sizeEv
	movq	%rax, %rcx
	leaq	-17(%rbp), %rax
	movq	%rax, %rdx
	movq	%rcx, %rsi
	movq	%rbx, %rdi
LEHB104:
	call	__ZNSt6vectorISt4pairIN9__gnu_cxx17__normal_iteratorIPKcNSt7__cxx1112basic_stringIcSt11char_traitsIcESaIcEEEEEiESaISC_EEC1EmRKSD_
LEHE104:
	leaq	-17(%rbp), %rax
	movq	%rax, %rdi
	call	__ZNSaISt4pairIN9__gnu_cxx17__normal_iteratorIPKcNSt7__cxx1112basic_stringIcSt11char_traitsIcESaIcEEEEEiEED1Ev
	movq	-40(%rbp), %rax
	leaq	96(%rax), %rbx
	movq	-40(%rbp), %rax
	movq	56(%rax), %rax
	addq	$56, %rax
	movq	%rax, %rdi
	call	__ZNKSt6vectorINSt8__detail6_StateIcEESaIS2_EE4sizeEv
	movq	%rax, %r12
	movq	-40(%rbp), %rax
	movq	56(%rax), %rax
	movq	%rax, %rdi
	call	__ZNKSt8__detail9_NFA_base8_M_startEv
	movq	%r12, %rdx
	movq	%rax, %rsi
	movq	%rbx, %rdi
	call	__ZNSt8__detail9_ExecutorIN9__gnu_cxx17__normal_iteratorIPKcNSt7__cxx1112basic_stringIcSt11char_traitsIcESaIcEEEEESaINS5_9sub_matchISB_EEENS5_12regex_traitsIcEELb1EE11_State_infoISt17integral_constantIbLb1EESt6vectorISD_SE_EEC1Elm
	movl	-76(%rbp), %eax
	movl	$128, %esi
	movl	%eax, %edi
	call	__ZNSt15regex_constantsanENS_15match_flag_typeES0_
	testl	%eax, %eax
	je	L1074
	movl	$4, %edi
	call	__ZNSt15regex_constantscoENS_15match_flag_typeE
	movl	%eax, %ebx
	movl	$1, %edi
	call	__ZNSt15regex_constantscoENS_15match_flag_typeE
	movl	%eax, %edx
	movl	-76(%rbp), %eax
	movl	%edx, %esi
	movl	%eax, %edi
	call	__ZNSt15regex_constantsanENS_15match_flag_typeES0_
	movl	%ebx, %esi
	movl	%eax, %edi
	call	__ZNSt15regex_constantsanENS_15match_flag_typeES0_
	jmp	L1075
L1074:
	movl	-76(%rbp), %eax
L1075:
	movq	-40(%rbp), %rdx
	movl	%eax, 112(%rdx)
	jmp	L1078
L1077:
	movq	%rax, %rbx
	leaq	-17(%rbp), %rax
	movq	%rax, %rdi
	call	__ZNSaISt4pairIN9__gnu_cxx17__normal_iteratorIPKcNSt7__cxx1112basic_stringIcSt11char_traitsIcESaIcEEEEEiEED1Ev
	movq	-40(%rbp), %rax
	movq	%rax, %rdi
	call	__ZNSt6vectorINSt7__cxx119sub_matchIN9__gnu_cxx17__normal_iteratorIPKcNS0_12basic_stringIcSt11char_traitsIcESaIcEEEEEEESaISC_EED1Ev
	movq	%rbx, %rax
	movq	%rax, %rdi
LEHB105:
	call	__Unwind_Resume
LEHE105:
L1078:
	addq	$64, %rsp
	popq	%rbx
	popq	%r12
	popq	%rbp
LCFI1557:
	ret
LFE6465:
	.section __DATA,__gcc_except_tab
GCC_except_table46:
LLSDA6465:
	.byte	0xff
	.byte	0x3
	.byte	0x1a
	.set L$set$272,LEHB104-LFB6465
	.long L$set$272
	.set L$set$273,LEHE104-LEHB104
	.long L$set$273
	.set L$set$274,L1077-LFB6465
	.long L$set$274
	.byte	0
	.set L$set$275,LEHB105-LFB6465
	.long L$set$275
	.set L$set$276,LEHE105-LEHB105
	.long L$set$276
	.long	0
	.byte	0
	.section __TEXT,__textcoal_nt,coalesced,pure_instructions
	.align 1
	.globl __ZNSt8__detail9_ExecutorIN9__gnu_cxx17__normal_iteratorIPKcNSt7__cxx1112basic_stringIcSt11char_traitsIcESaIcEEEEESaINS5_9sub_matchISB_EEENS5_12regex_traitsIcEELb1EE9_M_searchEv
	.weak_definition __ZNSt8__detail9_ExecutorIN9__gnu_cxx17__normal_iteratorIPKcNSt7__cxx1112basic_stringIcSt11char_traitsIcESaIcEEEEESaINS5_9sub_matchISB_EEENS5_12regex_traitsIcEELb1EE9_M_searchEv
__ZNSt8__detail9_ExecutorIN9__gnu_cxx17__normal_iteratorIPKcNSt7__cxx1112basic_stringIcSt11char_traitsIcESaIcEEEEESaINS5_9sub_matchISB_EEENS5_12regex_traitsIcEELb1EE9_M_searchEv:
LFB6467:
	pushq	%rbp
LCFI1558:
	movq	%rsp, %rbp
LCFI1559:
	subq	$16, %rsp
	movq	%rdi, -8(%rbp)
	movq	-8(%rbp), %rax
	movq	%rax, %rdi
	call	__ZNSt8__detail9_ExecutorIN9__gnu_cxx17__normal_iteratorIPKcNSt7__cxx1112basic_stringIcSt11char_traitsIcESaIcEEEEESaINS5_9sub_matchISB_EEENS5_12regex_traitsIcEELb1EE20_M_search_from_firstEv
	testb	%al, %al
	je	L1080
	movl	$1, %eax
	jmp	L1081
L1080:
	movq	-8(%rbp), %rax
	movl	112(%rax), %eax
	movl	$64, %esi
	movl	%eax, %edi
	call	__ZNSt15regex_constantsanENS_15match_flag_typeES0_
	testl	%eax, %eax
	setne	%al
	testb	%al, %al
	je	L1082
	movl	$0, %eax
	jmp	L1081
L1082:
	movq	-8(%rbp), %rax
	addq	$112, %rax
	movl	$128, %esi
	movq	%rax, %rdi
	call	__ZNSt15regex_constantsoRERNS_15match_flag_typeES0_
L1085:
	movq	-8(%rbp), %rax
	leaq	40(%rax), %rdx
	movq	-8(%rbp), %rax
	addq	$32, %rax
	movq	%rdx, %rsi
	movq	%rax, %rdi
	call	__ZN9__gnu_cxxneIPKcNSt7__cxx1112basic_stringIcSt11char_traitsIcESaIcEEEEEbRKNS_17__normal_iteratorIT_T0_EESE_
	testb	%al, %al
	je	L1083
	movq	-8(%rbp), %rax
	addq	$32, %rax
	movq	%rax, %rdi
	call	__ZN9__gnu_cxx17__normal_iteratorIPKcNSt7__cxx1112basic_stringIcSt11char_traitsIcESaIcEEEEppEv
	movq	-8(%rbp), %rax
	movq	%rax, %rdi
	call	__ZNSt8__detail9_ExecutorIN9__gnu_cxx17__normal_iteratorIPKcNSt7__cxx1112basic_stringIcSt11char_traitsIcESaIcEEEEESaINS5_9sub_matchISB_EEENS5_12regex_traitsIcEELb1EE20_M_search_from_firstEv
	testb	%al, %al
	je	L1085
	movl	$1, %eax
	jmp	L1081
L1083:
	movl	$0, %eax
L1081:
	leave
LCFI1560:
	ret
LFE6467:
	.align 1
	.globl __ZNSt7__cxx1113match_resultsIN9__gnu_cxx17__normal_iteratorIPKcNS_12basic_stringIcSt11char_traitsIcESaIcEEEEESaINS_9sub_matchISA_EEEE9_M_prefixEv
	.weak_definition __ZNSt7__cxx1113match_resultsIN9__gnu_cxx17__normal_iteratorIPKcNS_12basic_stringIcSt11char_traitsIcESaIcEEEEESaINS_9sub_matchISA_EEEE9_M_prefixEv
__ZNSt7__cxx1113match_resultsIN9__gnu_cxx17__normal_iteratorIPKcNS_12basic_stringIcSt11char_traitsIcESaIcEEEEESaINS_9sub_matchISA_EEEE9_M_prefixEv:
LFB6468:
	pushq	%rbp
LCFI1561:
	movq	%rsp, %rbp
LCFI1562:
	pushq	%rbx
	subq	$24, %rsp
LCFI1563:
	movq	%rdi, -24(%rbp)
	movq	-24(%rbp), %rbx
	movq	-24(%rbp), %rax
	movq	%rax, %rdi
	call	__ZNKSt6vectorINSt7__cxx119sub_matchIN9__gnu_cxx17__normal_iteratorIPKcNS0_12basic_stringIcSt11char_traitsIcESaIcEEEEEEESaISC_EE4sizeEv
	subq	$2, %rax
	movq	%rax, %rsi
	movq	%rbx, %rdi
	call	__ZNSt6vectorINSt7__cxx119sub_matchIN9__gnu_cxx17__normal_iteratorIPKcNS0_12basic_stringIcSt11char_traitsIcESaIcEEEEEEESaISC_EEixEm
	addq	$24, %rsp
	popq	%rbx
	popq	%rbp
LCFI1564:
	ret
LFE6468:
	.align 1
	.globl __ZNSt7__cxx1113match_resultsIN9__gnu_cxx17__normal_iteratorIPKcNS_12basic_stringIcSt11char_traitsIcESaIcEEEEESaINS_9sub_matchISA_EEEE9_M_suffixEv
	.weak_definition __ZNSt7__cxx1113match_resultsIN9__gnu_cxx17__normal_iteratorIPKcNS_12basic_stringIcSt11char_traitsIcESaIcEEEEESaINS_9sub_matchISA_EEEE9_M_suffixEv
__ZNSt7__cxx1113match_resultsIN9__gnu_cxx17__normal_iteratorIPKcNS_12basic_stringIcSt11char_traitsIcESaIcEEEEESaINS_9sub_matchISA_EEEE9_M_suffixEv:
LFB6469:
	pushq	%rbp
LCFI1565:
	movq	%rsp, %rbp
LCFI1566:
	pushq	%rbx
	subq	$24, %rsp
LCFI1567:
	movq	%rdi, -24(%rbp)
	movq	-24(%rbp), %rbx
	movq	-24(%rbp), %rax
	movq	%rax, %rdi
	call	__ZNKSt6vectorINSt7__cxx119sub_matchIN9__gnu_cxx17__normal_iteratorIPKcNS0_12basic_stringIcSt11char_traitsIcESaIcEEEEEEESaISC_EE4sizeEv
	subq	$1, %rax
	movq	%rax, %rsi
	movq	%rbx, %rdi
	call	__ZNSt6vectorINSt7__cxx119sub_matchIN9__gnu_cxx17__normal_iteratorIPKcNS0_12basic_stringIcSt11char_traitsIcESaIcEEEEEEESaISC_EEixEm
	addq	$24, %rsp
	popq	%rbx
	popq	%rbp
LCFI1568:
	ret
LFE6469:
	.align 1
	.globl __ZNSt6vectorINSt7__cxx119sub_matchIN9__gnu_cxx17__normal_iteratorIPKcNS0_12basic_stringIcSt11char_traitsIcESaIcEEEEEEESaISC_EEixEm
	.weak_definition __ZNSt6vectorINSt7__cxx119sub_matchIN9__gnu_cxx17__normal_iteratorIPKcNS0_12basic_stringIcSt11char_traitsIcESaIcEEEEEEESaISC_EEixEm
__ZNSt6vectorINSt7__cxx119sub_matchIN9__gnu_cxx17__normal_iteratorIPKcNS0_12basic_stringIcSt11char_traitsIcESaIcEEEEEEESaISC_EEixEm:
LFB6470:
	pushq	%rbp
LCFI1569:
	movq	%rsp, %rbp
LCFI1570:
	movq	%rdi, -8(%rbp)
	movq	%rsi, -16(%rbp)
	movq	-8(%rbp), %rax
	movq	(%rax), %rcx
	movq	-16(%rbp), %rdx
	movq	%rdx, %rax
	addq	%rax, %rax
	addq	%rdx, %rax
	salq	$3, %rax
	addq	%rcx, %rax
	popq	%rbp
LCFI1571:
	ret
LFE6470:
	.globl __ZN9__gnu_cxxneIPKcNSt7__cxx1112basic_stringIcSt11char_traitsIcESaIcEEEEEbRKNS_17__normal_iteratorIT_T0_EESE_
	.weak_definition __ZN9__gnu_cxxneIPKcNSt7__cxx1112basic_stringIcSt11char_traitsIcESaIcEEEEEbRKNS_17__normal_iteratorIT_T0_EESE_
__ZN9__gnu_cxxneIPKcNSt7__cxx1112basic_stringIcSt11char_traitsIcESaIcEEEEEbRKNS_17__normal_iteratorIT_T0_EESE_:
LFB6471:
	pushq	%rbp
LCFI1572:
	movq	%rsp, %rbp
LCFI1573:
	pushq	%rbx
	subq	$24, %rsp
LCFI1574:
	movq	%rdi, -24(%rbp)
	movq	%rsi, -32(%rbp)
	movq	-24(%rbp), %rax
	movq	%rax, %rdi
	call	__ZNK9__gnu_cxx17__normal_iteratorIPKcNSt7__cxx1112basic_stringIcSt11char_traitsIcESaIcEEEE4baseEv
	movq	(%rax), %rbx
	movq	-32(%rbp), %rax
	movq	%rax, %rdi
	call	__ZNK9__gnu_cxx17__normal_iteratorIPKcNSt7__cxx1112basic_stringIcSt11char_traitsIcESaIcEEEE4baseEv
	movq	(%rax), %rax
	cmpq	%rax, %rbx
	setne	%al
	addq	$24, %rsp
	popq	%rbx
	popq	%rbp
LCFI1575:
	ret
LFE6471:
	.globl __ZSt11__addressofINSt7__cxx1112basic_stringIcSt11char_traitsIcESaIcEEEEPT_RS6_
	.weak_definition __ZSt11__addressofINSt7__cxx1112basic_stringIcSt11char_traitsIcESaIcEEEEPT_RS6_
__ZSt11__addressofINSt7__cxx1112basic_stringIcSt11char_traitsIcESaIcEEEEPT_RS6_:
LFB6472:
	pushq	%rbp
LCFI1576:
	movq	%rsp, %rbp
LCFI1577:
	movq	%rdi, -8(%rbp)
	movq	-8(%rbp), %rax
	popq	%rbp
LCFI1578:
	ret
LFE6472:
	.globl __ZSt8_DestroyINSt7__cxx1112basic_stringIcSt11char_traitsIcESaIcEEEEvPT_
	.weak_definition __ZSt8_DestroyINSt7__cxx1112basic_stringIcSt11char_traitsIcESaIcEEEEvPT_
__ZSt8_DestroyINSt7__cxx1112basic_stringIcSt11char_traitsIcESaIcEEEEvPT_:
LFB6473:
	pushq	%rbp
LCFI1579:
	movq	%rsp, %rbp
LCFI1580:
	subq	$16, %rsp
	movq	%rdi, -8(%rbp)
	movq	-8(%rbp), %rax
	movq	%rax, %rdi
	call	__ZNSt7__cxx1112basic_stringIcSt11char_traitsIcESaIcEED1Ev
	nop
	leave
LCFI1581:
	ret
LFE6473:
	.globl __ZNSt6vectorINSt7__cxx1112basic_stringIcSt11char_traitsIcESaIcEEESaIS5_EE11_S_max_sizeERKS6_
	.weak_definition __ZNSt6vectorINSt7__cxx1112basic_stringIcSt11char_traitsIcESaIcEEESaIS5_EE11_S_max_sizeERKS6_
__ZNSt6vectorINSt7__cxx1112basic_stringIcSt11char_traitsIcESaIcEEESaIS5_EE11_S_max_sizeERKS6_:
LFB6474:
	pushq	%rbp
LCFI1582:
	movq	%rsp, %rbp
LCFI1583:
	subq	$32, %rsp
	movq	%rdi, -24(%rbp)
	movabsq	$288230376151711743, %rax
	movq	%rax, -8(%rbp)
	movq	-24(%rbp), %rax
	movq	%rax, %rdi
	call	__ZNSt16allocator_traitsISaINSt7__cxx1112basic_stringIcSt11char_traitsIcESaIcEEEEE8max_sizeERKS6_
	movq	%rax, -16(%rbp)
	leaq	-16(%rbp), %rdx
	leaq	-8(%rbp), %rax
	movq	%rdx, %rsi
	movq	%rax, %rdi
	call	__ZSt3minImERKT_S2_S2_
	movq	(%rax), %rax
	leave
LCFI1584:
	ret
LFE6474:
	.align 1
	.globl __ZNKSt12_Vector_baseINSt7__cxx1112basic_stringIcSt11char_traitsIcESaIcEEESaIS5_EE19_M_get_Tp_allocatorEv
	.weak_definition __ZNKSt12_Vector_baseINSt7__cxx1112basic_stringIcSt11char_traitsIcESaIcEEESaIS5_EE19_M_get_Tp_allocatorEv
__ZNKSt12_Vector_baseINSt7__cxx1112basic_stringIcSt11char_traitsIcESaIcEEESaIS5_EE19_M_get_Tp_allocatorEv:
LFB6475:
	pushq	%rbp
LCFI1585:
	movq	%rsp, %rbp
LCFI1586:
	movq	%rdi, -8(%rbp)
	movq	-8(%rbp), %rax
	popq	%rbp
LCFI1587:
	ret
LFE6475:
	.align 1
	.globl __ZN9__gnu_cxx13new_allocatorINSt7__cxx1112basic_stringIcSt11char_traitsIcESaIcEEEE8allocateEmPKv
	.weak_definition __ZN9__gnu_cxx13new_allocatorINSt7__cxx1112basic_stringIcSt11char_traitsIcESaIcEEEE8allocateEmPKv
__ZN9__gnu_cxx13new_allocatorINSt7__cxx1112basic_stringIcSt11char_traitsIcESaIcEEEE8allocateEmPKv:
LFB6476:
	pushq	%rbp
LCFI1588:
	movq	%rsp, %rbp
LCFI1589:
	subq	$32, %rsp
	movq	%rdi, -8(%rbp)
	movq	%rsi, -16(%rbp)
	movq	%rdx, -24(%rbp)
	movq	-8(%rbp), %rax
	movq	%rax, %rdi
	call	__ZNK9__gnu_cxx13new_allocatorINSt7__cxx1112basic_stringIcSt11char_traitsIcESaIcEEEE8max_sizeEv
	cmpq	%rax, -16(%rbp)
	seta	%al
	testb	%al, %al
	je	L1102
	call	__ZSt17__throw_bad_allocv
L1102:
	movq	-16(%rbp), %rax
	salq	$5, %rax
	movq	%rax, %rdi
	call	__Znwm
	leave
LCFI1590:
	ret
LFE6476:
	.globl __ZSt12__relocate_aIPNSt7__cxx1112basic_stringIcSt11char_traitsIcESaIcEEES6_SaIS5_EET0_T_S9_S8_RT1_
	.weak_definition __ZSt12__relocate_aIPNSt7__cxx1112basic_stringIcSt11char_traitsIcESaIcEEES6_SaIS5_EET0_T_S9_S8_RT1_
__ZSt12__relocate_aIPNSt7__cxx1112basic_stringIcSt11char_traitsIcESaIcEEES6_SaIS5_EET0_T_S9_S8_RT1_:
LFB6477:
	pushq	%rbp
LCFI1591:
	movq	%rsp, %rbp
LCFI1592:
	pushq	%r12
	pushq	%rbx
	subq	$32, %rsp
LCFI1593:
	movq	%rdi, -24(%rbp)
	movq	%rsi, -32(%rbp)
	movq	%rdx, -40(%rbp)
	movq	%rcx, -48(%rbp)
	movq	-40(%rbp), %rax
	movq	%rax, %rdi
	call	__ZSt12__niter_baseIPNSt7__cxx1112basic_stringIcSt11char_traitsIcESaIcEEEET_S7_
	movq	%rax, %r12
	movq	-32(%rbp), %rax
	movq	%rax, %rdi
	call	__ZSt12__niter_baseIPNSt7__cxx1112basic_stringIcSt11char_traitsIcESaIcEEEET_S7_
	movq	%rax, %rbx
	movq	-24(%rbp), %rax
	movq	%rax, %rdi
	call	__ZSt12__niter_baseIPNSt7__cxx1112basic_stringIcSt11char_traitsIcESaIcEEEET_S7_
	movq	%rax, %rdi
	movq	-48(%rbp), %rax
	movq	%rax, %rcx
	movq	%r12, %rdx
	movq	%rbx, %rsi
	call	__ZSt14__relocate_a_1IPNSt7__cxx1112basic_stringIcSt11char_traitsIcESaIcEEES6_SaIS5_EET0_T_S9_S8_RT1_
	addq	$32, %rsp
	popq	%rbx
	popq	%r12
	popq	%rbp
LCFI1594:
	ret
LFE6477:
	.align 1
	.globl __ZNSt13move_iteratorIPNSt7__cxx1112basic_stringIcSt11char_traitsIcESaIcEEEEC1ES6_
	.weak_definition __ZNSt13move_iteratorIPNSt7__cxx1112basic_stringIcSt11char_traitsIcESaIcEEEEC1ES6_
__ZNSt13move_iteratorIPNSt7__cxx1112basic_stringIcSt11char_traitsIcESaIcEEEEC1ES6_:
LFB6480:
	pushq	%rbp
LCFI1595:
	movq	%rsp, %rbp
LCFI1596:
	movq	%rdi, -8(%rbp)
	movq	%rsi, -16(%rbp)
	movq	-8(%rbp), %rax
	movq	-16(%rbp), %rdx
	movq	%rdx, (%rax)
	nop
	popq	%rbp
LCFI1597:
	ret
LFE6480:
	.globl __ZSt18uninitialized_copyISt13move_iteratorIPNSt7__cxx1112basic_stringIcSt11char_traitsIcESaIcEEEES7_ET0_T_SA_S9_
	.weak_definition __ZSt18uninitialized_copyISt13move_iteratorIPNSt7__cxx1112basic_stringIcSt11char_traitsIcESaIcEEEES7_ET0_T_SA_S9_
__ZSt18uninitialized_copyISt13move_iteratorIPNSt7__cxx1112basic_stringIcSt11char_traitsIcESaIcEEEES7_ET0_T_SA_S9_:
LFB6481:
	pushq	%rbp
LCFI1598:
	movq	%rsp, %rbp
LCFI1599:
	subq	$48, %rsp
	movq	%rdi, -24(%rbp)
	movq	%rsi, -32(%rbp)
	movq	%rdx, -40(%rbp)
	movb	$1, -1(%rbp)
	movq	-40(%rbp), %rdx
	movq	-32(%rbp), %rcx
	movq	-24(%rbp), %rax
	movq	%rcx, %rsi
	movq	%rax, %rdi
	call	__ZNSt20__uninitialized_copyILb0EE13__uninit_copyISt13move_iteratorIPNSt7__cxx1112basic_stringIcSt11char_traitsIcESaIcEEEES9_EET0_T_SC_SB_
	leave
LCFI1600:
	ret
LFE6481:
	.align 1
	.globl __ZNK9__gnu_cxx17__normal_iteratorIPcNSt7__cxx1112basic_stringIcSt11char_traitsIcESaIcEEEE4baseEv
	.weak_definition __ZNK9__gnu_cxx17__normal_iteratorIPcNSt7__cxx1112basic_stringIcSt11char_traitsIcESaIcEEEE4baseEv
__ZNK9__gnu_cxx17__normal_iteratorIPcNSt7__cxx1112basic_stringIcSt11char_traitsIcESaIcEEEE4baseEv:
LFB6485:
	pushq	%rbp
LCFI1601:
	movq	%rsp, %rbp
LCFI1602:
	movq	%rdi, -8(%rbp)
	movq	-8(%rbp), %rax
	popq	%rbp
LCFI1603:
	ret
LFE6485:
	.globl __ZN9__gnu_cxxmiIPKcNSt7__cxx1112basic_stringIcSt11char_traitsIcESaIcEEEEENS_17__normal_iteratorIT_T0_E15difference_typeERKSC_SF_
	.weak_definition __ZN9__gnu_cxxmiIPKcNSt7__cxx1112basic_stringIcSt11char_traitsIcESaIcEEEEENS_17__normal_iteratorIT_T0_E15difference_typeERKSC_SF_
__ZN9__gnu_cxxmiIPKcNSt7__cxx1112basic_stringIcSt11char_traitsIcESaIcEEEEENS_17__normal_iteratorIT_T0_E15difference_typeERKSC_SF_:
LFB6487:
	pushq	%rbp
LCFI1604:
	movq	%rsp, %rbp
LCFI1605:
	pushq	%rbx
	subq	$24, %rsp
LCFI1606:
	movq	%rdi, -24(%rbp)
	movq	%rsi, -32(%rbp)
	movq	-24(%rbp), %rax
	movq	%rax, %rdi
	call	__ZNK9__gnu_cxx17__normal_iteratorIPKcNSt7__cxx1112basic_stringIcSt11char_traitsIcESaIcEEEE4baseEv
	movq	(%rax), %rbx
	movq	-32(%rbp), %rax
	movq	%rax, %rdi
	call	__ZNK9__gnu_cxx17__normal_iteratorIPKcNSt7__cxx1112basic_stringIcSt11char_traitsIcESaIcEEEE4baseEv
	movq	(%rax), %rax
	subq	%rax, %rbx
	movq	%rbx, %rax
	addq	$24, %rsp
	popq	%rbx
	popq	%rbp
LCFI1607:
	ret
LFE6487:
	.align 1
	.globl __ZNSt8_Rb_treeINSt7__cxx1112basic_stringIcSt11char_traitsIcESaIcEEESt4pairIKS5_S6_IibEESt10_Select1stIS9_ESt4lessIS5_ESaIS9_EE21_M_get_Node_allocatorEv
	.weak_definition __ZNSt8_Rb_treeINSt7__cxx1112basic_stringIcSt11char_traitsIcESaIcEEESt4pairIKS5_S6_IibEESt10_Select1stIS9_ESt4lessIS5_ESaIS9_EE21_M_get_Node_allocatorEv
__ZNSt8_Rb_treeINSt7__cxx1112basic_stringIcSt11char_traitsIcESaIcEEESt4pairIKS5_S6_IibEESt10_Select1stIS9_ESt4lessIS5_ESaIS9_EE21_M_get_Node_allocatorEv:
LFB6488:
	pushq	%rbp
LCFI1608:
	movq	%rsp, %rbp
LCFI1609:
	movq	%rdi, -8(%rbp)
	movq	-8(%rbp), %rax
	popq	%rbp
LCFI1610:
	ret
LFE6488:
	.align 1
	.globl __ZNSt13_Rb_tree_nodeISt4pairIKNSt7__cxx1112basic_stringIcSt11char_traitsIcESaIcEEES0_IibEEE9_M_valptrEv
	.weak_definition __ZNSt13_Rb_tree_nodeISt4pairIKNSt7__cxx1112basic_stringIcSt11char_traitsIcESaIcEEES0_IibEEE9_M_valptrEv
__ZNSt13_Rb_tree_nodeISt4pairIKNSt7__cxx1112basic_stringIcSt11char_traitsIcESaIcEEES0_IibEEE9_M_valptrEv:
LFB6489:
	pushq	%rbp
LCFI1611:
	movq	%rsp, %rbp
LCFI1612:
	subq	$16, %rsp
	movq	%rdi, -8(%rbp)
	movq	-8(%rbp), %rax
	addq	$32, %rax
	movq	%rax, %rdi
	call	__ZN9__gnu_cxx16__aligned_membufISt4pairIKNSt7__cxx1112basic_stringIcSt11char_traitsIcESaIcEEES1_IibEEE6_M_ptrEv
	leave
LCFI1613:
	ret
LFE6489:
	.globl __ZNSt16allocator_traitsISaISt13_Rb_tree_nodeISt4pairIKNSt7__cxx1112basic_stringIcSt11char_traitsIcESaIcEEES1_IibEEEEE7destroyISA_EEvRSC_PT_
	.weak_definition __ZNSt16allocator_traitsISaISt13_Rb_tree_nodeISt4pairIKNSt7__cxx1112basic_stringIcSt11char_traitsIcESaIcEEES1_IibEEEEE7destroyISA_EEvRSC_PT_
__ZNSt16allocator_traitsISaISt13_Rb_tree_nodeISt4pairIKNSt7__cxx1112basic_stringIcSt11char_traitsIcESaIcEEES1_IibEEEEE7destroyISA_EEvRSC_PT_:
LFB6490:
	pushq	%rbp
LCFI1614:
	movq	%rsp, %rbp
LCFI1615:
	subq	$16, %rsp
	movq	%rdi, -8(%rbp)
	movq	%rsi, -16(%rbp)
	movq	-16(%rbp), %rdx
	movq	-8(%rbp), %rax
	movq	%rdx, %rsi
	movq	%rax, %rdi
	call	__ZN9__gnu_cxx13new_allocatorISt13_Rb_tree_nodeISt4pairIKNSt7__cxx1112basic_stringIcSt11char_traitsIcESaIcEEES2_IibEEEE7destroyISB_EEvPT_
	nop
	leave
LCFI1616:
	ret
LFE6490:
	.globl __ZNSt16allocator_traitsISaISt13_Rb_tree_nodeISt4pairIKNSt7__cxx1112basic_stringIcSt11char_traitsIcESaIcEEES1_IibEEEEE10deallocateERSC_PSB_m
	.weak_definition __ZNSt16allocator_traitsISaISt13_Rb_tree_nodeISt4pairIKNSt7__cxx1112basic_stringIcSt11char_traitsIcESaIcEEES1_IibEEEEE10deallocateERSC_PSB_m
__ZNSt16allocator_traitsISaISt13_Rb_tree_nodeISt4pairIKNSt7__cxx1112basic_stringIcSt11char_traitsIcESaIcEEES1_IibEEEEE10deallocateERSC_PSB_m:
LFB6491:
	pushq	%rbp
LCFI1617:
	movq	%rsp, %rbp
LCFI1618:
	subq	$32, %rsp
	movq	%rdi, -8(%rbp)
	movq	%rsi, -16(%rbp)
	movq	%rdx, -24(%rbp)
	movq	-24(%rbp), %rdx
	movq	-16(%rbp), %rcx
	movq	-8(%rbp), %rax
	movq	%rcx, %rsi
	movq	%rax, %rdi
	call	__ZN9__gnu_cxx13new_allocatorISt13_Rb_tree_nodeISt4pairIKNSt7__cxx1112basic_stringIcSt11char_traitsIcESaIcEEES2_IibEEEE10deallocateEPSC_m
	nop
	leave
LCFI1619:
	ret
LFE6491:
	.globl __ZNSt16allocator_traitsISaISt13_Rb_tree_nodeISt4pairIKNSt7__cxx1112basic_stringIcSt11char_traitsIcESaIcEEES1_IibEEEEE8allocateERSC_m
	.weak_definition __ZNSt16allocator_traitsISaISt13_Rb_tree_nodeISt4pairIKNSt7__cxx1112basic_stringIcSt11char_traitsIcESaIcEEES1_IibEEEEE8allocateERSC_m
__ZNSt16allocator_traitsISaISt13_Rb_tree_nodeISt4pairIKNSt7__cxx1112basic_stringIcSt11char_traitsIcESaIcEEES1_IibEEEEE8allocateERSC_m:
LFB6492:
	pushq	%rbp
LCFI1620:
	movq	%rsp, %rbp
LCFI1621:
	subq	$16, %rsp
	movq	%rdi, -8(%rbp)
	movq	%rsi, -16(%rbp)
	movq	-16(%rbp), %rcx
	movq	-8(%rbp), %rax
	movl	$0, %edx
	movq	%rcx, %rsi
	movq	%rax, %rdi
	call	__ZN9__gnu_cxx13new_allocatorISt13_Rb_tree_nodeISt4pairIKNSt7__cxx1112basic_stringIcSt11char_traitsIcESaIcEEES2_IibEEEE8allocateEmPKv
	leave
LCFI1622:
	ret
LFE6492:
	.globl __ZNSt16allocator_traitsISaISt13_Rb_tree_nodeISt4pairIKNSt7__cxx1112basic_stringIcSt11char_traitsIcESaIcEEES1_IibEEEEE9constructISA_JS1_IS7_S9_EEEEvRSC_PT_DpOT0_
	.weak_definition __ZNSt16allocator_traitsISaISt13_Rb_tree_nodeISt4pairIKNSt7__cxx1112basic_stringIcSt11char_traitsIcESaIcEEES1_IibEEEEE9constructISA_JS1_IS7_S9_EEEEvRSC_PT_DpOT0_
__ZNSt16allocator_traitsISaISt13_Rb_tree_nodeISt4pairIKNSt7__cxx1112basic_stringIcSt11char_traitsIcESaIcEEES1_IibEEEEE9constructISA_JS1_IS7_S9_EEEEvRSC_PT_DpOT0_:
LFB6493:
	pushq	%rbp
LCFI1623:
	movq	%rsp, %rbp
LCFI1624:
	subq	$32, %rsp
	movq	%rdi, -8(%rbp)
	movq	%rsi, -16(%rbp)
	movq	%rdx, -24(%rbp)
	movq	-24(%rbp), %rax
	movq	%rax, %rdi
	call	__ZSt7forwardISt4pairINSt7__cxx1112basic_stringIcSt11char_traitsIcESaIcEEES0_IibEEEOT_RNSt16remove_referenceIS9_E4typeE
	movq	%rax, %rdx
	movq	-16(%rbp), %rcx
	movq	-8(%rbp), %rax
	movq	%rcx, %rsi
	movq	%rax, %rdi
	call	__ZN9__gnu_cxx13new_allocatorISt13_Rb_tree_nodeISt4pairIKNSt7__cxx1112basic_stringIcSt11char_traitsIcESaIcEEES2_IibEEEE9constructISB_JS2_IS8_SA_EEEEvPT_DpOT0_
	nop
	leave
LCFI1625:
	ret
LFE6493:
	.globl __ZStltIcSt11char_traitsIcESaIcEEbRKNSt7__cxx1112basic_stringIT_T0_T1_EESA_
	.weak_definition __ZStltIcSt11char_traitsIcESaIcEEbRKNSt7__cxx1112basic_stringIT_T0_T1_EESA_
__ZStltIcSt11char_traitsIcESaIcEEbRKNSt7__cxx1112basic_stringIT_T0_T1_EESA_:
LFB6494:
	pushq	%rbp
LCFI1626:
	movq	%rsp, %rbp
LCFI1627:
	subq	$16, %rsp
	movq	%rdi, -8(%rbp)
	movq	%rsi, -16(%rbp)
	movq	-16(%rbp), %rdx
	movq	-8(%rbp), %rax
	movq	%rdx, %rsi
	movq	%rax, %rdi
	call	__ZNKSt7__cxx1112basic_stringIcSt11char_traitsIcESaIcEE7compareERKS4_
	shrl	$31, %eax
	leave
LCFI1628:
	ret
LFE6494:
	.section __DATA,__gcc_except_tab
GCC_except_table47:
LLSDA6494:
	.byte	0xff
	.byte	0x3
	.byte	0
	.section __TEXT,__textcoal_nt,coalesced,pure_instructions
	.globl __ZSt7forwardIRPSt13_Rb_tree_nodeISt4pairIKNSt7__cxx1112basic_stringIcSt11char_traitsIcESaIcEEES1_IibEEEEOT_RNSt16remove_referenceISE_E4typeE
	.weak_definition __ZSt7forwardIRPSt13_Rb_tree_nodeISt4pairIKNSt7__cxx1112basic_stringIcSt11char_traitsIcESaIcEEES1_IibEEEEOT_RNSt16remove_referenceISE_E4typeE
__ZSt7forwardIRPSt13_Rb_tree_nodeISt4pairIKNSt7__cxx1112basic_stringIcSt11char_traitsIcESaIcEEES1_IibEEEEOT_RNSt16remove_referenceISE_E4typeE:
LFB6495:
	pushq	%rbp
LCFI1629:
	movq	%rsp, %rbp
LCFI1630:
	movq	%rdi, -8(%rbp)
	movq	-8(%rbp), %rax
	popq	%rbp
LCFI1631:
	ret
LFE6495:
	.globl __ZSt7forwardIRPSt18_Rb_tree_node_baseEOT_RNSt16remove_referenceIS3_E4typeE
	.weak_definition __ZSt7forwardIRPSt18_Rb_tree_node_baseEOT_RNSt16remove_referenceIS3_E4typeE
__ZSt7forwardIRPSt18_Rb_tree_node_baseEOT_RNSt16remove_referenceIS3_E4typeE:
LFB6496:
	pushq	%rbp
LCFI1632:
	movq	%rsp, %rbp
LCFI1633:
	movq	%rdi, -8(%rbp)
	movq	-8(%rbp), %rax
	popq	%rbp
LCFI1634:
	ret
LFE6496:
	.globl __ZNSt8_Rb_treeINSt7__cxx1112basic_stringIcSt11char_traitsIcESaIcEEESt4pairIKS5_S6_IibEESt10_Select1stIS9_ESt4lessIS5_ESaIS9_EE8_S_valueEPKSt18_Rb_tree_node_base
	.weak_definition __ZNSt8_Rb_treeINSt7__cxx1112basic_stringIcSt11char_traitsIcESaIcEEESt4pairIKS5_S6_IibEESt10_Select1stIS9_ESt4lessIS5_ESaIS9_EE8_S_valueEPKSt18_Rb_tree_node_base
__ZNSt8_Rb_treeINSt7__cxx1112basic_stringIcSt11char_traitsIcESaIcEEESt4pairIKS5_S6_IibEESt10_Select1stIS9_ESt4lessIS5_ESaIS9_EE8_S_valueEPKSt18_Rb_tree_node_base:
LFB6497:
	pushq	%rbp
LCFI1635:
	movq	%rsp, %rbp
LCFI1636:
	subq	$16, %rsp
	movq	%rdi, -8(%rbp)
	movq	-8(%rbp), %rax
	movq	%rax, %rdi
	call	__ZNKSt13_Rb_tree_nodeISt4pairIKNSt7__cxx1112basic_stringIcSt11char_traitsIcESaIcEEES0_IibEEE9_M_valptrEv
	leave
LCFI1637:
	ret
LFE6497:
	.align 1
	.globl __ZNKSt13_Rb_tree_nodeISt4pairIKNSt7__cxx1112basic_stringIcSt11char_traitsIcESaIcEEES0_IibEEE9_M_valptrEv
	.weak_definition __ZNKSt13_Rb_tree_nodeISt4pairIKNSt7__cxx1112basic_stringIcSt11char_traitsIcESaIcEEES0_IibEEE9_M_valptrEv
__ZNKSt13_Rb_tree_nodeISt4pairIKNSt7__cxx1112basic_stringIcSt11char_traitsIcESaIcEEES0_IibEEE9_M_valptrEv:
LFB6498:
	pushq	%rbp
LCFI1638:
	movq	%rsp, %rbp
LCFI1639:
	subq	$16, %rsp
	movq	%rdi, -8(%rbp)
	movq	-8(%rbp), %rax
	addq	$32, %rax
	movq	%rax, %rdi
	call	__ZNK9__gnu_cxx16__aligned_membufISt4pairIKNSt7__cxx1112basic_stringIcSt11char_traitsIcESaIcEEES1_IibEEE6_M_ptrEv
	leave
LCFI1640:
	ret
LFE6498:
	.align 1
	.globl __ZNKSt23_Rb_tree_const_iteratorIiE13_M_const_castEv
	.weak_definition __ZNKSt23_Rb_tree_const_iteratorIiE13_M_const_castEv
__ZNKSt23_Rb_tree_const_iteratorIiE13_M_const_castEv:
LFB6499:
	pushq	%rbp
LCFI1641:
	movq	%rsp, %rbp
LCFI1642:
	subq	$32, %rsp
	movq	%rdi, -24(%rbp)
	movq	-24(%rbp), %rax
	movq	(%rax), %rdx
	leaq	-8(%rbp), %rax
	movq	%rdx, %rsi
	movq	%rax, %rdi
	call	__ZNSt17_Rb_tree_iteratorIiEC1EPSt18_Rb_tree_node_base
	movq	-8(%rbp), %rax
	leave
LCFI1643:
	ret
LFE6499:
	.align 1
	.globl __ZNSt8_Rb_treeIiiSt9_IdentityIiESt4lessIiESaIiEE6_M_endEv
	.weak_definition __ZNSt8_Rb_treeIiiSt9_IdentityIiESt4lessIiESaIiEE6_M_endEv
__ZNSt8_Rb_treeIiiSt9_IdentityIiESt4lessIiESaIiEE6_M_endEv:
LFB6500:
	pushq	%rbp
LCFI1644:
	movq	%rsp, %rbp
LCFI1645:
	movq	%rdi, -8(%rbp)
	movq	-8(%rbp), %rax
	addq	$8, %rax
	popq	%rbp
LCFI1646:
	ret
LFE6500:
	.align 1
	.globl __ZNKSt8_Rb_treeIiiSt9_IdentityIiESt4lessIiESaIiEE4sizeEv
	.weak_definition __ZNKSt8_Rb_treeIiiSt9_IdentityIiESt4lessIiESaIiEE4sizeEv
__ZNKSt8_Rb_treeIiiSt9_IdentityIiESt4lessIiESaIiEE4sizeEv:
LFB6501:
	pushq	%rbp
LCFI1647:
	movq	%rsp, %rbp
LCFI1648:
	movq	%rdi, -8(%rbp)
	movq	-8(%rbp), %rax
	movq	40(%rax), %rax
	popq	%rbp
LCFI1649:
	ret
LFE6501:
	.align 1
	.globl __ZNSt8_Rb_treeIiiSt9_IdentityIiESt4lessIiESaIiEE12_M_rightmostEv
	.weak_definition __ZNSt8_Rb_treeIiiSt9_IdentityIiESt4lessIiESaIiEE12_M_rightmostEv
__ZNSt8_Rb_treeIiiSt9_IdentityIiESt4lessIiESaIiEE12_M_rightmostEv:
LFB6502:
	pushq	%rbp
LCFI1650:
	movq	%rsp, %rbp
LCFI1651:
	movq	%rdi, -8(%rbp)
	movq	-8(%rbp), %rax
	addq	$32, %rax
	popq	%rbp
LCFI1652:
	ret
LFE6502:
	.globl __ZNSt8_Rb_treeIiiSt9_IdentityIiESt4lessIiESaIiEE6_S_keyEPKSt18_Rb_tree_node_base
	.weak_definition __ZNSt8_Rb_treeIiiSt9_IdentityIiESt4lessIiESaIiEE6_S_keyEPKSt18_Rb_tree_node_base
__ZNSt8_Rb_treeIiiSt9_IdentityIiESt4lessIiESaIiEE6_S_keyEPKSt18_Rb_tree_node_base:
LFB6503:
	pushq	%rbp
LCFI1653:
	movq	%rsp, %rbp
LCFI1654:
	subq	$32, %rsp
	movq	%rdi, -24(%rbp)
	movq	-24(%rbp), %rax
	movq	%rax, %rdi
	call	__ZNSt8_Rb_treeIiiSt9_IdentityIiESt4lessIiESaIiEE8_S_valueEPKSt18_Rb_tree_node_base
	movq	%rax, %rdx
	leaq	-1(%rbp), %rax
	movq	%rdx, %rsi
	movq	%rax, %rdi
	call	__ZNKSt9_IdentityIiEclERKi
	leave
LCFI1655:
	ret
LFE6503:
	.align 1
	.globl __ZNKSt4lessIiEclERKiS2_
	.weak_definition __ZNKSt4lessIiEclERKiS2_
__ZNKSt4lessIiEclERKiS2_:
LFB6504:
	pushq	%rbp
LCFI1656:
	movq	%rsp, %rbp
LCFI1657:
	movq	%rdi, -8(%rbp)
	movq	%rsi, -16(%rbp)
	movq	%rdx, -24(%rbp)
	movq	-16(%rbp), %rax
	movl	(%rax), %edx
	movq	-24(%rbp), %rax
	movl	(%rax), %eax
	cmpl	%eax, %edx
	setl	%al
	popq	%rbp
LCFI1658:
	ret
LFE6504:
	.align 1
	.globl __ZNSt4pairIPSt18_Rb_tree_node_baseS1_EC1IRS1_Lb1EEERKS1_OT_
	.weak_definition __ZNSt4pairIPSt18_Rb_tree_node_baseS1_EC1IRS1_Lb1EEERKS1_OT_
__ZNSt4pairIPSt18_Rb_tree_node_baseS1_EC1IRS1_Lb1EEERKS1_OT_:
LFB6507:
	pushq	%rbp
LCFI1659:
	movq	%rsp, %rbp
LCFI1660:
	subq	$32, %rsp
	movq	%rdi, -8(%rbp)
	movq	%rsi, -16(%rbp)
	movq	%rdx, -24(%rbp)
	movq	-16(%rbp), %rax
	movq	(%rax), %rdx
	movq	-8(%rbp), %rax
	movq	%rdx, (%rax)
	movq	-24(%rbp), %rax
	movq	%rax, %rdi
	call	__ZSt7forwardIRPSt18_Rb_tree_node_baseEOT_RNSt16remove_referenceIS3_E4typeE
	movq	(%rax), %rdx
	movq	-8(%rbp), %rax
	movq	%rdx, 8(%rax)
	nop
	leave
LCFI1661:
	ret
LFE6507:
	.align 1
	.globl __ZNSt8_Rb_treeIiiSt9_IdentityIiESt4lessIiESaIiEE24_M_get_insert_unique_posERKi
	.weak_definition __ZNSt8_Rb_treeIiiSt9_IdentityIiESt4lessIiESaIiEE24_M_get_insert_unique_posERKi
__ZNSt8_Rb_treeIiiSt9_IdentityIiESt4lessIiESaIiEE24_M_get_insert_unique_posERKi:
LFB6508:
	pushq	%rbp
LCFI1662:
	movq	%rsp, %rbp
LCFI1663:
	pushq	%rbx
	subq	$120, %rsp
LCFI1664:
	movq	%rdi, -120(%rbp)
	movq	%rsi, -128(%rbp)
	movq	-120(%rbp), %rax
	movq	%rax, %rdi
	call	__ZNSt8_Rb_treeIiiSt9_IdentityIiESt4lessIiESaIiEE8_M_beginEv
	movq	%rax, -96(%rbp)
	movq	-120(%rbp), %rax
	movq	%rax, %rdi
	call	__ZNSt8_Rb_treeIiiSt9_IdentityIiESt4lessIiESaIiEE6_M_endEv
	movq	%rax, -104(%rbp)
	movb	$1, -17(%rbp)
L1149:
	movq	-96(%rbp), %rax
	testq	%rax, %rax
	je	L1146
	movq	-96(%rbp), %rax
	movq	%rax, -104(%rbp)
	movq	-120(%rbp), %rbx
	movq	-96(%rbp), %rax
	movq	%rax, %rdi
	call	__ZNSt8_Rb_treeIiiSt9_IdentityIiESt4lessIiESaIiEE6_S_keyEPKSt13_Rb_tree_nodeIiE
	movq	%rax, %rdx
	movq	-128(%rbp), %rax
	movq	%rax, %rsi
	movq	%rbx, %rdi
	call	__ZNKSt4lessIiEclERKiS2_
	movb	%al, -17(%rbp)
	cmpb	$0, -17(%rbp)
	je	L1147
	movq	-96(%rbp), %rax
	movq	%rax, %rdi
	call	__ZNSt8_Rb_treeIiiSt9_IdentityIiESt4lessIiESaIiEE7_S_leftEPSt18_Rb_tree_node_base
	jmp	L1148
L1147:
	movq	-96(%rbp), %rax
	movq	%rax, %rdi
	call	__ZNSt8_Rb_treeIiiSt9_IdentityIiESt4lessIiESaIiEE8_S_rightEPSt18_Rb_tree_node_base
L1148:
	movq	%rax, -96(%rbp)
	jmp	L1149
L1146:
	movq	-104(%rbp), %rdx
	leaq	-112(%rbp), %rax
	movq	%rdx, %rsi
	movq	%rax, %rdi
	call	__ZNSt17_Rb_tree_iteratorIiEC1EPSt18_Rb_tree_node_base
	cmpb	$0, -17(%rbp)
	je	L1150
	movq	-120(%rbp), %rax
	movq	%rax, %rdi
	call	__ZNSt8_Rb_treeIiiSt9_IdentityIiESt4lessIiESaIiEE5beginEv
	movq	%rax, -88(%rbp)
	leaq	-88(%rbp), %rdx
	leaq	-112(%rbp), %rax
	movq	%rdx, %rsi
	movq	%rax, %rdi
	call	__ZSteqRKSt17_Rb_tree_iteratorIiES2_
	testb	%al, %al
	je	L1151
	leaq	-104(%rbp), %rdx
	leaq	-96(%rbp), %rcx
	leaq	-80(%rbp), %rax
	movq	%rcx, %rsi
	movq	%rax, %rdi
	call	__ZNSt4pairIPSt18_Rb_tree_node_baseS1_EC1IRPSt13_Rb_tree_nodeIiERS1_Lb1EEEOT_OT0_
	movq	-80(%rbp), %rax
	movq	-72(%rbp), %rdx
	jmp	L1154
L1151:
	leaq	-112(%rbp), %rax
	movq	%rax, %rdi
	call	__ZNSt17_Rb_tree_iteratorIiEmmEv
L1150:
	movq	-120(%rbp), %rbx
	movq	-112(%rbp), %rax
	movq	%rax, %rdi
	call	__ZNSt8_Rb_treeIiiSt9_IdentityIiESt4lessIiESaIiEE6_S_keyEPKSt18_Rb_tree_node_base
	movq	%rax, %rcx
	movq	-128(%rbp), %rax
	movq	%rax, %rdx
	movq	%rcx, %rsi
	movq	%rbx, %rdi
	call	__ZNKSt4lessIiEclERKiS2_
	testb	%al, %al
	je	L1153
	leaq	-104(%rbp), %rdx
	leaq	-96(%rbp), %rcx
	leaq	-64(%rbp), %rax
	movq	%rcx, %rsi
	movq	%rax, %rdi
	call	__ZNSt4pairIPSt18_Rb_tree_node_baseS1_EC1IRPSt13_Rb_tree_nodeIiERS1_Lb1EEEOT_OT0_
	movq	-64(%rbp), %rax
	movq	-56(%rbp), %rdx
	jmp	L1154
L1153:
	movq	$0, -32(%rbp)
	leaq	-32(%rbp), %rdx
	leaq	-112(%rbp), %rcx
	leaq	-48(%rbp), %rax
	movq	%rcx, %rsi
	movq	%rax, %rdi
	call	__ZNSt4pairIPSt18_Rb_tree_node_baseS1_EC1IRS1_Lb1EEEOT_RKS1_
	movq	-48(%rbp), %rax
	movq	-40(%rbp), %rdx
L1154:
	addq	$120, %rsp
	popq	%rbx
	popq	%rbp
LCFI1665:
	ret
LFE6508:
	.align 1
	.globl __ZNSt8_Rb_treeIiiSt9_IdentityIiESt4lessIiESaIiEE11_M_leftmostEv
	.weak_definition __ZNSt8_Rb_treeIiiSt9_IdentityIiESt4lessIiESaIiEE11_M_leftmostEv
__ZNSt8_Rb_treeIiiSt9_IdentityIiESt4lessIiESaIiEE11_M_leftmostEv:
LFB6513:
	pushq	%rbp
LCFI1666:
	movq	%rsp, %rbp
LCFI1667:
	movq	%rdi, -8(%rbp)
	movq	-8(%rbp), %rax
	addq	$24, %rax
	popq	%rbp
LCFI1668:
	ret
LFE6513:
	.align 1
	.globl __ZNSt4pairIPSt18_Rb_tree_node_baseS1_EC1IRS1_S4_Lb1EEEOT_OT0_
	.weak_definition __ZNSt4pairIPSt18_Rb_tree_node_baseS1_EC1IRS1_S4_Lb1EEEOT_OT0_
__ZNSt4pairIPSt18_Rb_tree_node_baseS1_EC1IRS1_S4_Lb1EEEOT_OT0_:
LFB6516:
	pushq	%rbp
LCFI1669:
	movq	%rsp, %rbp
LCFI1670:
	subq	$32, %rsp
	movq	%rdi, -8(%rbp)
	movq	%rsi, -16(%rbp)
	movq	%rdx, -24(%rbp)
	movq	-16(%rbp), %rax
	movq	%rax, %rdi
	call	__ZSt7forwardIRPSt18_Rb_tree_node_baseEOT_RNSt16remove_referenceIS3_E4typeE
	movq	(%rax), %rdx
	movq	-8(%rbp), %rax
	movq	%rdx, (%rax)
	movq	-24(%rbp), %rax
	movq	%rax, %rdi
	call	__ZSt7forwardIRPSt18_Rb_tree_node_baseEOT_RNSt16remove_referenceIS3_E4typeE
	movq	(%rax), %rdx
	movq	-8(%rbp), %rax
	movq	%rdx, 8(%rax)
	nop
	leave
LCFI1671:
	ret
LFE6516:
	.align 1
	.globl __ZNSt17_Rb_tree_iteratorIiEmmEv
	.weak_definition __ZNSt17_Rb_tree_iteratorIiEmmEv
__ZNSt17_Rb_tree_iteratorIiEmmEv:
LFB6517:
	pushq	%rbp
LCFI1672:
	movq	%rsp, %rbp
LCFI1673:
	subq	$16, %rsp
	movq	%rdi, -8(%rbp)
	movq	-8(%rbp), %rax
	movq	(%rax), %rax
	movq	%rax, %rdi
	call	__ZSt18_Rb_tree_decrementPSt18_Rb_tree_node_base
	movq	-8(%rbp), %rdx
	movq	%rax, (%rdx)
	movq	-8(%rbp), %rax
	leave
LCFI1674:
	ret
LFE6517:
	.align 1
	.globl __ZNSt17_Rb_tree_iteratorIiEppEv
	.weak_definition __ZNSt17_Rb_tree_iteratorIiEppEv
__ZNSt17_Rb_tree_iteratorIiEppEv:
LFB6518:
	pushq	%rbp
LCFI1675:
	movq	%rsp, %rbp
LCFI1676:
	subq	$16, %rsp
	movq	%rdi, -8(%rbp)
	movq	-8(%rbp), %rax
	movq	(%rax), %rax
	movq	%rax, %rdi
	call	__ZSt18_Rb_tree_incrementPSt18_Rb_tree_node_base
	movq	-8(%rbp), %rdx
	movq	%rax, (%rdx)
	movq	-8(%rbp), %rax
	leave
LCFI1677:
	ret
LFE6518:
	.align 1
	.globl __ZNKSt8_Rb_treeIiiSt9_IdentityIiESt4lessIiESaIiEE11_Alloc_nodeclIRiEEPSt13_Rb_tree_nodeIiEOT_
	.weak_definition __ZNKSt8_Rb_treeIiiSt9_IdentityIiESt4lessIiESaIiEE11_Alloc_nodeclIRiEEPSt13_Rb_tree_nodeIiEOT_
__ZNKSt8_Rb_treeIiiSt9_IdentityIiESt4lessIiESaIiEE11_Alloc_nodeclIRiEEPSt13_Rb_tree_nodeIiEOT_:
LFB6519:
	pushq	%rbp
LCFI1678:
	movq	%rsp, %rbp
LCFI1679:
	pushq	%rbx
	subq	$24, %rsp
LCFI1680:
	movq	%rdi, -24(%rbp)
	movq	%rsi, -32(%rbp)
	movq	-24(%rbp), %rax
	movq	(%rax), %rbx
	movq	-32(%rbp), %rax
	movq	%rax, %rdi
	call	__ZSt7forwardIRiEOT_RNSt16remove_referenceIS1_E4typeE
	movq	%rax, %rsi
	movq	%rbx, %rdi
	call	__ZNSt8_Rb_treeIiiSt9_IdentityIiESt4lessIiESaIiEE14_M_create_nodeIJRiEEEPSt13_Rb_tree_nodeIiEDpOT_
	addq	$24, %rsp
	popq	%rbx
	popq	%rbp
LCFI1681:
	ret
LFE6519:
	.align 1
	.globl __ZNSt8_Rb_treeIiiSt9_IdentityIiESt4lessIiESaIiEE21_M_get_Node_allocatorEv
	.weak_definition __ZNSt8_Rb_treeIiiSt9_IdentityIiESt4lessIiESaIiEE21_M_get_Node_allocatorEv
__ZNSt8_Rb_treeIiiSt9_IdentityIiESt4lessIiESaIiEE21_M_get_Node_allocatorEv:
LFB6520:
	pushq	%rbp
LCFI1682:
	movq	%rsp, %rbp
LCFI1683:
	movq	%rdi, -8(%rbp)
	movq	-8(%rbp), %rax
	popq	%rbp
LCFI1684:
	ret
LFE6520:
	.align 1
	.globl __ZNSt13_Rb_tree_nodeIiE9_M_valptrEv
	.weak_definition __ZNSt13_Rb_tree_nodeIiE9_M_valptrEv
__ZNSt13_Rb_tree_nodeIiE9_M_valptrEv:
LFB6521:
	pushq	%rbp
LCFI1685:
	movq	%rsp, %rbp
LCFI1686:
	subq	$16, %rsp
	movq	%rdi, -8(%rbp)
	movq	-8(%rbp), %rax
	addq	$32, %rax
	movq	%rax, %rdi
	call	__ZN9__gnu_cxx16__aligned_membufIiE6_M_ptrEv
	leave
LCFI1687:
	ret
LFE6521:
	.globl __ZNSt16allocator_traitsISaISt13_Rb_tree_nodeIiEEE7destroyIiEEvRS2_PT_
	.weak_definition __ZNSt16allocator_traitsISaISt13_Rb_tree_nodeIiEEE7destroyIiEEvRS2_PT_
__ZNSt16allocator_traitsISaISt13_Rb_tree_nodeIiEEE7destroyIiEEvRS2_PT_:
LFB6522:
	pushq	%rbp
LCFI1688:
	movq	%rsp, %rbp
LCFI1689:
	subq	$16, %rsp
	movq	%rdi, -8(%rbp)
	movq	%rsi, -16(%rbp)
	movq	-16(%rbp), %rdx
	movq	-8(%rbp), %rax
	movq	%rdx, %rsi
	movq	%rax, %rdi
	call	__ZN9__gnu_cxx13new_allocatorISt13_Rb_tree_nodeIiEE7destroyIiEEvPT_
	nop
	leave
LCFI1690:
	ret
LFE6522:
	.globl __ZNSt16allocator_traitsISaISt13_Rb_tree_nodeIiEEE10deallocateERS2_PS1_m
	.weak_definition __ZNSt16allocator_traitsISaISt13_Rb_tree_nodeIiEEE10deallocateERS2_PS1_m
__ZNSt16allocator_traitsISaISt13_Rb_tree_nodeIiEEE10deallocateERS2_PS1_m:
LFB6523:
	pushq	%rbp
LCFI1691:
	movq	%rsp, %rbp
LCFI1692:
	subq	$32, %rsp
	movq	%rdi, -8(%rbp)
	movq	%rsi, -16(%rbp)
	movq	%rdx, -24(%rbp)
	movq	-24(%rbp), %rdx
	movq	-16(%rbp), %rcx
	movq	-8(%rbp), %rax
	movq	%rcx, %rsi
	movq	%rax, %rdi
	call	__ZN9__gnu_cxx13new_allocatorISt13_Rb_tree_nodeIiEE10deallocateEPS2_m
	nop
	leave
LCFI1693:
	ret
LFE6523:
	.align 1
	.globl __ZN9__gnu_cxx13new_allocatorISt10_List_nodeIiEEC2ERKS3_
	.weak_definition __ZN9__gnu_cxx13new_allocatorISt10_List_nodeIiEEC2ERKS3_
__ZN9__gnu_cxx13new_allocatorISt10_List_nodeIiEEC2ERKS3_:
LFB6525:
	pushq	%rbp
LCFI1694:
	movq	%rsp, %rbp
LCFI1695:
	movq	%rdi, -8(%rbp)
	movq	%rsi, -16(%rbp)
	nop
	popq	%rbp
LCFI1696:
	ret
LFE6525:
	.align 1
	.globl __ZNK9__gnu_cxx16__aligned_membufIiE6_M_ptrEv
	.weak_definition __ZNK9__gnu_cxx16__aligned_membufIiE6_M_ptrEv
__ZNK9__gnu_cxx16__aligned_membufIiE6_M_ptrEv:
LFB6527:
	pushq	%rbp
LCFI1697:
	movq	%rsp, %rbp
LCFI1698:
	subq	$16, %rsp
	movq	%rdi, -8(%rbp)
	movq	-8(%rbp), %rax
	movq	%rax, %rdi
	call	__ZNK9__gnu_cxx16__aligned_membufIiE7_M_addrEv
	leave
LCFI1699:
	ret
LFE6527:
	.align 1
	.globl __ZNSt14_List_iteratorIiEC1EPNSt8__detail15_List_node_baseE
	.weak_definition __ZNSt14_List_iteratorIiEC1EPNSt8__detail15_List_node_baseE
__ZNSt14_List_iteratorIiEC1EPNSt8__detail15_List_node_baseE:
LFB6530:
	pushq	%rbp
LCFI1700:
	movq	%rsp, %rbp
LCFI1701:
	movq	%rdi, -8(%rbp)
	movq	%rsi, -16(%rbp)
	movq	-8(%rbp), %rax
	movq	-16(%rbp), %rdx
	movq	%rdx, (%rax)
	nop
	popq	%rbp
LCFI1702:
	ret
LFE6530:
	.align 1
	.globl __ZNSt7__cxx114listIiSaIiEE14_M_create_nodeIJRKiEEEPSt10_List_nodeIiEDpOT_
	.weak_definition __ZNSt7__cxx114listIiSaIiEE14_M_create_nodeIJRKiEEEPSt10_List_nodeIiEDpOT_
__ZNSt7__cxx114listIiSaIiEE14_M_create_nodeIJRKiEEEPSt10_List_nodeIiEDpOT_:
LFB6531:
	pushq	%rbp
LCFI1703:
	movq	%rsp, %rbp
LCFI1704:
	pushq	%rbx
	subq	$56, %rsp
LCFI1705:
	movq	%rdi, -56(%rbp)
	movq	%rsi, -64(%rbp)
	movq	-56(%rbp), %rax
	movq	%rax, %rdi
	call	__ZNSt7__cxx1110_List_baseIiSaIiEE11_M_get_nodeEv
	movq	%rax, -24(%rbp)
	movq	-56(%rbp), %rax
	movq	%rax, %rdi
	call	__ZNSt7__cxx1110_List_baseIiSaIiEE21_M_get_Node_allocatorEv
	movq	%rax, -32(%rbp)
	movq	-24(%rbp), %rdx
	movq	-32(%rbp), %rcx
	leaq	-48(%rbp), %rax
	movq	%rcx, %rsi
	movq	%rax, %rdi
	call	__ZNSt15__allocated_ptrISaISt10_List_nodeIiEEEC1ERS2_PS1_
	movq	-64(%rbp), %rax
	movq	%rax, %rdi
	call	__ZSt7forwardIRKiEOT_RNSt16remove_referenceIS2_E4typeE
	movq	%rax, %rbx
	movq	-24(%rbp), %rax
	movq	%rax, %rdi
	call	__ZNSt10_List_nodeIiE9_M_valptrEv
	movq	%rax, %rcx
	movq	-32(%rbp), %rax
	movq	%rbx, %rdx
	movq	%rcx, %rsi
	movq	%rax, %rdi
	call	__ZNSt16allocator_traitsISaISt10_List_nodeIiEEE9constructIiJRKiEEEvRS2_PT_DpOT0_
	leaq	-48(%rbp), %rax
	movl	$0, %esi
	movq	%rax, %rdi
	call	__ZNSt15__allocated_ptrISaISt10_List_nodeIiEEEaSEDn
	movq	-24(%rbp), %rbx
	leaq	-48(%rbp), %rax
	movq	%rax, %rdi
	call	__ZNSt15__allocated_ptrISaISt10_List_nodeIiEEED1Ev
	movq	%rbx, %rax
	addq	$56, %rsp
	popq	%rbx
	popq	%rbp
LCFI1706:
	ret
LFE6531:
	.align 1
	.globl __ZNSt7__cxx1110_List_baseIiSaIiEE11_M_inc_sizeEm
	.weak_definition __ZNSt7__cxx1110_List_baseIiSaIiEE11_M_inc_sizeEm
__ZNSt7__cxx1110_List_baseIiSaIiEE11_M_inc_sizeEm:
LFB6532:
	pushq	%rbp
LCFI1707:
	movq	%rsp, %rbp
LCFI1708:
	movq	%rdi, -8(%rbp)
	movq	%rsi, -16(%rbp)
	movq	-8(%rbp), %rax
	movq	16(%rax), %rdx
	movq	-16(%rbp), %rax
	addq	%rax, %rdx
	movq	-8(%rbp), %rax
	movq	%rdx, 16(%rax)
	nop
	popq	%rbp
LCFI1709:
	ret
LFE6532:
	.align 1
	.globl __ZN9__gnu_cxx16__aligned_membufIiE7_M_addrEv
	.weak_definition __ZN9__gnu_cxx16__aligned_membufIiE7_M_addrEv
__ZN9__gnu_cxx16__aligned_membufIiE7_M_addrEv:
LFB6533:
	pushq	%rbp
LCFI1710:
	movq	%rsp, %rbp
LCFI1711:
	movq	%rdi, -8(%rbp)
	movq	-8(%rbp), %rax
	popq	%rbp
LCFI1712:
	ret
LFE6533:
	.align 1
	.globl __ZN9__gnu_cxx13new_allocatorISt10_List_nodeIiEE10deallocateEPS2_m
	.weak_definition __ZN9__gnu_cxx13new_allocatorISt10_List_nodeIiEE10deallocateEPS2_m
__ZN9__gnu_cxx13new_allocatorISt10_List_nodeIiEE10deallocateEPS2_m:
LFB6534:
	pushq	%rbp
LCFI1713:
	movq	%rsp, %rbp
LCFI1714:
	subq	$32, %rsp
	movq	%rdi, -8(%rbp)
	movq	%rsi, -16(%rbp)
	movq	%rdx, -24(%rbp)
	movq	-16(%rbp), %rax
	movq	%rax, %rdi
	call	__ZdlPv
	nop
	leave
LCFI1715:
	ret
LFE6534:
	.align 1
	.globl __ZNSt20back_insert_iteratorINSt7__cxx114listIiSaIiEEEEppEv
	.weak_definition __ZNSt20back_insert_iteratorINSt7__cxx114listIiSaIiEEEEppEv
__ZNSt20back_insert_iteratorINSt7__cxx114listIiSaIiEEEEppEv:
LFB6535:
	pushq	%rbp
LCFI1716:
	movq	%rsp, %rbp
LCFI1717:
	movq	%rdi, -8(%rbp)
	movq	-8(%rbp), %rax
	popq	%rbp
LCFI1718:
	ret
LFE6535:
	.align 1
	.globl __ZNSt20back_insert_iteratorINSt7__cxx114listIiSaIiEEEEdeEv
	.weak_definition __ZNSt20back_insert_iteratorINSt7__cxx114listIiSaIiEEEEdeEv
__ZNSt20back_insert_iteratorINSt7__cxx114listIiSaIiEEEEdeEv:
LFB6536:
	pushq	%rbp
LCFI1719:
	movq	%rsp, %rbp
LCFI1720:
	movq	%rdi, -8(%rbp)
	movq	-8(%rbp), %rax
	popq	%rbp
LCFI1721:
	ret
LFE6536:
	.align 1
	.globl __ZNSt20back_insert_iteratorINSt7__cxx114listIiSaIiEEEEaSERKi
	.weak_definition __ZNSt20back_insert_iteratorINSt7__cxx114listIiSaIiEEEEaSERKi
__ZNSt20back_insert_iteratorINSt7__cxx114listIiSaIiEEEEaSERKi:
LFB6537:
	pushq	%rbp
LCFI1722:
	movq	%rsp, %rbp
LCFI1723:
	subq	$16, %rsp
	movq	%rdi, -8(%rbp)
	movq	%rsi, -16(%rbp)
	movq	-8(%rbp), %rax
	movq	(%rax), %rax
	movq	-16(%rbp), %rdx
	movq	%rdx, %rsi
	movq	%rax, %rdi
	call	__ZNSt7__cxx114listIiSaIiEE9push_backERKi
	movq	-8(%rbp), %rax
	leave
LCFI1724:
	ret
LFE6537:
	.globl __ZN9__gnu_cxx17__is_null_pointerIcEEbPT_
	.weak_definition __ZN9__gnu_cxx17__is_null_pointerIcEEbPT_
__ZN9__gnu_cxx17__is_null_pointerIcEEbPT_:
LFB6538:
	pushq	%rbp
LCFI1725:
	movq	%rsp, %rbp
LCFI1726:
	movq	%rdi, -8(%rbp)
	cmpq	$0, -8(%rbp)
	sete	%al
	popq	%rbp
LCFI1727:
	ret
LFE6538:
	.globl __ZSt8distanceIPcENSt15iterator_traitsIT_E15difference_typeES2_S2_
	.weak_definition __ZSt8distanceIPcENSt15iterator_traitsIT_E15difference_typeES2_S2_
__ZSt8distanceIPcENSt15iterator_traitsIT_E15difference_typeES2_S2_:
LFB6539:
	pushq	%rbp
LCFI1728:
	movq	%rsp, %rbp
LCFI1729:
	subq	$32, %rsp
	movq	%rdi, -24(%rbp)
	movq	%rsi, -32(%rbp)
	leaq	-24(%rbp), %rax
	movq	%rax, %rdi
	call	__ZSt19__iterator_categoryIPcENSt15iterator_traitsIT_E17iterator_categoryERKS2_
	movq	-24(%rbp), %rax
	movq	-32(%rbp), %rdx
	movq	%rdx, %rsi
	movq	%rax, %rdi
	call	__ZSt10__distanceIPcENSt15iterator_traitsIT_E15difference_typeES2_S2_St26random_access_iterator_tag
	leave
LCFI1730:
	ret
LFE6539:
	.globl __ZSt19__iterator_categoryIPKcENSt15iterator_traitsIT_E17iterator_categoryERKS3_
	.weak_definition __ZSt19__iterator_categoryIPKcENSt15iterator_traitsIT_E17iterator_categoryERKS3_
__ZSt19__iterator_categoryIPKcENSt15iterator_traitsIT_E17iterator_categoryERKS3_:
LFB6545:
	pushq	%rbp
LCFI1731:
	movq	%rsp, %rbp
LCFI1732:
	movq	%rdi, -8(%rbp)
	popq	%rbp
LCFI1733:
	ret
LFE6545:
	.globl __ZSt10__distanceIPKcENSt15iterator_traitsIT_E15difference_typeES3_S3_St26random_access_iterator_tag
	.weak_definition __ZSt10__distanceIPKcENSt15iterator_traitsIT_E15difference_typeES3_S3_St26random_access_iterator_tag
__ZSt10__distanceIPKcENSt15iterator_traitsIT_E15difference_typeES3_S3_St26random_access_iterator_tag:
LFB6546:
	pushq	%rbp
LCFI1734:
	movq	%rsp, %rbp
LCFI1735:
	movq	%rdi, -8(%rbp)
	movq	%rsi, -16(%rbp)
	movq	-16(%rbp), %rax
	subq	-8(%rbp), %rax
	popq	%rbp
LCFI1736:
	ret
LFE6546:
	.align 1
	.globl __ZNK9__gnu_cxx13new_allocatorIcE8max_sizeEv
	.weak_definition __ZNK9__gnu_cxx13new_allocatorIcE8max_sizeEv
__ZNK9__gnu_cxx13new_allocatorIcE8max_sizeEv:
LFB6563:
	pushq	%rbp
LCFI1737:
	movq	%rsp, %rbp
LCFI1738:
	movq	%rdi, -8(%rbp)
	movabsq	$9223372036854775807, %rax
	popq	%rbp
LCFI1739:
	ret
LFE6563:
	.align 1
	.globl __ZN9__gnu_cxx13new_allocatorIPiE8allocateEmPKv
	.weak_definition __ZN9__gnu_cxx13new_allocatorIPiE8allocateEmPKv
__ZN9__gnu_cxx13new_allocatorIPiE8allocateEmPKv:
LFB6564:
	pushq	%rbp
LCFI1740:
	movq	%rsp, %rbp
LCFI1741:
	subq	$32, %rsp
	movq	%rdi, -8(%rbp)
	movq	%rsi, -16(%rbp)
	movq	%rdx, -24(%rbp)
	movq	-8(%rbp), %rax
	movq	%rax, %rdi
	call	__ZNK9__gnu_cxx13new_allocatorIPiE8max_sizeEv
	cmpq	%rax, -16(%rbp)
	seta	%al
	testb	%al, %al
	je	L1197
	call	__ZSt17__throw_bad_allocv
L1197:
	movq	-16(%rbp), %rax
	salq	$3, %rax
	movq	%rax, %rdi
	call	__Znwm
	leave
LCFI1742:
	ret
LFE6564:
	.align 1
	.globl __ZN9__gnu_cxx13new_allocatorIiE10deallocateEPim
	.weak_definition __ZN9__gnu_cxx13new_allocatorIiE10deallocateEPim
__ZN9__gnu_cxx13new_allocatorIiE10deallocateEPim:
LFB6565:
	pushq	%rbp
LCFI1743:
	movq	%rsp, %rbp
LCFI1744:
	subq	$32, %rsp
	movq	%rdi, -8(%rbp)
	movq	%rsi, -16(%rbp)
	movq	%rdx, -24(%rbp)
	movq	-16(%rbp), %rax
	movq	%rax, %rdi
	call	__ZdlPv
	nop
	leave
LCFI1745:
	ret
LFE6565:
	.align 1
	.globl __ZN9__gnu_cxx13new_allocatorIPiEC2Ev
	.weak_definition __ZN9__gnu_cxx13new_allocatorIPiEC2Ev
__ZN9__gnu_cxx13new_allocatorIPiEC2Ev:
LFB6567:
	pushq	%rbp
LCFI1746:
	movq	%rsp, %rbp
LCFI1747:
	movq	%rdi, -8(%rbp)
	nop
	popq	%rbp
LCFI1748:
	ret
LFE6567:
	.globl __ZNSt16allocator_traitsISaIiEE8max_sizeERKS0_
	.weak_definition __ZNSt16allocator_traitsISaIiEE8max_sizeERKS0_
__ZNSt16allocator_traitsISaIiEE8max_sizeERKS0_:
LFB6570:
	pushq	%rbp
LCFI1749:
	movq	%rsp, %rbp
LCFI1750:
	subq	$16, %rsp
	movq	%rdi, -8(%rbp)
	movq	-8(%rbp), %rax
	movq	%rax, %rdi
	call	__ZNK9__gnu_cxx13new_allocatorIiE8max_sizeEv
	leave
LCFI1751:
	ret
LFE6570:
	.globl __ZSt3minImERKT_S2_S2_
	.weak_definition __ZSt3minImERKT_S2_S2_
__ZSt3minImERKT_S2_S2_:
LFB6571:
	pushq	%rbp
LCFI1752:
	movq	%rsp, %rbp
LCFI1753:
	movq	%rdi, -8(%rbp)
	movq	%rsi, -16(%rbp)
	movq	-16(%rbp), %rax
	movq	(%rax), %rdx
	movq	-8(%rbp), %rax
	movq	(%rax), %rax
	cmpq	%rax, %rdx
	jnb	L1204
	movq	-16(%rbp), %rax
	jmp	L1205
L1204:
	movq	-8(%rbp), %rax
L1205:
	popq	%rbp
LCFI1754:
	ret
LFE6571:
	.globl __ZSt4copyIPPiS1_ET0_T_S3_S2_
	.weak_definition __ZSt4copyIPPiS1_ET0_T_S3_S2_
__ZSt4copyIPPiS1_ET0_T_S3_S2_:
LFB6572:
	pushq	%rbp
LCFI1755:
	movq	%rsp, %rbp
LCFI1756:
	pushq	%rbx
	subq	$40, %rsp
LCFI1757:
	movq	%rdi, -24(%rbp)
	movq	%rsi, -32(%rbp)
	movq	%rdx, -40(%rbp)
	movq	-32(%rbp), %rax
	movq	%rax, %rdi
	call	__ZSt12__miter_baseIPPiET_S2_
	movq	%rax, %rbx
	movq	-24(%rbp), %rax
	movq	%rax, %rdi
	call	__ZSt12__miter_baseIPPiET_S2_
	movq	%rax, %rcx
	movq	-40(%rbp), %rax
	movq	%rax, %rdx
	movq	%rbx, %rsi
	movq	%rcx, %rdi
	call	__ZSt14__copy_move_a2ILb0EPPiS1_ET1_T0_S3_S2_
	addq	$40, %rsp
	popq	%rbx
	popq	%rbp
LCFI1758:
	ret
LFE6572:
	.globl __ZSt13copy_backwardIPPiS1_ET0_T_S3_S2_
	.weak_definition __ZSt13copy_backwardIPPiS1_ET0_T_S3_S2_
__ZSt13copy_backwardIPPiS1_ET0_T_S3_S2_:
LFB6573:
	pushq	%rbp
LCFI1759:
	movq	%rsp, %rbp
LCFI1760:
	pushq	%rbx
	subq	$40, %rsp
LCFI1761:
	movq	%rdi, -24(%rbp)
	movq	%rsi, -32(%rbp)
	movq	%rdx, -40(%rbp)
	movq	-32(%rbp), %rax
	movq	%rax, %rdi
	call	__ZSt12__miter_baseIPPiET_S2_
	movq	%rax, %rbx
	movq	-24(%rbp), %rax
	movq	%rax, %rdi
	call	__ZSt12__miter_baseIPPiET_S2_
	movq	%rax, %rcx
	movq	-40(%rbp), %rax
	movq	%rax, %rdx
	movq	%rbx, %rsi
	movq	%rcx, %rdi
	call	__ZSt23__copy_move_backward_a2ILb0EPPiS1_ET1_T0_S3_S2_
	addq	$40, %rsp
	popq	%rbx
	popq	%rbp
LCFI1762:
	ret
LFE6573:
	.align 1
	.globl __ZN9__gnu_cxx13new_allocatorIiE8allocateEmPKv
	.weak_definition __ZN9__gnu_cxx13new_allocatorIiE8allocateEmPKv
__ZN9__gnu_cxx13new_allocatorIiE8allocateEmPKv:
LFB6574:
	pushq	%rbp
LCFI1763:
	movq	%rsp, %rbp
LCFI1764:
	subq	$32, %rsp
	movq	%rdi, -8(%rbp)
	movq	%rsi, -16(%rbp)
	movq	%rdx, -24(%rbp)
	movq	-8(%rbp), %rax
	movq	%rax, %rdi
	call	__ZNK9__gnu_cxx13new_allocatorIiE8max_sizeEv
	cmpq	%rax, -16(%rbp)
	seta	%al
	testb	%al, %al
	je	L1211
	call	__ZSt17__throw_bad_allocv
L1211:
	movq	-16(%rbp), %rax
	salq	$2, %rax
	movq	%rax, %rdi
	call	__Znwm
	leave
LCFI1765:
	ret
LFE6574:
	.align 1
	.globl __ZNSt16_Sp_counted_baseILN9__gnu_cxx12_Lock_policyE2EEC2Ev
	.weak_definition __ZNSt16_Sp_counted_baseILN9__gnu_cxx12_Lock_policyE2EEC2Ev
__ZNSt16_Sp_counted_baseILN9__gnu_cxx12_Lock_policyE2EEC2Ev:
LFB6576:
	pushq	%rbp
LCFI1766:
	movq	%rsp, %rbp
LCFI1767:
	movq	%rdi, -8(%rbp)
	movq	__ZTVSt16_Sp_counted_baseILN9__gnu_cxx12_Lock_policyE2EE@GOTPCREL(%rip), %rax
	leaq	16(%rax), %rax
	movq	-8(%rbp), %rdx
	movq	%rax, (%rdx)
	movq	-8(%rbp), %rax
	movl	$1, 8(%rax)
	movq	-8(%rbp), %rax
	movl	$1, 12(%rax)
	nop
	popq	%rbp
LCFI1768:
	ret
LFE6576:
	.globl __ZNSt10_Head_baseILm2ERdLb0EE7_M_headERS1_
	.weak_definition __ZNSt10_Head_baseILm2ERdLb0EE7_M_headERS1_
__ZNSt10_Head_baseILm2ERdLb0EE7_M_headERS1_:
LFB6578:
	pushq	%rbp
LCFI1769:
	movq	%rsp, %rbp
LCFI1770:
	movq	%rdi, -8(%rbp)
	movq	-8(%rbp), %rax
	movq	(%rax), %rax
	popq	%rbp
LCFI1771:
	ret
LFE6578:
	.globl __ZNSt10_Head_baseILm2EdLb0EE7_M_headERKS0_
	.weak_definition __ZNSt10_Head_baseILm2EdLb0EE7_M_headERKS0_
__ZNSt10_Head_baseILm2EdLb0EE7_M_headERKS0_:
LFB6579:
	pushq	%rbp
LCFI1772:
	movq	%rsp, %rbp
LCFI1773:
	movq	%rdi, -8(%rbp)
	movq	-8(%rbp), %rax
	popq	%rbp
LCFI1774:
	ret
LFE6579:
	.globl __ZSt11make_sharedINSt8__detail4_NFAINSt7__cxx1112regex_traitsIcEEEEJRKSt6localeRNSt15regex_constants18syntax_option_typeEEESt10shared_ptrIT_EDpOT0_
	.weak_definition __ZSt11make_sharedINSt8__detail4_NFAINSt7__cxx1112regex_traitsIcEEEEJRKSt6localeRNSt15regex_constants18syntax_option_typeEEESt10shared_ptrIT_EDpOT0_
__ZSt11make_sharedINSt8__detail4_NFAINSt7__cxx1112regex_traitsIcEEEEJRKSt6localeRNSt15regex_constants18syntax_option_typeEEESt10shared_ptrIT_EDpOT0_:
LFB6580:
	pushq	%rbp
LCFI1775:
	movq	%rsp, %rbp
LCFI1776:
	pushq	%r12
	pushq	%rbx
	subq	$48, %rsp
LCFI1777:
	movq	%rdi, -40(%rbp)
	movq	%rsi, -48(%rbp)
	movq	%rdx, -56(%rbp)
	movq	-56(%rbp), %rax
	movq	%rax, %rdi
	call	__ZSt7forwardIRNSt15regex_constants18syntax_option_typeEEOT_RNSt16remove_referenceIS3_E4typeE
	movq	%rax, %r12
	movq	-48(%rbp), %rax
	movq	%rax, %rdi
	call	__ZSt7forwardIRKSt6localeEOT_RNSt16remove_referenceIS3_E4typeE
	movq	%rax, %rbx
	leaq	-17(%rbp), %rax
	movq	%rax, %rdi
	call	__ZNSaINSt8__detail4_NFAINSt7__cxx1112regex_traitsIcEEEEEC1Ev
	movq	-40(%rbp), %rdi
	leaq	-17(%rbp), %rax
	movq	%r12, %rcx
	movq	%rbx, %rdx
	movq	%rax, %rsi
LEHB106:
	call	__ZSt15allocate_sharedINSt8__detail4_NFAINSt7__cxx1112regex_traitsIcEEEESaIS5_EJRKSt6localeRNSt15regex_constants18syntax_option_typeEEESt10shared_ptrIT_ERKT0_DpOT1_
LEHE106:
	leaq	-17(%rbp), %rax
	movq	%rax, %rdi
	call	__ZNSaINSt8__detail4_NFAINSt7__cxx1112regex_traitsIcEEEEED1Ev
	jmp	L1222
L1221:
	movq	%rax, %rbx
	leaq	-17(%rbp), %rax
	movq	%rax, %rdi
	call	__ZNSaINSt8__detail4_NFAINSt7__cxx1112regex_traitsIcEEEEED1Ev
	movq	%rbx, %rax
	movq	%rax, %rdi
LEHB107:
	call	__Unwind_Resume
LEHE107:
L1222:
	movq	-40(%rbp), %rax
	addq	$48, %rsp
	popq	%rbx
	popq	%r12
	popq	%rbp
LCFI1778:
	ret
LFE6580:
	.section __DATA,__gcc_except_tab
GCC_except_table48:
LLSDA6580:
	.byte	0xff
	.byte	0x3
	.byte	0x1a
	.set L$set$277,LEHB106-LFB6580
	.long L$set$277
	.set L$set$278,LEHE106-LEHB106
	.long L$set$278
	.set L$set$279,L1221-LFB6580
	.long L$set$279
	.byte	0
	.set L$set$280,LEHB107-LFB6580
	.long L$set$280
	.set L$set$281,LEHE107-LEHB107
	.long L$set$281
	.long	0
	.byte	0
	.section __TEXT,__textcoal_nt,coalesced,pure_instructions
	.align 1
	.globl __ZNKSt19__shared_ptr_accessINSt8__detail4_NFAINSt7__cxx1112regex_traitsIcEEEELN9__gnu_cxx12_Lock_policyE2ELb0ELb0EEptEv
	.weak_definition __ZNKSt19__shared_ptr_accessINSt8__detail4_NFAINSt7__cxx1112regex_traitsIcEEEELN9__gnu_cxx12_Lock_policyE2ELb0ELb0EEptEv
__ZNKSt19__shared_ptr_accessINSt8__detail4_NFAINSt7__cxx1112regex_traitsIcEEEELN9__gnu_cxx12_Lock_policyE2ELb0ELb0EEptEv:
LFB6581:
	pushq	%rbp
LCFI1779:
	movq	%rsp, %rbp
LCFI1780:
	subq	$16, %rsp
	movq	%rdi, -8(%rbp)
	movq	-8(%rbp), %rax
	movq	%rax, %rdi
	call	__ZNKSt19__shared_ptr_accessINSt8__detail4_NFAINSt7__cxx1112regex_traitsIcEEEELN9__gnu_cxx12_Lock_policyE2ELb0ELb0EE6_M_getEv
	leave
LCFI1781:
	ret
LFE6581:
	.align 1
	.globl __ZNSt8__detail8_ScannerIcEC1EPKcS3_NSt15regex_constants18syntax_option_typeESt6locale
	.weak_definition __ZNSt8__detail8_ScannerIcEC1EPKcS3_NSt15regex_constants18syntax_option_typeESt6locale
__ZNSt8__detail8_ScannerIcEC1EPKcS3_NSt15regex_constants18syntax_option_typeESt6locale:
LFB6584:
	pushq	%rbp
LCFI1782:
	movq	%rsp, %rbp
LCFI1783:
	pushq	%rbx
	subq	$56, %rsp
LCFI1784:
	movq	%rdi, -24(%rbp)
	movq	%rsi, -32(%rbp)
	movq	%rdx, -40(%rbp)
	movl	%ecx, -44(%rbp)
	movq	%r8, -56(%rbp)
	movq	-24(%rbp), %rax
	movl	-44(%rbp), %edx
	movl	%edx, %esi
	movq	%rax, %rdi
	call	__ZNSt8__detail12_ScannerBaseC2ENSt15regex_constants18syntax_option_typeE
	movq	-24(%rbp), %rax
	movq	-32(%rbp), %rdx
	movq	%rdx, 176(%rax)
	movq	-24(%rbp), %rax
	movq	-40(%rbp), %rdx
	movq	%rdx, 184(%rax)
	movq	-56(%rbp), %rax
	movq	%rax, %rdi
LEHB108:
	call	__ZSt9use_facetIKSt5ctypeIcEERKT_RKSt6locale
LEHE108:
	movq	-24(%rbp), %rdx
	movq	%rax, 192(%rdx)
	movq	-24(%rbp), %rax
	addq	$200, %rax
	movq	%rax, %rdi
	call	__ZNSt7__cxx1112basic_stringIcSt11char_traitsIcESaIcEEC1Ev
	movq	-24(%rbp), %rax
	movq	%rax, %rdi
	call	__ZNKSt8__detail12_ScannerBase10_M_is_ecmaEv
	testb	%al, %al
	je	L1226
	movq	-24(%rbp), %rax
	movq	__ZNSt8__detail8_ScannerIcE18_M_eat_escape_ecmaEv@GOTPCREL(%rip), %rdx
	movq	%rdx, 232(%rax)
	movq	-24(%rbp), %rax
	movq	$0, 240(%rax)
	jmp	L1227
L1226:
	movq	-24(%rbp), %rax
	movq	__ZNSt8__detail8_ScannerIcE19_M_eat_escape_posixEv@GOTPCREL(%rip), %rdx
	movq	%rdx, 232(%rax)
	movq	-24(%rbp), %rax
	movq	$0, 240(%rax)
L1227:
	movq	-24(%rbp), %rax
	movq	%rax, %rdi
LEHB109:
	call	__ZNSt8__detail8_ScannerIcE10_M_advanceEv
LEHE109:
	jmp	L1230
L1229:
	movq	%rax, %rbx
	movq	-24(%rbp), %rax
	addq	$200, %rax
	movq	%rax, %rdi
	call	__ZNSt7__cxx1112basic_stringIcSt11char_traitsIcESaIcEED1Ev
	movq	%rbx, %rax
	movq	%rax, %rdi
LEHB110:
	call	__Unwind_Resume
LEHE110:
L1230:
	addq	$56, %rsp
	popq	%rbx
	popq	%rbp
LCFI1785:
	ret
LFE6584:
	.section __DATA,__gcc_except_tab
GCC_except_table49:
LLSDA6584:
	.byte	0xff
	.byte	0x3
	.byte	0x27
	.set L$set$282,LEHB108-LFB6584
	.long L$set$282
	.set L$set$283,LEHE108-LEHB108
	.long L$set$283
	.long	0
	.byte	0
	.set L$set$284,LEHB109-LFB6584
	.long L$set$284
	.set L$set$285,LEHE109-LEHB109
	.long L$set$285
	.set L$set$286,L1229-LFB6584
	.long L$set$286
	.byte	0
	.set L$set$287,LEHB110-LFB6584
	.long L$set$287
	.set L$set$288,LEHE110-LEHB110
	.long L$set$288
	.long	0
	.byte	0
	.section __TEXT,__textcoal_nt,coalesced,pure_instructions
	.align 1
	.globl __ZNSt5stackINSt8__detail9_StateSeqINSt7__cxx1112regex_traitsIcEEEESt5dequeIS5_SaIS5_EEEC1IS8_vEEv
	.weak_definition __ZNSt5stackINSt8__detail9_StateSeqINSt7__cxx1112regex_traitsIcEEEESt5dequeIS5_SaIS5_EEEC1IS8_vEEv
__ZNSt5stackINSt8__detail9_StateSeqINSt7__cxx1112regex_traitsIcEEEESt5dequeIS5_SaIS5_EEEC1IS8_vEEv:
LFB6590:
	pushq	%rbp
LCFI1786:
	movq	%rsp, %rbp
LCFI1787:
	subq	$16, %rsp
	movq	%rdi, -8(%rbp)
	movq	-8(%rbp), %rax
	movq	%rax, %rdi
	call	__ZNSt5dequeINSt8__detail9_StateSeqINSt7__cxx1112regex_traitsIcEEEESaIS5_EEC1Ev
	nop
	leave
LCFI1788:
	ret
LFE6590:
	.align 1
	.globl __ZNKSt19__shared_ptr_accessINSt8__detail4_NFAINSt7__cxx1112regex_traitsIcEEEELN9__gnu_cxx12_Lock_policyE2ELb0ELb0EEdeEv
	.weak_definition __ZNKSt19__shared_ptr_accessINSt8__detail4_NFAINSt7__cxx1112regex_traitsIcEEEELN9__gnu_cxx12_Lock_policyE2ELb0ELb0EEdeEv
__ZNKSt19__shared_ptr_accessINSt8__detail4_NFAINSt7__cxx1112regex_traitsIcEEEELN9__gnu_cxx12_Lock_policyE2ELb0ELb0EEdeEv:
LFB6591:
	pushq	%rbp
LCFI1789:
	movq	%rsp, %rbp
LCFI1790:
	subq	$16, %rsp
	movq	%rdi, -8(%rbp)
	movq	-8(%rbp), %rax
	movq	%rax, %rdi
	call	__ZNKSt19__shared_ptr_accessINSt8__detail4_NFAINSt7__cxx1112regex_traitsIcEEEELN9__gnu_cxx12_Lock_policyE2ELb0ELb0EE6_M_getEv
	leave
LCFI1791:
	ret
LFE6591:
	.align 1
	.globl __ZNSt8__detail9_StateSeqINSt7__cxx1112regex_traitsIcEEEC1ERNS_4_NFAIS3_EEl
	.weak_definition __ZNSt8__detail9_StateSeqINSt7__cxx1112regex_traitsIcEEEC1ERNS_4_NFAIS3_EEl
__ZNSt8__detail9_StateSeqINSt7__cxx1112regex_traitsIcEEEC1ERNS_4_NFAIS3_EEl:
LFB6594:
	pushq	%rbp
LCFI1792:
	movq	%rsp, %rbp
LCFI1793:
	movq	%rdi, -8(%rbp)
	movq	%rsi, -16(%rbp)
	movq	%rdx, -24(%rbp)
	movq	-8(%rbp), %rax
	movq	-16(%rbp), %rdx
	movq	%rdx, (%rax)
	movq	-8(%rbp), %rax
	movq	-24(%rbp), %rdx
	movq	%rdx, 8(%rax)
	movq	-8(%rbp), %rax
	movq	-24(%rbp), %rdx
	movq	%rdx, 16(%rax)
	nop
	popq	%rbp
LCFI1794:
	ret
LFE6594:
	.align 1
	.globl __ZNSt8__detail4_NFAINSt7__cxx1112regex_traitsIcEEE23_M_insert_subexpr_beginEv
	.weak_definition __ZNSt8__detail4_NFAINSt7__cxx1112regex_traitsIcEEE23_M_insert_subexpr_beginEv
__ZNSt8__detail4_NFAINSt7__cxx1112regex_traitsIcEEE23_M_insert_subexpr_beginEv:
LFB6595:
	pushq	%rbp
LCFI1795:
	movq	%rsp, %rbp
LCFI1796:
	pushq	%rbx
	subq	$136, %rsp
LCFI1797:
	movq	%rdi, -136(%rbp)
	movq	-136(%rbp), %rax
	movq	40(%rax), %rax
	leaq	1(%rax), %rdx
	movq	-136(%rbp), %rcx
	movq	%rdx, 40(%rcx)
	movq	%rax, -72(%rbp)
	movq	-136(%rbp), %rdx
	leaq	-72(%rbp), %rax
	movq	%rax, %rsi
	movq	%rdx, %rdi
LEHB111:
	call	__ZNSt6vectorImSaImEE9push_backERKm
	leaq	-128(%rbp), %rax
	movl	$8, %esi
	movq	%rax, %rdi
	call	__ZNSt8__detail6_StateIcEC1ENS_7_OpcodeE
LEHE111:
	movq	-72(%rbp), %rax
	movq	%rax, -112(%rbp)
	leaq	-128(%rbp), %rax
	movq	%rax, %rdi
	call	__ZSt4moveIRNSt8__detail6_StateIcEEEONSt16remove_referenceIT_E4typeEOS5_
	movq	%rax, %rdx
	leaq	-64(%rbp), %rax
	movq	%rdx, %rsi
	movq	%rax, %rdi
LEHB112:
	call	__ZNSt8__detail6_StateIcEC1EOS1_
LEHE112:
	leaq	-64(%rbp), %rax
	movq	-136(%rbp), %rdx
	movq	%rax, %rsi
	movq	%rdx, %rdi
LEHB113:
	call	__ZNSt8__detail4_NFAINSt7__cxx1112regex_traitsIcEEE15_M_insert_stateENS_6_StateIcEE
LEHE113:
	movq	%rax, %rbx
	leaq	-64(%rbp), %rax
	movq	%rax, %rdi
	call	__ZNSt8__detail6_StateIcED1Ev
	leaq	-128(%rbp), %rax
	movq	%rax, %rdi
	call	__ZNSt8__detail6_StateIcED1Ev
	movq	%rbx, %rax
	jmp	L1241
L1240:
	movq	%rax, %rbx
	leaq	-64(%rbp), %rax
	movq	%rax, %rdi
	call	__ZNSt8__detail6_StateIcED1Ev
	jmp	L1238
L1239:
	movq	%rax, %rbx
L1238:
	leaq	-128(%rbp), %rax
	movq	%rax, %rdi
	call	__ZNSt8__detail6_StateIcED1Ev
	movq	%rbx, %rax
	movq	%rax, %rdi
LEHB114:
	call	__Unwind_Resume
LEHE114:
L1241:
	addq	$136, %rsp
	popq	%rbx
	popq	%rbp
LCFI1798:
	ret
LFE6595:
	.section __DATA,__gcc_except_tab
GCC_except_table50:
LLSDA6595:
	.byte	0xff
	.byte	0x3
	.byte	0x34
	.set L$set$289,LEHB111-LFB6595
	.long L$set$289
	.set L$set$290,LEHE111-LEHB111
	.long L$set$290
	.long	0
	.byte	0
	.set L$set$291,LEHB112-LFB6595
	.long L$set$291
	.set L$set$292,LEHE112-LEHB112
	.long L$set$292
	.set L$set$293,L1239-LFB6595
	.long L$set$293
	.byte	0
	.set L$set$294,LEHB113-LFB6595
	.long L$set$294
	.set L$set$295,LEHE113-LEHB113
	.long L$set$295
	.set L$set$296,L1240-LFB6595
	.long L$set$296
	.byte	0
	.set L$set$297,LEHB114-LFB6595
	.long L$set$297
	.set L$set$298,LEHE114-LEHB114
	.long L$set$298
	.long	0
	.byte	0
	.section __TEXT,__textcoal_nt,coalesced,pure_instructions
	.align 1
	.globl __ZNSt8__detail9_StateSeqINSt7__cxx1112regex_traitsIcEEE9_M_appendEl
	.weak_definition __ZNSt8__detail9_StateSeqINSt7__cxx1112regex_traitsIcEEE9_M_appendEl
__ZNSt8__detail9_StateSeqINSt7__cxx1112regex_traitsIcEEE9_M_appendEl:
LFB6596:
	pushq	%rbp
LCFI1799:
	movq	%rsp, %rbp
LCFI1800:
	subq	$16, %rsp
	movq	%rdi, -8(%rbp)
	movq	%rsi, -16(%rbp)
	movq	-8(%rbp), %rax
	movq	16(%rax), %rax
	movq	%rax, %rdx
	movq	-8(%rbp), %rax
	movq	(%rax), %rax
	addq	$56, %rax
	movq	%rdx, %rsi
	movq	%rax, %rdi
	call	__ZNSt6vectorINSt8__detail6_StateIcEESaIS2_EEixEm
	movq	-16(%rbp), %rdx
	movq	%rdx, 8(%rax)
	movq	-8(%rbp), %rax
	movq	-16(%rbp), %rdx
	movq	%rdx, 16(%rax)
	nop
	leave
LCFI1801:
	ret
LFE6596:
	.align 1
	.globl __ZNSt8__detail9_CompilerINSt7__cxx1112regex_traitsIcEEE14_M_disjunctionEv
	.weak_definition __ZNSt8__detail9_CompilerINSt7__cxx1112regex_traitsIcEEE14_M_disjunctionEv
__ZNSt8__detail9_CompilerINSt7__cxx1112regex_traitsIcEEE14_M_disjunctionEv:
LFB6597:
	pushq	%rbp
LCFI1802:
	movq	%rsp, %rbp
LCFI1803:
	pushq	%r12
	pushq	%rbx
	subq	$112, %rsp
LCFI1804:
	movq	%rdi, -120(%rbp)
	movq	-120(%rbp), %rax
	movq	%rax, %rdi
	call	__ZNSt8__detail9_CompilerINSt7__cxx1112regex_traitsIcEEE14_M_alternativeEv
L1245:
	movq	-120(%rbp), %rax
	movl	$19, %esi
	movq	%rax, %rdi
	call	__ZNSt8__detail9_CompilerINSt7__cxx1112regex_traitsIcEEE14_M_match_tokenENS_12_ScannerBase7_TokenTE
	testb	%al, %al
	je	L1246
	leaq	-80(%rbp), %rax
	movq	-120(%rbp), %rdx
	movq	%rdx, %rsi
	movq	%rax, %rdi
	call	__ZNSt8__detail9_CompilerINSt7__cxx1112regex_traitsIcEEE6_M_popEv
	movq	-120(%rbp), %rax
	movq	%rax, %rdi
	call	__ZNSt8__detail9_CompilerINSt7__cxx1112regex_traitsIcEEE14_M_alternativeEv
	leaq	-112(%rbp), %rax
	movq	-120(%rbp), %rdx
	movq	%rdx, %rsi
	movq	%rax, %rdi
	call	__ZNSt8__detail9_CompilerINSt7__cxx1112regex_traitsIcEEE6_M_popEv
	movq	-120(%rbp), %rax
	addq	$256, %rax
	movq	%rax, %rdi
	call	__ZNKSt19__shared_ptr_accessINSt8__detail4_NFAINSt7__cxx1112regex_traitsIcEEEELN9__gnu_cxx12_Lock_policyE2ELb0ELb0EEptEv
	movq	%rax, %rdi
	call	__ZNSt8__detail4_NFAINSt7__cxx1112regex_traitsIcEEE15_M_insert_dummyEv
	movq	%rax, -24(%rbp)
	movq	-24(%rbp), %rdx
	leaq	-80(%rbp), %rax
	movq	%rdx, %rsi
	movq	%rax, %rdi
	call	__ZNSt8__detail9_StateSeqINSt7__cxx1112regex_traitsIcEEE9_M_appendEl
	movq	-24(%rbp), %rdx
	leaq	-112(%rbp), %rax
	movq	%rdx, %rsi
	movq	%rax, %rdi
	call	__ZNSt8__detail9_StateSeqINSt7__cxx1112regex_traitsIcEEE9_M_appendEl
	movq	-120(%rbp), %rax
	leaq	304(%rax), %rbx
	movq	-120(%rbp), %rax
	addq	$256, %rax
	movq	%rax, %rdi
	call	__ZNKSt19__shared_ptr_accessINSt8__detail4_NFAINSt7__cxx1112regex_traitsIcEEEELN9__gnu_cxx12_Lock_policyE2ELb0ELb0EEptEv
	movq	%rax, %rdi
	movq	-72(%rbp), %rdx
	movq	-104(%rbp), %rax
	movl	$0, %ecx
	movq	%rax, %rsi
	call	__ZNSt8__detail4_NFAINSt7__cxx1112regex_traitsIcEEE13_M_insert_altEllb
	movq	%rax, %r12
	movq	-120(%rbp), %rax
	addq	$256, %rax
	movq	%rax, %rdi
	call	__ZNKSt19__shared_ptr_accessINSt8__detail4_NFAINSt7__cxx1112regex_traitsIcEEEELN9__gnu_cxx12_Lock_policyE2ELb0ELb0EEdeEv
	movq	%rax, %rsi
	movq	-24(%rbp), %rdx
	leaq	-48(%rbp), %rax
	movq	%rdx, %rcx
	movq	%r12, %rdx
	movq	%rax, %rdi
	call	__ZNSt8__detail9_StateSeqINSt7__cxx1112regex_traitsIcEEEC1ERNS_4_NFAIS3_EEll
	leaq	-48(%rbp), %rax
	movq	%rax, %rsi
	movq	%rbx, %rdi
	call	__ZNSt5stackINSt8__detail9_StateSeqINSt7__cxx1112regex_traitsIcEEEESt5dequeIS5_SaIS5_EEE4pushEOS5_
	jmp	L1245
L1246:
	nop
	addq	$112, %rsp
	popq	%rbx
	popq	%r12
	popq	%rbp
LCFI1805:
	ret
LFE6597:
	.align 1
	.globl __ZNSt8__detail9_CompilerINSt7__cxx1112regex_traitsIcEEE14_M_match_tokenENS_12_ScannerBase7_TokenTE
	.weak_definition __ZNSt8__detail9_CompilerINSt7__cxx1112regex_traitsIcEEE14_M_match_tokenENS_12_ScannerBase7_TokenTE
__ZNSt8__detail9_CompilerINSt7__cxx1112regex_traitsIcEEE14_M_match_tokenENS_12_ScannerBase7_TokenTE:
LFB6598:
	pushq	%rbp
LCFI1806:
	movq	%rsp, %rbp
LCFI1807:
	subq	$16, %rsp
	movq	%rdi, -8(%rbp)
	movl	%esi, -12(%rbp)
	movq	-8(%rbp), %rax
	addq	$8, %rax
	movq	%rax, %rdi
	call	__ZNKSt8__detail8_ScannerIcE12_M_get_tokenEv
	cmpl	%eax, -12(%rbp)
	sete	%al
	testb	%al, %al
	je	L1248
	movq	-8(%rbp), %rax
	addq	$8, %rax
	movq	%rax, %rdi
	call	__ZNKSt8__detail8_ScannerIcE12_M_get_valueB5cxx11Ev
	movq	%rax, %rdx
	movq	-8(%rbp), %rax
	addq	$272, %rax
	movq	%rdx, %rsi
	movq	%rax, %rdi
	call	__ZNSt7__cxx1112basic_stringIcSt11char_traitsIcESaIcEEaSERKS4_
	movq	-8(%rbp), %rax
	addq	$8, %rax
	movq	%rax, %rdi
	call	__ZNSt8__detail8_ScannerIcE10_M_advanceEv
	movl	$1, %eax
	jmp	L1249
L1248:
	movl	$0, %eax
L1249:
	leave
LCFI1808:
	ret
LFE6598:
	.align 1
	.globl __ZNSt8__detail9_CompilerINSt7__cxx1112regex_traitsIcEEE6_M_popEv
	.weak_definition __ZNSt8__detail9_CompilerINSt7__cxx1112regex_traitsIcEEE6_M_popEv
__ZNSt8__detail9_CompilerINSt7__cxx1112regex_traitsIcEEE6_M_popEv:
LFB6599:
	pushq	%rbp
LCFI1809:
	movq	%rsp, %rbp
LCFI1810:
	subq	$16, %rsp
	movq	%rdi, -8(%rbp)
	movq	%rsi, -16(%rbp)
	movq	-16(%rbp), %rax
	addq	$304, %rax
	movq	%rax, %rdi
	call	__ZNSt5stackINSt8__detail9_StateSeqINSt7__cxx1112regex_traitsIcEEEESt5dequeIS5_SaIS5_EEE3topEv
	movq	-8(%rbp), %rdx
	movq	(%rax), %rcx
	movq	%rcx, (%rdx)
	movq	8(%rax), %rcx
	movq	%rcx, 8(%rdx)
	movq	16(%rax), %rax
	movq	%rax, 16(%rdx)
	movq	-16(%rbp), %rax
	addq	$304, %rax
	movq	%rax, %rdi
	call	__ZNSt5stackINSt8__detail9_StateSeqINSt7__cxx1112regex_traitsIcEEEESt5dequeIS5_SaIS5_EEE3popEv
	nop
	movq	-8(%rbp), %rax
	leave
LCFI1811:
	ret
LFE6599:
	.align 1
	.globl __ZNSt8__detail9_StateSeqINSt7__cxx1112regex_traitsIcEEE9_M_appendERKS4_
	.weak_definition __ZNSt8__detail9_StateSeqINSt7__cxx1112regex_traitsIcEEE9_M_appendERKS4_
__ZNSt8__detail9_StateSeqINSt7__cxx1112regex_traitsIcEEE9_M_appendERKS4_:
LFB6600:
	pushq	%rbp
LCFI1812:
	movq	%rsp, %rbp
LCFI1813:
	subq	$16, %rsp
	movq	%rdi, -8(%rbp)
	movq	%rsi, -16(%rbp)
	movq	-8(%rbp), %rax
	movq	16(%rax), %rax
	movq	%rax, %rdx
	movq	-8(%rbp), %rax
	movq	(%rax), %rax
	addq	$56, %rax
	movq	%rdx, %rsi
	movq	%rax, %rdi
	call	__ZNSt6vectorINSt8__detail6_StateIcEESaIS2_EEixEm
	movq	-16(%rbp), %rdx
	movq	8(%rdx), %rdx
	movq	%rdx, 8(%rax)
	movq	-16(%rbp), %rax
	movq	16(%rax), %rdx
	movq	-8(%rbp), %rax
	movq	%rdx, 16(%rax)
	nop
	leave
LCFI1814:
	ret
LFE6600:
	.align 1
	.globl __ZNSt8__detail4_NFAINSt7__cxx1112regex_traitsIcEEE21_M_insert_subexpr_endEv
	.weak_definition __ZNSt8__detail4_NFAINSt7__cxx1112regex_traitsIcEEE21_M_insert_subexpr_endEv
__ZNSt8__detail4_NFAINSt7__cxx1112regex_traitsIcEEE21_M_insert_subexpr_endEv:
LFB6601:
	pushq	%rbp
LCFI1815:
	movq	%rsp, %rbp
LCFI1816:
	pushq	%rbx
	subq	$120, %rsp
LCFI1817:
	movq	%rdi, -120(%rbp)
	leaq	-112(%rbp), %rax
	movl	$9, %esi
	movq	%rax, %rdi
LEHB115:
	call	__ZNSt8__detail6_StateIcEC1ENS_7_OpcodeE
LEHE115:
	movq	-120(%rbp), %rax
	movq	%rax, %rdi
	call	__ZNSt6vectorImSaImEE4backEv
	movq	(%rax), %rax
	movq	%rax, -96(%rbp)
	movq	-120(%rbp), %rax
	movq	%rax, %rdi
	call	__ZNSt6vectorImSaImEE8pop_backEv
	leaq	-112(%rbp), %rax
	movq	%rax, %rdi
	call	__ZSt4moveIRNSt8__detail6_StateIcEEEONSt16remove_referenceIT_E4typeEOS5_
	movq	%rax, %rdx
	leaq	-64(%rbp), %rax
	movq	%rdx, %rsi
	movq	%rax, %rdi
LEHB116:
	call	__ZNSt8__detail6_StateIcEC1EOS1_
LEHE116:
	leaq	-64(%rbp), %rax
	movq	-120(%rbp), %rdx
	movq	%rax, %rsi
	movq	%rdx, %rdi
LEHB117:
	call	__ZNSt8__detail4_NFAINSt7__cxx1112regex_traitsIcEEE15_M_insert_stateENS_6_StateIcEE
LEHE117:
	movq	%rax, %rbx
	leaq	-64(%rbp), %rax
	movq	%rax, %rdi
	call	__ZNSt8__detail6_StateIcED1Ev
	leaq	-112(%rbp), %rax
	movq	%rax, %rdi
	call	__ZNSt8__detail6_StateIcED1Ev
	movq	%rbx, %rax
	jmp	L1259
L1258:
	movq	%rax, %rbx
	leaq	-64(%rbp), %rax
	movq	%rax, %rdi
	call	__ZNSt8__detail6_StateIcED1Ev
	jmp	L1256
L1257:
	movq	%rax, %rbx
L1256:
	leaq	-112(%rbp), %rax
	movq	%rax, %rdi
	call	__ZNSt8__detail6_StateIcED1Ev
	movq	%rbx, %rax
	movq	%rax, %rdi
LEHB118:
	call	__Unwind_Resume
LEHE118:
L1259:
	addq	$120, %rsp
	popq	%rbx
	popq	%rbp
LCFI1818:
	ret
LFE6601:
	.section __DATA,__gcc_except_tab
GCC_except_table51:
LLSDA6601:
	.byte	0xff
	.byte	0x3
	.byte	0x34
	.set L$set$299,LEHB115-LFB6601
	.long L$set$299
	.set L$set$300,LEHE115-LEHB115
	.long L$set$300
	.long	0
	.byte	0
	.set L$set$301,LEHB116-LFB6601
	.long L$set$301
	.set L$set$302,LEHE116-LEHB116
	.long L$set$302
	.set L$set$303,L1257-LFB6601
	.long L$set$303
	.byte	0
	.set L$set$304,LEHB117-LFB6601
	.long L$set$304
	.set L$set$305,LEHE117-LEHB117
	.long L$set$305
	.set L$set$306,L1258-LFB6601
	.long L$set$306
	.byte	0
	.set L$set$307,LEHB118-LFB6601
	.long L$set$307
	.set L$set$308,LEHE118-LEHB118
	.long L$set$308
	.long	0
	.byte	0
	.section __TEXT,__textcoal_nt,coalesced,pure_instructions
	.align 1
	.globl __ZNSt8__detail4_NFAINSt7__cxx1112regex_traitsIcEEE16_M_insert_acceptEv
	.weak_definition __ZNSt8__detail4_NFAINSt7__cxx1112regex_traitsIcEEE16_M_insert_acceptEv
__ZNSt8__detail4_NFAINSt7__cxx1112regex_traitsIcEEE16_M_insert_acceptEv:
LFB6602:
	pushq	%rbp
LCFI1819:
	movq	%rsp, %rbp
LCFI1820:
	pushq	%rbx
	subq	$88, %rsp
LCFI1821:
	movq	%rdi, -88(%rbp)
	leaq	-80(%rbp), %rax
	movl	$12, %esi
	movq	%rax, %rdi
LEHB119:
	call	__ZNSt8__detail6_StateIcEC1ENS_7_OpcodeE
LEHE119:
	leaq	-80(%rbp), %rax
	movq	-88(%rbp), %rdx
	movq	%rax, %rsi
	movq	%rdx, %rdi
LEHB120:
	call	__ZNSt8__detail4_NFAINSt7__cxx1112regex_traitsIcEEE15_M_insert_stateENS_6_StateIcEE
LEHE120:
	movq	%rax, -24(%rbp)
	leaq	-80(%rbp), %rax
	movq	%rax, %rdi
	call	__ZNSt8__detail6_StateIcED1Ev
	movq	-24(%rbp), %rax
	jmp	L1264
L1263:
	movq	%rax, %rbx
	leaq	-80(%rbp), %rax
	movq	%rax, %rdi
	call	__ZNSt8__detail6_StateIcED1Ev
	movq	%rbx, %rax
	movq	%rax, %rdi
LEHB121:
	call	__Unwind_Resume
LEHE121:
L1264:
	addq	$88, %rsp
	popq	%rbx
	popq	%rbp
LCFI1822:
	ret
LFE6602:
	.section __DATA,__gcc_except_tab
GCC_except_table52:
LLSDA6602:
	.byte	0xff
	.byte	0x3
	.byte	0x27
	.set L$set$309,LEHB119-LFB6602
	.long L$set$309
	.set L$set$310,LEHE119-LEHB119
	.long L$set$310
	.long	0
	.byte	0
	.set L$set$311,LEHB120-LFB6602
	.long L$set$311
	.set L$set$312,LEHE120-LEHB120
	.long L$set$312
	.set L$set$313,L1263-LFB6602
	.long L$set$313
	.byte	0
	.set L$set$314,LEHB121-LFB6602
	.long L$set$314
	.set L$set$315,LEHE121-LEHB121
	.long L$set$315
	.long	0
	.byte	0
	.section __TEXT,__textcoal_nt,coalesced,pure_instructions
	.align 1
	.globl __ZNSt8__detail4_NFAINSt7__cxx1112regex_traitsIcEEE18_M_eliminate_dummyEv
	.weak_definition __ZNSt8__detail4_NFAINSt7__cxx1112regex_traitsIcEEE18_M_eliminate_dummyEv
__ZNSt8__detail4_NFAINSt7__cxx1112regex_traitsIcEEE18_M_eliminate_dummyEv:
LFB6603:
	pushq	%rbp
LCFI1823:
	movq	%rsp, %rbp
LCFI1824:
	subq	$48, %rsp
	movq	%rdi, -40(%rbp)
	movq	-40(%rbp), %rax
	movq	%rax, -8(%rbp)
	movq	-8(%rbp), %rax
	addq	$56, %rax
	movq	%rax, %rdi
	call	__ZNSt6vectorINSt8__detail6_StateIcEESaIS2_EE5beginEv
	movq	%rax, -24(%rbp)
	movq	-8(%rbp), %rax
	addq	$56, %rax
	movq	%rax, %rdi
	call	__ZNSt6vectorINSt8__detail6_StateIcEESaIS2_EE3endEv
	movq	%rax, -32(%rbp)
L1275:
	leaq	-32(%rbp), %rdx
	leaq	-24(%rbp), %rax
	movq	%rdx, %rsi
	movq	%rax, %rdi
	call	__ZN9__gnu_cxxneIPNSt8__detail6_StateIcEESt6vectorIS3_SaIS3_EEEEbRKNS_17__normal_iteratorIT_T0_EESD_
	testb	%al, %al
	je	L1276
	leaq	-24(%rbp), %rax
	movq	%rax, %rdi
	call	__ZNK9__gnu_cxx17__normal_iteratorIPNSt8__detail6_StateIcEESt6vectorIS3_SaIS3_EEEdeEv
	movq	%rax, -16(%rbp)
L1270:
	movq	-16(%rbp), %rax
	movq	8(%rax), %rax
	testq	%rax, %rax
	js	L1267
	movq	-16(%rbp), %rax
	movq	8(%rax), %rax
	movq	%rax, %rdx
	movq	-40(%rbp), %rax
	addq	$56, %rax
	movq	%rdx, %rsi
	movq	%rax, %rdi
	call	__ZNSt6vectorINSt8__detail6_StateIcEESaIS2_EEixEm
	movq	%rax, %rdi
	call	__ZNKSt8__detail6_StateIcE9_M_opcodeEv
	cmpl	$10, %eax
	jne	L1267
	movl	$1, %eax
	jmp	L1268
L1267:
	movl	$0, %eax
L1268:
	testb	%al, %al
	je	L1269
	movq	-16(%rbp), %rax
	movq	8(%rax), %rax
	movq	%rax, %rdx
	movq	-40(%rbp), %rax
	addq	$56, %rax
	movq	%rdx, %rsi
	movq	%rax, %rdi
	call	__ZNSt6vectorINSt8__detail6_StateIcEESaIS2_EEixEm
	movq	8(%rax), %rdx
	movq	-16(%rbp), %rax
	movq	%rdx, 8(%rax)
	jmp	L1270
L1269:
	movq	-16(%rbp), %rax
	movq	%rax, %rdi
	call	__ZNSt8__detail11_State_base10_M_has_altEv
	testb	%al, %al
	je	L1271
L1274:
	movq	-16(%rbp), %rax
	movq	16(%rax), %rax
	testq	%rax, %rax
	js	L1272
	movq	-16(%rbp), %rax
	movq	16(%rax), %rax
	movq	%rax, %rdx
	movq	-40(%rbp), %rax
	addq	$56, %rax
	movq	%rdx, %rsi
	movq	%rax, %rdi
	call	__ZNSt6vectorINSt8__detail6_StateIcEESaIS2_EEixEm
	movq	%rax, %rdi
	call	__ZNKSt8__detail6_StateIcE9_M_opcodeEv
	cmpl	$10, %eax
	jne	L1272
	movl	$1, %eax
	jmp	L1273
L1272:
	movl	$0, %eax
L1273:
	testb	%al, %al
	je	L1271
	movq	-16(%rbp), %rax
	movq	16(%rax), %rax
	movq	%rax, %rdx
	movq	-40(%rbp), %rax
	addq	$56, %rax
	movq	%rdx, %rsi
	movq	%rax, %rdi
	call	__ZNSt6vectorINSt8__detail6_StateIcEESaIS2_EEixEm
	movq	8(%rax), %rdx
	movq	-16(%rbp), %rax
	movq	%rdx, 16(%rax)
	jmp	L1274
L1271:
	leaq	-24(%rbp), %rax
	movq	%rax, %rdi
	call	__ZN9__gnu_cxx17__normal_iteratorIPNSt8__detail6_StateIcEESt6vectorIS3_SaIS3_EEEppEv
	jmp	L1275
L1276:
	nop
	leave
LCFI1825:
	ret
LFE6603:
	.align 1
	.globl __ZNSt11_Deque_baseINSt8__detail9_StateSeqINSt7__cxx1112regex_traitsIcEEEESaIS5_EE11_Deque_implD1Ev
	.weak_definition __ZNSt11_Deque_baseINSt8__detail9_StateSeqINSt7__cxx1112regex_traitsIcEEEESaIS5_EE11_Deque_implD1Ev
__ZNSt11_Deque_baseINSt8__detail9_StateSeqINSt7__cxx1112regex_traitsIcEEEESaIS5_EE11_Deque_implD1Ev:
LFB6607:
	pushq	%rbp
LCFI1826:
	movq	%rsp, %rbp
LCFI1827:
	subq	$16, %rsp
	movq	%rdi, -8(%rbp)
	movq	-8(%rbp), %rax
	movq	%rax, %rdi
	call	__ZNSaINSt8__detail9_StateSeqINSt7__cxx1112regex_traitsIcEEEEED2Ev
	nop
	leave
LCFI1828:
	ret
LFE6607:
	.align 1
	.globl __ZNSt11_Deque_baseINSt8__detail9_StateSeqINSt7__cxx1112regex_traitsIcEEEESaIS5_EED2Ev
	.weak_definition __ZNSt11_Deque_baseINSt8__detail9_StateSeqINSt7__cxx1112regex_traitsIcEEEESaIS5_EED2Ev
__ZNSt11_Deque_baseINSt8__detail9_StateSeqINSt7__cxx1112regex_traitsIcEEEESaIS5_EED2Ev:
LFB6608:
	pushq	%rbp
LCFI1829:
	movq	%rsp, %rbp
LCFI1830:
	subq	$16, %rsp
	movq	%rdi, -8(%rbp)
	movq	-8(%rbp), %rax
	movq	(%rax), %rax
	testq	%rax, %rax
	je	L1279
	movq	-8(%rbp), %rax
	movq	72(%rax), %rax
	leaq	8(%rax), %rdx
	movq	-8(%rbp), %rax
	movq	40(%rax), %rcx
	movq	-8(%rbp), %rax
	movq	%rcx, %rsi
	movq	%rax, %rdi
	call	__ZNSt11_Deque_baseINSt8__detail9_StateSeqINSt7__cxx1112regex_traitsIcEEEESaIS5_EE16_M_destroy_nodesEPPS5_S9_
	movq	-8(%rbp), %rax
	movq	8(%rax), %rdx
	movq	-8(%rbp), %rax
	movq	(%rax), %rcx
	movq	-8(%rbp), %rax
	movq	%rcx, %rsi
	movq	%rax, %rdi
	call	__ZNSt11_Deque_baseINSt8__detail9_StateSeqINSt7__cxx1112regex_traitsIcEEEESaIS5_EE17_M_deallocate_mapEPPS5_m
L1279:
	movq	-8(%rbp), %rax
	movq	%rax, %rdi
	call	__ZNSt11_Deque_baseINSt8__detail9_StateSeqINSt7__cxx1112regex_traitsIcEEEESaIS5_EE11_Deque_implD1Ev
	nop
	leave
LCFI1831:
	ret
LFE6608:
	.align 1
	.globl __ZNSt5dequeINSt8__detail9_StateSeqINSt7__cxx1112regex_traitsIcEEEESaIS5_EE5beginEv
	.weak_definition __ZNSt5dequeINSt8__detail9_StateSeqINSt7__cxx1112regex_traitsIcEEEESaIS5_EE5beginEv
__ZNSt5dequeINSt8__detail9_StateSeqINSt7__cxx1112regex_traitsIcEEEESaIS5_EE5beginEv:
LFB6610:
	pushq	%rbp
LCFI1832:
	movq	%rsp, %rbp
LCFI1833:
	movq	%rdi, -8(%rbp)
	movq	%rsi, -16(%rbp)
	movq	-8(%rbp), %rax
	movq	-16(%rbp), %rdx
	movq	16(%rdx), %rcx
	movq	%rcx, (%rax)
	movq	24(%rdx), %rcx
	movq	%rcx, 8(%rax)
	movq	32(%rdx), %rcx
	movq	%rcx, 16(%rax)
	movq	40(%rdx), %rdx
	movq	%rdx, 24(%rax)
	movq	-8(%rbp), %rax
	popq	%rbp
LCFI1834:
	ret
LFE6610:
	.align 1
	.globl __ZNSt5dequeINSt8__detail9_StateSeqINSt7__cxx1112regex_traitsIcEEEESaIS5_EE3endEv
	.weak_definition __ZNSt5dequeINSt8__detail9_StateSeqINSt7__cxx1112regex_traitsIcEEEESaIS5_EE3endEv
__ZNSt5dequeINSt8__detail9_StateSeqINSt7__cxx1112regex_traitsIcEEEESaIS5_EE3endEv:
LFB6611:
	pushq	%rbp
LCFI1835:
	movq	%rsp, %rbp
LCFI1836:
	movq	%rdi, -8(%rbp)
	movq	%rsi, -16(%rbp)
	movq	-8(%rbp), %rax
	movq	-16(%rbp), %rdx
	movq	48(%rdx), %rcx
	movq	%rcx, (%rax)
	movq	56(%rdx), %rcx
	movq	%rcx, 8(%rax)
	movq	64(%rdx), %rcx
	movq	%rcx, 16(%rax)
	movq	72(%rdx), %rdx
	movq	%rdx, 24(%rax)
	movq	-8(%rbp), %rax
	popq	%rbp
LCFI1837:
	ret
LFE6611:
	.align 1
	.globl __ZNSt11_Deque_baseINSt8__detail9_StateSeqINSt7__cxx1112regex_traitsIcEEEESaIS5_EE19_M_get_Tp_allocatorEv
	.weak_definition __ZNSt11_Deque_baseINSt8__detail9_StateSeqINSt7__cxx1112regex_traitsIcEEEESaIS5_EE19_M_get_Tp_allocatorEv
__ZNSt11_Deque_baseINSt8__detail9_StateSeqINSt7__cxx1112regex_traitsIcEEEESaIS5_EE19_M_get_Tp_allocatorEv:
LFB6612:
	pushq	%rbp
LCFI1838:
	movq	%rsp, %rbp
LCFI1839:
	movq	%rdi, -8(%rbp)
	movq	-8(%rbp), %rax
	popq	%rbp
LCFI1840:
	ret
LFE6612:
	.align 1
	.globl __ZNSt5dequeINSt8__detail9_StateSeqINSt7__cxx1112regex_traitsIcEEEESaIS5_EE15_M_destroy_dataESt15_Deque_iteratorIS5_RS5_PS5_ESB_RKS6_
	.weak_definition __ZNSt5dequeINSt8__detail9_StateSeqINSt7__cxx1112regex_traitsIcEEEESaIS5_EE15_M_destroy_dataESt15_Deque_iteratorIS5_RS5_PS5_ESB_RKS6_
__ZNSt5dequeINSt8__detail9_StateSeqINSt7__cxx1112regex_traitsIcEEEESaIS5_EE15_M_destroy_dataESt15_Deque_iteratorIS5_RS5_PS5_ESB_RKS6_:
LFB6613:
	pushq	%rbp
LCFI1841:
	movq	%rsp, %rbp
LCFI1842:
	movq	%rdi, -8(%rbp)
	movq	%rsi, -16(%rbp)
	nop
	popq	%rbp
LCFI1843:
	ret
LFE6613:
	.globl __ZSt4moveIRSt10shared_ptrINSt8__detail4_NFAINSt7__cxx1112regex_traitsIcEEEEEEONSt16remove_referenceIT_E4typeEOSA_
	.weak_definition __ZSt4moveIRSt10shared_ptrINSt8__detail4_NFAINSt7__cxx1112regex_traitsIcEEEEEEONSt16remove_referenceIT_E4typeEOSA_
__ZSt4moveIRSt10shared_ptrINSt8__detail4_NFAINSt7__cxx1112regex_traitsIcEEEEEEONSt16remove_referenceIT_E4typeEOSA_:
LFB6614:
	pushq	%rbp
LCFI1844:
	movq	%rsp, %rbp
LCFI1845:
	movq	%rdi, -8(%rbp)
	movq	-8(%rbp), %rax
	popq	%rbp
LCFI1846:
	ret
LFE6614:
	.align 1
	.globl __ZNSt10shared_ptrIKNSt8__detail4_NFAINSt7__cxx1112regex_traitsIcEEEEEC1IS5_vEEOS_IT_E
	.weak_definition __ZNSt10shared_ptrIKNSt8__detail4_NFAINSt7__cxx1112regex_traitsIcEEEEEC1IS5_vEEOS_IT_E
__ZNSt10shared_ptrIKNSt8__detail4_NFAINSt7__cxx1112regex_traitsIcEEEEEC1IS5_vEEOS_IT_E:
LFB6617:
	pushq	%rbp
LCFI1847:
	movq	%rsp, %rbp
LCFI1848:
	pushq	%rbx
	subq	$24, %rsp
LCFI1849:
	movq	%rdi, -24(%rbp)
	movq	%rsi, -32(%rbp)
	movq	-24(%rbp), %rbx
	movq	-32(%rbp), %rax
	movq	%rax, %rdi
	call	__ZSt4moveIRSt10shared_ptrINSt8__detail4_NFAINSt7__cxx1112regex_traitsIcEEEEEEONSt16remove_referenceIT_E4typeEOSA_
	movq	%rax, %rsi
	movq	%rbx, %rdi
	call	__ZNSt12__shared_ptrIKNSt8__detail4_NFAINSt7__cxx1112regex_traitsIcEEEELN9__gnu_cxx12_Lock_policyE2EEC2IS5_vEEOS_IT_LS8_2EE
	nop
	addq	$24, %rsp
	popq	%rbx
	popq	%rbp
LCFI1850:
	ret
LFE6617:
	.align 1
	.globl __ZNSt14__shared_countILN9__gnu_cxx12_Lock_policyE2EEC1Ev
	.weak_definition __ZNSt14__shared_countILN9__gnu_cxx12_Lock_policyE2EEC1Ev
__ZNSt14__shared_countILN9__gnu_cxx12_Lock_policyE2EEC1Ev:
LFB6620:
	pushq	%rbp
LCFI1851:
	movq	%rsp, %rbp
LCFI1852:
	movq	%rdi, -8(%rbp)
	movq	-8(%rbp), %rax
	movq	$0, (%rax)
	nop
	popq	%rbp
LCFI1853:
	ret
LFE6620:
	.align 1
	.globl __ZNSt14__shared_countILN9__gnu_cxx12_Lock_policyE2EE7_M_swapERS2_
	.weak_definition __ZNSt14__shared_countILN9__gnu_cxx12_Lock_policyE2EE7_M_swapERS2_
__ZNSt14__shared_countILN9__gnu_cxx12_Lock_policyE2EE7_M_swapERS2_:
LFB6621:
	pushq	%rbp
LCFI1854:
	movq	%rsp, %rbp
LCFI1855:
	movq	%rdi, -24(%rbp)
	movq	%rsi, -32(%rbp)
	movq	-32(%rbp), %rax
	movq	(%rax), %rax
	movq	%rax, -8(%rbp)
	movq	-24(%rbp), %rax
	movq	(%rax), %rdx
	movq	-32(%rbp), %rax
	movq	%rdx, (%rax)
	movq	-24(%rbp), %rax
	movq	-8(%rbp), %rdx
	movq	%rdx, (%rax)
	nop
	popq	%rbp
LCFI1856:
	ret
LFE6621:
	.align 1
	.globl __ZNSt12_Vector_baseINSt7__cxx119sub_matchIN9__gnu_cxx17__normal_iteratorIPKcNS0_12basic_stringIcSt11char_traitsIcESaIcEEEEEEESaISC_EEC2ERKSD_
	.weak_definition __ZNSt12_Vector_baseINSt7__cxx119sub_matchIN9__gnu_cxx17__normal_iteratorIPKcNS0_12basic_stringIcSt11char_traitsIcESaIcEEEEEEESaISC_EEC2ERKSD_
__ZNSt12_Vector_baseINSt7__cxx119sub_matchIN9__gnu_cxx17__normal_iteratorIPKcNS0_12basic_stringIcSt11char_traitsIcESaIcEEEEEEESaISC_EEC2ERKSD_:
LFB6623:
	pushq	%rbp
LCFI1857:
	movq	%rsp, %rbp
LCFI1858:
	subq	$16, %rsp
	movq	%rdi, -8(%rbp)
	movq	%rsi, -16(%rbp)
	movq	-8(%rbp), %rax
	movq	-16(%rbp), %rdx
	movq	%rdx, %rsi
	movq	%rax, %rdi
	call	__ZNSt12_Vector_baseINSt7__cxx119sub_matchIN9__gnu_cxx17__normal_iteratorIPKcNS0_12basic_stringIcSt11char_traitsIcESaIcEEEEEEESaISC_EE12_Vector_implC1ERKSD_
	nop
	leave
LCFI1859:
	ret
LFE6623:
	.globl __ZNSt16allocator_traitsISaINSt7__cxx119sub_matchIN9__gnu_cxx17__normal_iteratorIPKcNS0_12basic_stringIcSt11char_traitsIcESaIcEEEEEEEEE10deallocateERSD_PSC_m
	.weak_definition __ZNSt16allocator_traitsISaINSt7__cxx119sub_matchIN9__gnu_cxx17__normal_iteratorIPKcNS0_12basic_stringIcSt11char_traitsIcESaIcEEEEEEEEE10deallocateERSD_PSC_m
__ZNSt16allocator_traitsISaINSt7__cxx119sub_matchIN9__gnu_cxx17__normal_iteratorIPKcNS0_12basic_stringIcSt11char_traitsIcESaIcEEEEEEEEE10deallocateERSD_PSC_m:
LFB6625:
	pushq	%rbp
LCFI1860:
	movq	%rsp, %rbp
LCFI1861:
	subq	$32, %rsp
	movq	%rdi, -8(%rbp)
	movq	%rsi, -16(%rbp)
	movq	%rdx, -24(%rbp)
	movq	-24(%rbp), %rdx
	movq	-16(%rbp), %rcx
	movq	-8(%rbp), %rax
	movq	%rcx, %rsi
	movq	%rax, %rdi
	call	__ZN9__gnu_cxx13new_allocatorINSt7__cxx119sub_matchINS_17__normal_iteratorIPKcNS1_12basic_stringIcSt11char_traitsIcESaIcEEEEEEEE10deallocateEPSC_m
	nop
	leave
LCFI1862:
	ret
LFE6625:
	.globl __ZNSt12_Destroy_auxILb1EE9__destroyIPNSt7__cxx119sub_matchIN9__gnu_cxx17__normal_iteratorIPKcNS2_12basic_stringIcSt11char_traitsIcESaIcEEEEEEEEEvT_SG_
	.weak_definition __ZNSt12_Destroy_auxILb1EE9__destroyIPNSt7__cxx119sub_matchIN9__gnu_cxx17__normal_iteratorIPKcNS2_12basic_stringIcSt11char_traitsIcESaIcEEEEEEEEEvT_SG_
